
spi.elf:     file format elf32-littlearm


Disassembly of section .text:

80100000 <_start>:
80100000:	ea000006 	b	80100020 <Reset_Handler>

80100004 <Undefined_Handler>:
80100004:	e59ff130 	ldr	pc, [pc, #304]	; 8010013c <loop+0x48>

80100008 <SVC_Handler>:
80100008:	e59ff130 	ldr	pc, [pc, #304]	; 80100140 <loop+0x4c>

8010000c <PrefAbort_Handler>:
8010000c:	e59ff130 	ldr	pc, [pc, #304]	; 80100144 <loop+0x50>

80100010 <DataAbort_Handler>:
80100010:	e59ff130 	ldr	pc, [pc, #304]	; 80100148 <loop+0x54>

80100014 <Reseved>:
80100014:	00000000 	andeq	r0, r0, r0
80100018:	e59ff12c 	ldr	pc, [pc, #300]	; 8010014c <loop+0x58>

8010001c <FIQ_Handler>:
8010001c:	e59ff12c 	ldr	pc, [pc, #300]	; 80100150 <loop+0x5c>

80100020 <Reset_Handler>:
80100020:	eb00001a 	bl	80100090 <enable_clock>
80100024:	ee110f10 	mrc	15, 0, r0, cr1, cr0, {0}
80100028:	e3c00a02 	bic	r0, r0, #8192	; 0x2000
8010002c:	e3c00a01 	bic	r0, r0, #4096	; 0x1000
80100030:	e3c00004 	bic	r0, r0, #4
80100034:	e3c00b02 	bic	r0, r0, #2048	; 0x800
80100038:	e3c00001 	bic	r0, r0, #1
8010003c:	ee010f10 	mcr	15, 0, r0, cr1, cr0, {0}
80100040:	e59f010c 	ldr	r0, [pc, #268]	; 80100154 <loop+0x60>
80100044:	ee0c0f10 	mcr	15, 0, r0, cr12, cr0, {0}
80100048:	e10f0000 	mrs	r0, CPSR
8010004c:	e3c0001f 	bic	r0, r0, #31
80100050:	e3800012 	orr	r0, r0, #18
80100054:	e129f000 	msr	CPSR_fc, r0
80100058:	e59fd0f8 	ldr	sp, [pc, #248]	; 80100158 <loop+0x64>
8010005c:	f1020013 	cps	#19
80100060:	e59fd0f4 	ldr	sp, [pc, #244]	; 8010015c <loop+0x68>
80100064:	eb000001 	bl	80100070 <clean_bss>
80100068:	fa0004b3 	blx	8010133c <main>

8010006c <halt>:
8010006c:	eafffffe 	b	8010006c <halt>

80100070 <clean_bss>:
80100070:	e59f10e8 	ldr	r1, [pc, #232]	; 80100160 <loop+0x6c>
80100074:	e59f20e8 	ldr	r2, [pc, #232]	; 80100164 <loop+0x70>
80100078:	e3a00000 	mov	r0, #0

8010007c <clean>:
8010007c:	e1510002 	cmp	r1, r2
80100080:	b5810000 	strlt	r0, [r1]
80100084:	e2811004 	add	r1, r1, #4
80100088:	bafffffb 	blt	8010007c <clean>
8010008c:	e1a0f00e 	mov	pc, lr

80100090 <enable_clock>:
80100090:	e59f00d0 	ldr	r0, [pc, #208]	; 80100168 <loop+0x74>
80100094:	e59f20d0 	ldr	r2, [pc, #208]	; 8010016c <loop+0x78>
80100098:	e3e01000 	mvn	r1, #0
8010009c:	e4801004 	str	r1, [r0], #4
801000a0:	e1500002 	cmp	r0, r2
801000a4:	dafffffc 	ble	8010009c <enable_clock+0xc>
801000a8:	e1a0f00e 	mov	pc, lr

801000ac <IRQ_Handler>:
801000ac:	e24ee004 	sub	lr, lr, #4
801000b0:	e92d5fff 	push	{r0, r1, r2, r3, r4, r5, r6, r7, r8, r9, sl, fp, ip, lr}
801000b4:	fa000135 	blx	80100590 <Handle_IRQ_c>
801000b8:	e8fd9fff 	ldm	sp!, {r0, r1, r2, r3, r4, r5, r6, r7, r8, r9, sl, fp, ip, pc}^

801000bc <test_led>:
801000bc:	e59f00ac 	ldr	r0, [pc, #172]	; 80100170 <loop+0x7c>
801000c0:	e5901000 	ldr	r1, [r0]
801000c4:	e3c11038 	bic	r1, r1, #56	; 0x38
801000c8:	e3811028 	orr	r1, r1, #40	; 0x28
801000cc:	e5801000 	str	r1, [r0]
801000d0:	e59f009c 	ldr	r0, [pc, #156]	; 80100174 <loop+0x80>
801000d4:	e5901000 	ldr	r1, [r0]
801000d8:	e3c1100f 	bic	r1, r1, #15
801000dc:	e3811005 	orr	r1, r1, #5
801000e0:	e5801000 	str	r1, [r0]
801000e4:	e59f008c 	ldr	r0, [pc, #140]	; 80100178 <loop+0x84>
801000e8:	e5901000 	ldr	r1, [r0]
801000ec:	e3811008 	orr	r1, r1, #8
801000f0:	e5801000 	str	r1, [r0]

801000f4 <loop>:
801000f4:	e59f006c 	ldr	r0, [pc, #108]	; 80100168 <loop+0x74>
801000f8:	e3a03000 	mov	r3, #0
801000fc:	e3a02832 	mov	r2, #3276800	; 0x320000
80100100:	e5901000 	ldr	r1, [r0]
80100104:	e3c11008 	bic	r1, r1, #8
80100108:	e5801000 	str	r1, [r0]
8010010c:	e2833001 	add	r3, r3, #1
80100110:	e1520003 	cmp	r2, r3
80100114:	1afffffc 	bne	8010010c <loop+0x18>
80100118:	e3a02832 	mov	r2, #3276800	; 0x320000
8010011c:	e3a03000 	mov	r3, #0
80100120:	e5901000 	ldr	r1, [r0]
80100124:	e3811008 	orr	r1, r1, #8
80100128:	e5801000 	str	r1, [r0]
8010012c:	e2833001 	add	r3, r3, #1
80100130:	e1520003 	cmp	r2, r3
80100134:	1afffffc 	bne	8010012c <loop+0x38>
80100138:	eaffffed 	b	801000f4 <loop>
8010013c:	80100004 	andshi	r0, r0, r4
80100140:	80100008 	andshi	r0, r0, r8
80100144:	8010000c 	andshi	r0, r0, ip
80100148:	80100010 	andshi	r0, r0, r0, lsl r0
8010014c:	801000ac 	andshi	r0, r0, ip, lsr #1
80100150:	8010001c 	andshi	r0, r0, ip, lsl r0
80100154:	80100000 	andshi	r0, r0, r0
80100158:	80400000 	subhi	r0, r0, r0
8010015c:	80300000 	eorshi	r0, r0, r0
80100160:	80101710 	andshi	r1, r0, r0, lsl r7
80100164:	80101c14 	andshi	r1, r0, r4, lsl ip
80100168:	020ac000 	andeq	ip, sl, #0
8010016c:	020ac018 	andeq	ip, sl, #24
80100170:	02290058 	eoreq	r0, r9, #88	; 0x58
80100174:	02290014 	eoreq	r0, r9, #20
80100178:	020ac004 	andeq	ip, sl, #4

8010017c <led_init>:
8010017c:	b5f8      	push	{r3, r4, r5, r6, r7, lr}
8010017e:	2314      	movs	r3, #20
80100180:	f2c0 2329 	movt	r3, #553	; 0x229
80100184:	f241 54fc 	movw	r4, #5628	; 0x15fc
80100188:	f2c8 0410 	movt	r4, #32784	; 0x8010
8010018c:	2658      	movs	r6, #88	; 0x58
8010018e:	681d      	ldr	r5, [r3, #0]
80100190:	f2c0 2629 	movt	r6, #553	; 0x229
80100194:	6820      	ldr	r0, [r4, #0]
80100196:	f241 07b0 	movw	r7, #4272	; 0x10b0
8010019a:	2201      	movs	r2, #1
8010019c:	2103      	movs	r1, #3
8010019e:	f025 050f 	bic.w	r5, r5, #15
801001a2:	601d      	str	r5, [r3, #0]
801001a4:	681d      	ldr	r5, [r3, #0]
801001a6:	f045 0505 	orr.w	r5, r5, #5
801001aa:	601d      	str	r5, [r3, #0]
801001ac:	6037      	str	r7, [r6, #0]
801001ae:	f000 f82b 	bl	80100208 <gpio_set_pin_mode>
801001b2:	6820      	ldr	r0, [r4, #0]
801001b4:	2201      	movs	r2, #1
801001b6:	2103      	movs	r1, #3
801001b8:	e8bd 40f8 	ldmia.w	sp!, {r3, r4, r5, r6, r7, lr}
801001bc:	f000 b86c 	b.w	80100298 <gpio_set_pin_value>

801001c0 <led_ctl>:
801001c0:	f241 53fc 	movw	r3, #5628	; 0x15fc
801001c4:	f2c8 0310 	movt	r3, #32784	; 0x8010
801001c8:	681a      	ldr	r2, [r3, #0]
801001ca:	6813      	ldr	r3, [r2, #0]
801001cc:	b918      	cbnz	r0, 801001d6 <led_ctl+0x16>
801001ce:	f043 0308 	orr.w	r3, r3, #8
801001d2:	6013      	str	r3, [r2, #0]
801001d4:	4770      	bx	lr
801001d6:	f023 0308 	bic.w	r3, r3, #8
801001da:	6013      	str	r3, [r2, #0]
801001dc:	4770      	bx	lr
801001de:	bf00      	nop

801001e0 <turn_on_led2>:
801001e0:	f241 53fc 	movw	r3, #5628	; 0x15fc
801001e4:	f2c8 0310 	movt	r3, #32784	; 0x8010
801001e8:	681a      	ldr	r2, [r3, #0]
801001ea:	6813      	ldr	r3, [r2, #0]
801001ec:	f023 0308 	bic.w	r3, r3, #8
801001f0:	6013      	str	r3, [r2, #0]
801001f2:	4770      	bx	lr

801001f4 <turn_off_led2>:
801001f4:	f241 53fc 	movw	r3, #5628	; 0x15fc
801001f8:	f2c8 0310 	movt	r3, #32784	; 0x8010
801001fc:	681a      	ldr	r2, [r3, #0]
801001fe:	6813      	ldr	r3, [r2, #0]
80100200:	f043 0308 	orr.w	r3, r3, #8
80100204:	6013      	str	r3, [r2, #0]
80100206:	4770      	bx	lr

80100208 <gpio_set_pin_mode>:
80100208:	291f      	cmp	r1, #31
8010020a:	bf94      	ite	ls
8010020c:	2300      	movls	r3, #0
8010020e:	2301      	movhi	r3, #1
80100210:	2800      	cmp	r0, #0
80100212:	bf08      	it	eq
80100214:	f043 0301 	orreq.w	r3, r3, #1
80100218:	b9db      	cbnz	r3, 80100252 <gpio_set_pin_mode+0x4a>
8010021a:	2a01      	cmp	r2, #1
8010021c:	b430      	push	{r4, r5}
8010021e:	d011      	beq.n	80100244 <gpio_set_pin_mode+0x3c>
80100220:	6845      	ldr	r5, [r0, #4]
80100222:	2401      	movs	r4, #1
80100224:	fa04 f101 	lsl.w	r1, r4, r1
80100228:	2a02      	cmp	r2, #2
8010022a:	ea25 0501 	bic.w	r5, r5, r1
8010022e:	6045      	str	r5, [r0, #4]
80100230:	d105      	bne.n	8010023e <gpio_set_pin_mode+0x36>
80100232:	6942      	ldr	r2, [r0, #20]
80100234:	f06f 4470 	mvn.w	r4, #4026531840	; 0xf0000000
80100238:	6184      	str	r4, [r0, #24]
8010023a:	4311      	orrs	r1, r2
8010023c:	6141      	str	r1, [r0, #20]
8010023e:	4618      	mov	r0, r3
80100240:	bc30      	pop	{r4, r5}
80100242:	4770      	bx	lr
80100244:	6844      	ldr	r4, [r0, #4]
80100246:	408a      	lsls	r2, r1
80100248:	4322      	orrs	r2, r4
8010024a:	bc30      	pop	{r4, r5}
8010024c:	6042      	str	r2, [r0, #4]
8010024e:	4618      	mov	r0, r3
80100250:	4770      	bx	lr
80100252:	f04f 33ff 	mov.w	r3, #4294967295	; 0xffffffff
80100256:	4618      	mov	r0, r3
80100258:	4770      	bx	lr
8010025a:	bf00      	nop

8010025c <gpio_set_intMode>:
8010025c:	290f      	cmp	r1, #15
8010025e:	b410      	push	{r4}
80100260:	d90d      	bls.n	8010027e <gpio_set_intMode+0x22>
80100262:	3910      	subs	r1, #16
80100264:	6903      	ldr	r3, [r0, #16]
80100266:	0049      	lsls	r1, r1, #1
80100268:	2403      	movs	r4, #3
8010026a:	408c      	lsls	r4, r1
8010026c:	fa02 f101 	lsl.w	r1, r2, r1
80100270:	ea23 0304 	bic.w	r3, r3, r4
80100274:	f85d 4b04 	ldr.w	r4, [sp], #4
80100278:	4319      	orrs	r1, r3
8010027a:	6101      	str	r1, [r0, #16]
8010027c:	4770      	bx	lr
8010027e:	0049      	lsls	r1, r1, #1
80100280:	68c3      	ldr	r3, [r0, #12]
80100282:	2403      	movs	r4, #3
80100284:	408c      	lsls	r4, r1
80100286:	fa02 f101 	lsl.w	r1, r2, r1
8010028a:	ea23 0304 	bic.w	r3, r3, r4
8010028e:	f85d 4b04 	ldr.w	r4, [sp], #4
80100292:	4319      	orrs	r1, r3
80100294:	60c1      	str	r1, [r0, #12]
80100296:	4770      	bx	lr

80100298 <gpio_set_pin_value>:
80100298:	b410      	push	{r4}
8010029a:	2401      	movs	r4, #1
8010029c:	6803      	ldr	r3, [r0, #0]
8010029e:	408c      	lsls	r4, r1
801002a0:	408a      	lsls	r2, r1
801002a2:	ea23 0304 	bic.w	r3, r3, r4
801002a6:	f85d 4b04 	ldr.w	r4, [sp], #4
801002aa:	4313      	orrs	r3, r2
801002ac:	6003      	str	r3, [r0, #0]
801002ae:	4770      	bx	lr

801002b0 <gpio_get_pin_value>:
801002b0:	6800      	ldr	r0, [r0, #0]
801002b2:	40c8      	lsrs	r0, r1
801002b4:	f000 0001 	and.w	r0, r0, #1
801002b8:	4770      	bx	lr
801002ba:	bf00      	nop

801002bc <imx6ull_clock_init>:
801002bc:	f244 010c 	movw	r1, #16396	; 0x400c
801002c0:	b470      	push	{r4, r5, r6}
801002c2:	f2c0 210c 	movt	r1, #524	; 0x20c
801002c6:	f44f 4300 	mov.w	r3, #32768	; 0x8000
801002ca:	f2c0 230c 	movt	r3, #524	; 0x20c
801002ce:	6808      	ldr	r0, [r1, #0]
801002d0:	461a      	mov	r2, r3
801002d2:	f420 7080 	bic.w	r0, r0, #256	; 0x100
801002d6:	6008      	str	r0, [r1, #0]
801002d8:	6808      	ldr	r0, [r1, #0]
801002da:	f040 0004 	orr.w	r0, r0, #4
801002de:	6008      	str	r0, [r1, #0]
801002e0:	6819      	ldr	r1, [r3, #0]
801002e2:	f021 017f 	bic.w	r1, r1, #127	; 0x7f
801002e6:	6019      	str	r1, [r3, #0]
801002e8:	6819      	ldr	r1, [r3, #0]
801002ea:	f441 5101 	orr.w	r1, r1, #8256	; 0x2040
801002ee:	f041 0118 	orr.w	r1, r1, #24
801002f2:	6019      	str	r1, [r3, #0]
801002f4:	6813      	ldr	r3, [r2, #0]
801002f6:	2b00      	cmp	r3, #0
801002f8:	dafc      	bge.n	801002f4 <imx6ull_clock_init+0x38>
801002fa:	f244 010c 	movw	r1, #16396	; 0x400c
801002fe:	f244 0310 	movw	r3, #16400	; 0x4010
80100302:	f2c0 210c 	movt	r1, #524	; 0x20c
80100306:	f2c0 230c 	movt	r3, #524	; 0x20c
8010030a:	6808      	ldr	r0, [r1, #0]
8010030c:	f244 0248 	movw	r2, #16456	; 0x4048
80100310:	f2c0 220c 	movt	r2, #524	; 0x20c
80100314:	f020 0004 	bic.w	r0, r0, #4
80100318:	6008      	str	r0, [r1, #0]
8010031a:	6819      	ldr	r1, [r3, #0]
8010031c:	f021 0107 	bic.w	r1, r1, #7
80100320:	6019      	str	r1, [r3, #0]
80100322:	6819      	ldr	r1, [r3, #0]
80100324:	f041 0101 	orr.w	r1, r1, #1
80100328:	6019      	str	r1, [r3, #0]
8010032a:	6813      	ldr	r3, [r2, #0]
8010032c:	03d9      	lsls	r1, r3, #15
8010032e:	d4fc      	bmi.n	8010032a <imx6ull_clock_init+0x6e>
80100330:	f44f 4401 	mov.w	r4, #33024	; 0x8100
80100334:	f241 051b 	movw	r5, #4123	; 0x101b
80100338:	f2c0 240c 	movt	r4, #524	; 0x20c
8010033c:	f2c3 0518 	movt	r5, #12312	; 0x3018
80100340:	6820      	ldr	r0, [r4, #0]
80100342:	f244 0118 	movw	r1, #16408	; 0x4018
80100346:	6826      	ldr	r6, [r4, #0]
80100348:	f2c0 210c 	movt	r1, #524	; 0x20c
8010034c:	f244 0314 	movw	r3, #16404	; 0x4014
80100350:	f244 0248 	movw	r2, #16456	; 0x4048
80100354:	f000 3040 	and.w	r0, r0, #1077952576	; 0x40404040
80100358:	f2c0 230c 	movt	r3, #524	; 0x20c
8010035c:	4335      	orrs	r5, r6
8010035e:	f2c0 220c 	movt	r2, #524	; 0x20c
80100362:	4328      	orrs	r0, r5
80100364:	6020      	str	r0, [r4, #0]
80100366:	6808      	ldr	r0, [r1, #0]
80100368:	f420 2040 	bic.w	r0, r0, #786432	; 0xc0000
8010036c:	6008      	str	r0, [r1, #0]
8010036e:	6808      	ldr	r0, [r1, #0]
80100370:	f440 2000 	orr.w	r0, r0, #524288	; 0x80000
80100374:	6008      	str	r0, [r1, #0]
80100376:	6819      	ldr	r1, [r3, #0]
80100378:	f021 7100 	bic.w	r1, r1, #33554432	; 0x2000000
8010037c:	6019      	str	r1, [r3, #0]
8010037e:	6819      	ldr	r1, [r3, #0]
80100380:	f421 51e0 	bic.w	r1, r1, #7168	; 0x1c00
80100384:	6019      	str	r1, [r3, #0]
80100386:	6819      	ldr	r1, [r3, #0]
80100388:	f441 6100 	orr.w	r1, r1, #2048	; 0x800
8010038c:	6019      	str	r1, [r3, #0]
8010038e:	6813      	ldr	r3, [r2, #0]
80100390:	079b      	lsls	r3, r3, #30
80100392:	d4fc      	bmi.n	8010038e <imx6ull_clock_init+0xd2>
80100394:	f244 0114 	movw	r1, #16404	; 0x4014
80100398:	f244 041c 	movw	r4, #16412	; 0x401c
8010039c:	f2c0 210c 	movt	r1, #524	; 0x20c
801003a0:	f2c0 240c 	movt	r4, #524	; 0x20c
801003a4:	680d      	ldr	r5, [r1, #0]
801003a6:	f248 00f0 	movw	r0, #33008	; 0x80f0
801003aa:	f2c0 200c 	movt	r0, #524	; 0x20c
801003ae:	f241 030c 	movw	r3, #4108	; 0x100c
801003b2:	f2c1 3311 	movt	r3, #4881	; 0x1311
801003b6:	f244 0224 	movw	r2, #16420	; 0x4024
801003ba:	f425 7540 	bic.w	r5, r5, #768	; 0x300
801003be:	f2c0 220c 	movt	r2, #524	; 0x20c
801003c2:	600d      	str	r5, [r1, #0]
801003c4:	680d      	ldr	r5, [r1, #0]
801003c6:	f445 7580 	orr.w	r5, r5, #256	; 0x100
801003ca:	600d      	str	r5, [r1, #0]
801003cc:	6821      	ldr	r1, [r4, #0]
801003ce:	f021 017f 	bic.w	r1, r1, #127	; 0x7f
801003d2:	6021      	str	r1, [r4, #0]
801003d4:	6801      	ldr	r1, [r0, #0]
801003d6:	6804      	ldr	r4, [r0, #0]
801003d8:	f001 3140 	and.w	r1, r1, #1077952576	; 0x40404040
801003dc:	4323      	orrs	r3, r4
801003de:	bc70      	pop	{r4, r5, r6}
801003e0:	430b      	orrs	r3, r1
801003e2:	6003      	str	r3, [r0, #0]
801003e4:	6813      	ldr	r3, [r2, #0]
801003e6:	f023 0340 	bic.w	r3, r3, #64	; 0x40
801003ea:	6013      	str	r3, [r2, #0]
801003ec:	6813      	ldr	r3, [r2, #0]
801003ee:	f023 033f 	bic.w	r3, r3, #63	; 0x3f
801003f2:	6013      	str	r3, [r2, #0]
801003f4:	4770      	bx	lr
801003f6:	bf00      	nop

801003f8 <Uart_Init>:
801003f8:	2300      	movs	r3, #0
801003fa:	2088      	movs	r0, #136	; 0x88
801003fc:	2284      	movs	r2, #132	; 0x84
801003fe:	4619      	mov	r1, r3
80100400:	f2c0 200e 	movt	r0, #526	; 0x20e
80100404:	f2c0 2302 	movt	r3, #514	; 0x202
80100408:	f2c0 220e 	movt	r2, #526	; 0x20e
8010040c:	b410      	push	{r4}
8010040e:	6001      	str	r1, [r0, #0]
80100410:	f44f 7420 	mov.w	r4, #640	; 0x280
80100414:	2047      	movs	r0, #71	; 0x47
80100416:	6011      	str	r1, [r2, #0]
80100418:	f640 4134 	movw	r1, #3124	; 0xc34
8010041c:	f8d3 2080 	ldr.w	r2, [r3, #128]	; 0x80
80100420:	f042 0201 	orr.w	r2, r2, #1
80100424:	f8c3 2080 	str.w	r2, [r3, #128]	; 0x80
80100428:	f8d3 2084 	ldr.w	r2, [r3, #132]	; 0x84
8010042c:	f442 4280 	orr.w	r2, r2, #16384	; 0x4000
80100430:	f042 0226 	orr.w	r2, r2, #38	; 0x26
80100434:	f8c3 2084 	str.w	r2, [r3, #132]	; 0x84
80100438:	f8d3 2088 	ldr.w	r2, [r3, #136]	; 0x88
8010043c:	f042 0204 	orr.w	r2, r2, #4
80100440:	f8c3 2088 	str.w	r2, [r3, #136]	; 0x88
80100444:	f8c3 4090 	str.w	r4, [r3, #144]	; 0x90
80100448:	f8c3 00a4 	str.w	r0, [r3, #164]	; 0xa4
8010044c:	f8c3 10a8 	str.w	r1, [r3, #168]	; 0xa8
80100450:	f8d3 2080 	ldr.w	r2, [r3, #128]	; 0x80
80100454:	f85d 4b04 	ldr.w	r4, [sp], #4
80100458:	f042 0201 	orr.w	r2, r2, #1
8010045c:	f8c3 2080 	str.w	r2, [r3, #128]	; 0x80
80100460:	4770      	bx	lr
80100462:	bf00      	nop

80100464 <PutChar>:
80100464:	2200      	movs	r2, #0
80100466:	f2c0 2202 	movt	r2, #514	; 0x202
8010046a:	f8d2 3098 	ldr.w	r3, [r2, #152]	; 0x98
8010046e:	071b      	lsls	r3, r3, #28
80100470:	d5fb      	bpl.n	8010046a <PutChar+0x6>
80100472:	b2c0      	uxtb	r0, r0
80100474:	6410      	str	r0, [r2, #64]	; 0x40
80100476:	4770      	bx	lr

80100478 <GetChar>:
80100478:	2200      	movs	r2, #0
8010047a:	f2c0 2202 	movt	r2, #514	; 0x202
8010047e:	f8d2 3098 	ldr.w	r3, [r2, #152]	; 0x98
80100482:	07db      	lsls	r3, r3, #31
80100484:	d5fb      	bpl.n	8010047e <GetChar+0x6>
80100486:	6810      	ldr	r0, [r2, #0]
80100488:	b2c0      	uxtb	r0, r0
8010048a:	4770      	bx	lr

8010048c <PutStr>:
8010048c:	7801      	ldrb	r1, [r0, #0]
8010048e:	b159      	cbz	r1, 801004a8 <PutStr+0x1c>
80100490:	2200      	movs	r2, #0
80100492:	f2c0 2202 	movt	r2, #514	; 0x202
80100496:	f8d2 3098 	ldr.w	r3, [r2, #152]	; 0x98
8010049a:	071b      	lsls	r3, r3, #28
8010049c:	d5fb      	bpl.n	80100496 <PutStr+0xa>
8010049e:	6411      	str	r1, [r2, #64]	; 0x40
801004a0:	f810 1f01 	ldrb.w	r1, [r0, #1]!
801004a4:	2900      	cmp	r1, #0
801004a6:	d1f6      	bne.n	80100496 <PutStr+0xa>
801004a8:	4770      	bx	lr
801004aa:	bf00      	nop

801004ac <default_isr>:
801004ac:	4770      	bx	lr
801004ae:	bf00      	nop

801004b0 <gic_enable_irq>:
801004b0:	ee9f 3f10 	mrc	15, 4, r3, cr15, cr0, {0}
801004b4:	2101      	movs	r1, #1
801004b6:	1142      	asrs	r2, r0, #5
801004b8:	f000 001f 	and.w	r0, r0, #31
801004bc:	fa01 f000 	lsl.w	r0, r1, r0
801004c0:	f502 6288 	add.w	r2, r2, #1088	; 0x440
801004c4:	f843 0022 	str.w	r0, [r3, r2, lsl #2]
801004c8:	4770      	bx	lr
801004ca:	bf00      	nop

801004cc <gic_disable_irq>:
801004cc:	ee9f 3f10 	mrc	15, 4, r3, cr15, cr0, {0}
801004d0:	2101      	movs	r1, #1
801004d2:	1142      	asrs	r2, r0, #5
801004d4:	f000 001f 	and.w	r0, r0, #31
801004d8:	fa01 f000 	lsl.w	r0, r1, r0
801004dc:	f502 628c 	add.w	r2, r2, #1120	; 0x460
801004e0:	f843 0022 	str.w	r0, [r3, r2, lsl #2]
801004e4:	4770      	bx	lr
801004e6:	bf00      	nop

801004e8 <int_init>:
801004e8:	b4f0      	push	{r4, r5, r6, r7}
801004ea:	ee9f 4f10 	mrc	15, 4, r4, cr15, cr0, {0}
801004ee:	f241 0204 	movw	r2, #4100	; 0x1004
801004f2:	2300      	movs	r3, #0
801004f4:	58a1      	ldr	r1, [r4, r2]
801004f6:	f04f 30ff 	mov.w	r0, #4294967295	; 0xffffffff
801004fa:	f001 011f 	and.w	r1, r1, #31
801004fe:	3101      	adds	r1, #1
80100500:	f503 628c 	add.w	r2, r3, #1120	; 0x460
80100504:	3301      	adds	r3, #1
80100506:	4299      	cmp	r1, r3
80100508:	f844 0022 	str.w	r0, [r4, r2, lsl #2]
8010050c:	d1f8      	bne.n	80100500 <int_init+0x18>
8010050e:	f241 7314 	movw	r3, #5908	; 0x1714
80100512:	f242 0604 	movw	r6, #8196	; 0x2004
80100516:	27f8      	movs	r7, #248	; 0xf8
80100518:	f240 42ad 	movw	r2, #1197	; 0x4ad
8010051c:	f2c8 0310 	movt	r3, #32784	; 0x8010
80100520:	51a7      	str	r7, [r4, r6]
80100522:	f242 0508 	movw	r5, #8200	; 0x2008
80100526:	2702      	movs	r7, #2
80100528:	f2c8 0210 	movt	r2, #32784	; 0x8010
8010052c:	f503 60a0 	add.w	r0, r3, #1280	; 0x500
80100530:	2100      	movs	r1, #0
80100532:	5167      	str	r7, [r4, r5]
80100534:	f504 5680 	add.w	r6, r4, #4096	; 0x1000
80100538:	2501      	movs	r5, #1
8010053a:	f504 5400 	add.w	r4, r4, #8192	; 0x2000
8010053e:	6035      	str	r5, [r6, #0]
80100540:	6025      	str	r5, [r4, #0]
80100542:	601a      	str	r2, [r3, #0]
80100544:	3308      	adds	r3, #8
80100546:	f843 1c04 	str.w	r1, [r3, #-4]
8010054a:	4298      	cmp	r0, r3
8010054c:	d1f9      	bne.n	80100542 <int_init+0x5a>
8010054e:	b662      	cpsie	i
80100550:	bcf0      	pop	{r4, r5, r6, r7}
80100552:	4770      	bx	lr

80100554 <request_irq>:
80100554:	289f      	cmp	r0, #159	; 0x9f
80100556:	dd02      	ble.n	8010055e <request_irq+0xa>
80100558:	f04f 30ff 	mov.w	r0, #4294967295	; 0xffffffff
8010055c:	4770      	bx	lr
8010055e:	f241 7314 	movw	r3, #5908	; 0x1714
80100562:	b410      	push	{r4}
80100564:	f2c8 0310 	movt	r3, #32784	; 0x8010
80100568:	eb03 04c0 	add.w	r4, r3, r0, lsl #3
8010056c:	f843 1030 	str.w	r1, [r3, r0, lsl #3]
80100570:	6062      	str	r2, [r4, #4]
80100572:	ee9f 3f10 	mrc	15, 4, r3, cr15, cr0, {0}
80100576:	2101      	movs	r1, #1
80100578:	1142      	asrs	r2, r0, #5
8010057a:	f000 001f 	and.w	r0, r0, #31
8010057e:	f85d 4b04 	ldr.w	r4, [sp], #4
80100582:	4081      	lsls	r1, r0
80100584:	f502 6288 	add.w	r2, r2, #1088	; 0x440
80100588:	2000      	movs	r0, #0
8010058a:	f843 1022 	str.w	r1, [r3, r2, lsl #2]
8010058e:	4770      	bx	lr

80100590 <Handle_IRQ_c>:
80100590:	b538      	push	{r3, r4, r5, lr}
80100592:	2061      	movs	r0, #97	; 0x61
80100594:	f7ff ff66 	bl	80100464 <PutChar>
80100598:	ee9f 5f10 	mrc	15, 4, r5, cr15, cr0, {0}
8010059c:	f242 020c 	movw	r2, #8204	; 0x200c
801005a0:	f241 7314 	movw	r3, #5908	; 0x1714
801005a4:	58ac      	ldr	r4, [r5, r2]
801005a6:	f2c8 0310 	movt	r3, #32784	; 0x8010
801005aa:	f3c4 0409 	ubfx	r4, r4, #0, #10
801005ae:	eb03 02c4 	add.w	r2, r3, r4, lsl #3
801005b2:	4620      	mov	r0, r4
801005b4:	f853 3034 	ldr.w	r3, [r3, r4, lsl #3]
801005b8:	6851      	ldr	r1, [r2, #4]
801005ba:	4798      	blx	r3
801005bc:	f242 0310 	movw	r3, #8208	; 0x2010
801005c0:	50ec      	str	r4, [r5, r3]
801005c2:	bd38      	pop	{r3, r4, r5, pc}

801005c4 <key_GPIO5_1_init>:
801005c4:	b5f8      	push	{r3, r4, r5, r6, r7, lr}
801005c6:	230c      	movs	r3, #12
801005c8:	f2c0 2329 	movt	r3, #553	; 0x229
801005cc:	2650      	movs	r6, #80	; 0x50
801005ce:	f44f 4440 	mov.w	r4, #49152	; 0xc000
801005d2:	f2c0 2629 	movt	r6, #553	; 0x229
801005d6:	681d      	ldr	r5, [r3, #0]
801005d8:	f2c0 240a 	movt	r4, #522	; 0x20a
801005dc:	2700      	movs	r7, #0
801005de:	4620      	mov	r0, r4
801005e0:	2202      	movs	r2, #2
801005e2:	2101      	movs	r1, #1
801005e4:	f025 050f 	bic.w	r5, r5, #15
801005e8:	601d      	str	r5, [r3, #0]
801005ea:	681d      	ldr	r5, [r3, #0]
801005ec:	f045 0505 	orr.w	r5, r5, #5
801005f0:	601d      	str	r5, [r3, #0]
801005f2:	6037      	str	r7, [r6, #0]
801005f4:	f7ff fe08 	bl	80100208 <gpio_set_pin_mode>
801005f8:	4620      	mov	r0, r4
801005fa:	2203      	movs	r2, #3
801005fc:	2101      	movs	r1, #1
801005fe:	e8bd 40f8 	ldmia.w	sp!, {r3, r4, r5, r6, r7, lr}
80100602:	f7ff be2b 	b.w	8010025c <gpio_set_intMode>
80100606:	bf00      	nop

80100608 <key_irqHandler>:
80100608:	b530      	push	{r4, r5, lr}
8010060a:	206c      	movs	r0, #108	; 0x6c
8010060c:	b083      	sub	sp, #12
8010060e:	f7ff ff29 	bl	80100464 <PutChar>
80100612:	2300      	movs	r3, #0
80100614:	f242 720f 	movw	r2, #9999	; 0x270f
80100618:	9301      	str	r3, [sp, #4]
8010061a:	9b01      	ldr	r3, [sp, #4]
8010061c:	4293      	cmp	r3, r2
8010061e:	dc05      	bgt.n	8010062c <key_irqHandler+0x24>
80100620:	9b01      	ldr	r3, [sp, #4]
80100622:	3301      	adds	r3, #1
80100624:	9301      	str	r3, [sp, #4]
80100626:	9b01      	ldr	r3, [sp, #4]
80100628:	4293      	cmp	r3, r2
8010062a:	ddf9      	ble.n	80100620 <key_irqHandler+0x18>
8010062c:	f44f 4440 	mov.w	r4, #49152	; 0xc000
80100630:	2101      	movs	r1, #1
80100632:	f2c0 240a 	movt	r4, #522	; 0x20a
80100636:	4620      	mov	r0, r4
80100638:	f7ff fe3a 	bl	801002b0 <gpio_get_pin_value>
8010063c:	b9a0      	cbnz	r0, 80100668 <key_irqHandler+0x60>
8010063e:	69a3      	ldr	r3, [r4, #24]
80100640:	079b      	lsls	r3, r3, #30
80100642:	d401      	bmi.n	80100648 <key_irqHandler+0x40>
80100644:	b003      	add	sp, #12
80100646:	bd30      	pop	{r4, r5, pc}
80100648:	f241 7510 	movw	r5, #5904	; 0x1710
8010064c:	f2c8 0510 	movt	r5, #32784	; 0x8010
80100650:	6828      	ldr	r0, [r5, #0]
80100652:	f7ff fdb5 	bl	801001c0 <led_ctl>
80100656:	682b      	ldr	r3, [r5, #0]
80100658:	2202      	movs	r2, #2
8010065a:	fab3 f383 	clz	r3, r3
8010065e:	095b      	lsrs	r3, r3, #5
80100660:	602b      	str	r3, [r5, #0]
80100662:	61a2      	str	r2, [r4, #24]
80100664:	b003      	add	sp, #12
80100666:	bd30      	pop	{r4, r5, pc}
80100668:	2302      	movs	r3, #2
8010066a:	61a3      	str	r3, [r4, #24]
8010066c:	b003      	add	sp, #12
8010066e:	bd30      	pop	{r4, r5, pc}

80100670 <i2c_init>:
80100670:	b5f0      	push	{r4, r5, r6, r7, lr}
80100672:	f44f 61b5 	mov.w	r1, #1448	; 0x5a8
80100676:	27b8      	movs	r7, #184	; 0xb8
80100678:	2612      	movs	r6, #18
8010067a:	f2c0 270e 	movt	r7, #526	; 0x20e
8010067e:	f2c0 210e 	movt	r1, #526	; 0x20e
80100682:	25b4      	movs	r5, #180	; 0xb4
80100684:	f240 54a4 	movw	r4, #1444	; 0x5a4
80100688:	f44f 7050 	mov.w	r0, #832	; 0x340
8010068c:	f44f 7351 	mov.w	r3, #836	; 0x344
80100690:	2200      	movs	r2, #0
80100692:	f04f 0e02 	mov.w	lr, #2
80100696:	603e      	str	r6, [r7, #0]
80100698:	f2c0 221a 	movt	r2, #538	; 0x21a
8010069c:	f8c1 e000 	str.w	lr, [r1]
801006a0:	f2c0 250e 	movt	r5, #526	; 0x20e
801006a4:	f2c0 230e 	movt	r3, #526	; 0x20e
801006a8:	f247 01b0 	movw	r1, #28848	; 0x70b0
801006ac:	f2c0 240e 	movt	r4, #526	; 0x20e
801006b0:	f2c0 200e 	movt	r0, #526	; 0x20e
801006b4:	2701      	movs	r7, #1
801006b6:	602e      	str	r6, [r5, #0]
801006b8:	6027      	str	r7, [r4, #0]
801006ba:	2538      	movs	r5, #56	; 0x38
801006bc:	6001      	str	r1, [r0, #0]
801006be:	6019      	str	r1, [r3, #0]
801006c0:	8913      	ldrh	r3, [r2, #8]
801006c2:	f023 0380 	bic.w	r3, r3, #128	; 0x80
801006c6:	041b      	lsls	r3, r3, #16
801006c8:	0c1b      	lsrs	r3, r3, #16
801006ca:	8113      	strh	r3, [r2, #8]
801006cc:	8095      	strh	r5, [r2, #4]
801006ce:	8913      	ldrh	r3, [r2, #8]
801006d0:	b29b      	uxth	r3, r3
801006d2:	f043 0380 	orr.w	r3, r3, #128	; 0x80
801006d6:	8113      	strh	r3, [r2, #8]
801006d8:	bdf0      	pop	{r4, r5, r6, r7, pc}
801006da:	bf00      	nop

801006dc <i2c_start>:
801006dc:	8983      	ldrh	r3, [r0, #12]
801006de:	f013 0320 	ands.w	r3, r3, #32
801006e2:	d123      	bne.n	8010072c <i2c_start+0x50>
801006e4:	8902      	ldrh	r2, [r0, #8]
801006e6:	b410      	push	{r4}
801006e8:	684c      	ldr	r4, [r1, #4]
801006ea:	f022 0208 	bic.w	r2, r2, #8
801006ee:	0412      	lsls	r2, r2, #16
801006f0:	0c12      	lsrs	r2, r2, #16
801006f2:	8102      	strh	r2, [r0, #8]
801006f4:	8902      	ldrh	r2, [r0, #8]
801006f6:	b292      	uxth	r2, r2
801006f8:	f042 0230 	orr.w	r2, r2, #48	; 0x30
801006fc:	8102      	strh	r2, [r0, #8]
801006fe:	b164      	cbz	r4, 8010071a <i2c_start+0x3e>
80100700:	694a      	ldr	r2, [r1, #20]
80100702:	6809      	ldr	r1, [r1, #0]
80100704:	f85d 4b04 	ldr.w	r4, [sp], #4
80100708:	fab2 f282 	clz	r2, r2
8010070c:	0952      	lsrs	r2, r2, #5
8010070e:	ea42 0241 	orr.w	r2, r2, r1, lsl #1
80100712:	b292      	uxth	r2, r2
80100714:	8202      	strh	r2, [r0, #16]
80100716:	4618      	mov	r0, r3
80100718:	4770      	bx	lr
8010071a:	680a      	ldr	r2, [r1, #0]
8010071c:	4623      	mov	r3, r4
8010071e:	f85d 4b04 	ldr.w	r4, [sp], #4
80100722:	0052      	lsls	r2, r2, #1
80100724:	b292      	uxth	r2, r2
80100726:	8202      	strh	r2, [r0, #16]
80100728:	4618      	mov	r0, r3
8010072a:	4770      	bx	lr
8010072c:	2301      	movs	r3, #1
8010072e:	4618      	mov	r0, r3
80100730:	4770      	bx	lr
80100732:	bf00      	nop

80100734 <i2c_stop>:
80100734:	8903      	ldrh	r3, [r0, #8]
80100736:	f64f 72ff 	movw	r2, #65535	; 0xffff
8010073a:	f023 0338 	bic.w	r3, r3, #56	; 0x38
8010073e:	041b      	lsls	r3, r3, #16
80100740:	0c1b      	lsrs	r3, r3, #16
80100742:	8103      	strh	r3, [r0, #8]
80100744:	e001      	b.n	8010074a <i2c_stop+0x16>
80100746:	3a01      	subs	r2, #1
80100748:	d005      	beq.n	80100756 <i2c_stop+0x22>
8010074a:	8983      	ldrh	r3, [r0, #12]
8010074c:	f013 0320 	ands.w	r3, r3, #32
80100750:	d1f9      	bne.n	80100746 <i2c_stop+0x12>
80100752:	4618      	mov	r0, r3
80100754:	4770      	bx	lr
80100756:	2010      	movs	r0, #16
80100758:	4770      	bx	lr
8010075a:	bf00      	nop

8010075c <i2c_repeatStart>:
8010075c:	8982      	ldrh	r2, [r0, #12]
8010075e:	4603      	mov	r3, r0
80100760:	06d1      	lsls	r1, r2, #27
80100762:	d50a      	bpl.n	8010077a <i2c_repeatStart+0x1e>
80100764:	8982      	ldrh	r2, [r0, #12]
80100766:	0692      	lsls	r2, r2, #26
80100768:	d507      	bpl.n	8010077a <i2c_repeatStart+0x1e>
8010076a:	8982      	ldrh	r2, [r0, #12]
8010076c:	2008      	movs	r0, #8
8010076e:	f022 0210 	bic.w	r2, r2, #16
80100772:	0412      	lsls	r2, r2, #16
80100774:	0c12      	lsrs	r2, r2, #16
80100776:	819a      	strh	r2, [r3, #12]
80100778:	4770      	bx	lr
8010077a:	891a      	ldrh	r2, [r3, #8]
8010077c:	2000      	movs	r0, #0
8010077e:	f022 0208 	bic.w	r2, r2, #8
80100782:	0412      	lsls	r2, r2, #16
80100784:	0c12      	lsrs	r2, r2, #16
80100786:	811a      	strh	r2, [r3, #8]
80100788:	891a      	ldrh	r2, [r3, #8]
8010078a:	b292      	uxth	r2, r2
8010078c:	f042 0214 	orr.w	r2, r2, #20
80100790:	811a      	strh	r2, [r3, #8]
80100792:	4770      	bx	lr

80100794 <error_check>:
80100794:	8982      	ldrh	r2, [r0, #12]
80100796:	4603      	mov	r3, r0
80100798:	06d2      	lsls	r2, r2, #27
8010079a:	d512      	bpl.n	801007c2 <error_check+0x2e>
8010079c:	8982      	ldrh	r2, [r0, #12]
8010079e:	2008      	movs	r0, #8
801007a0:	f022 0210 	bic.w	r2, r2, #16
801007a4:	0412      	lsls	r2, r2, #16
801007a6:	0c12      	lsrs	r2, r2, #16
801007a8:	819a      	strh	r2, [r3, #12]
801007aa:	891a      	ldrh	r2, [r3, #8]
801007ac:	f022 0280 	bic.w	r2, r2, #128	; 0x80
801007b0:	0412      	lsls	r2, r2, #16
801007b2:	0c12      	lsrs	r2, r2, #16
801007b4:	811a      	strh	r2, [r3, #8]
801007b6:	891a      	ldrh	r2, [r3, #8]
801007b8:	b292      	uxth	r2, r2
801007ba:	f042 0280 	orr.w	r2, r2, #128	; 0x80
801007be:	811a      	strh	r2, [r3, #8]
801007c0:	4770      	bx	lr
801007c2:	8983      	ldrh	r3, [r0, #12]
801007c4:	f013 0f01 	tst.w	r3, #1
801007c8:	bf14      	ite	ne
801007ca:	2004      	movne	r0, #4
801007cc:	2000      	moveq	r0, #0
801007ce:	4770      	bx	lr

801007d0 <i2c_write>:
801007d0:	b510      	push	{r4, lr}
801007d2:	4604      	mov	r4, r0
801007d4:	89a3      	ldrh	r3, [r4, #12]
801007d6:	061b      	lsls	r3, r3, #24
801007d8:	d5fc      	bpl.n	801007d4 <i2c_write+0x4>
801007da:	89a3      	ldrh	r3, [r4, #12]
801007dc:	f023 0302 	bic.w	r3, r3, #2
801007e0:	041b      	lsls	r3, r3, #16
801007e2:	0c1b      	lsrs	r3, r3, #16
801007e4:	81a3      	strh	r3, [r4, #12]
801007e6:	8923      	ldrh	r3, [r4, #8]
801007e8:	b29b      	uxth	r3, r3
801007ea:	f043 0310 	orr.w	r3, r3, #16
801007ee:	8123      	strh	r3, [r4, #8]
801007f0:	68c8      	ldr	r0, [r1, #12]
801007f2:	1e43      	subs	r3, r0, #1
801007f4:	60cb      	str	r3, [r1, #12]
801007f6:	b190      	cbz	r0, 8010081e <i2c_write+0x4e>
801007f8:	688b      	ldr	r3, [r1, #8]
801007fa:	1c5a      	adds	r2, r3, #1
801007fc:	608a      	str	r2, [r1, #8]
801007fe:	781b      	ldrb	r3, [r3, #0]
80100800:	8223      	strh	r3, [r4, #16]
80100802:	89a3      	ldrh	r3, [r4, #12]
80100804:	0798      	lsls	r0, r3, #30
80100806:	d5fc      	bpl.n	80100802 <i2c_write+0x32>
80100808:	89a3      	ldrh	r3, [r4, #12]
8010080a:	4620      	mov	r0, r4
8010080c:	f023 0302 	bic.w	r3, r3, #2
80100810:	041b      	lsls	r3, r3, #16
80100812:	0c1b      	lsrs	r3, r3, #16
80100814:	81a3      	strh	r3, [r4, #12]
80100816:	f7ff ffbd 	bl	80100794 <error_check>
8010081a:	2800      	cmp	r0, #0
8010081c:	d0e8      	beq.n	801007f0 <i2c_write+0x20>
8010081e:	8922      	ldrh	r2, [r4, #8]
80100820:	f64f 73ff 	movw	r3, #65535	; 0xffff
80100824:	f022 0238 	bic.w	r2, r2, #56	; 0x38
80100828:	0412      	lsls	r2, r2, #16
8010082a:	0c12      	lsrs	r2, r2, #16
8010082c:	8122      	strh	r2, [r4, #8]
8010082e:	e001      	b.n	80100834 <i2c_write+0x64>
80100830:	3b01      	subs	r3, #1
80100832:	d002      	beq.n	8010083a <i2c_write+0x6a>
80100834:	89a2      	ldrh	r2, [r4, #12]
80100836:	0692      	lsls	r2, r2, #26
80100838:	d4fa      	bmi.n	80100830 <i2c_write+0x60>
8010083a:	bd10      	pop	{r4, pc}

8010083c <i2c_read>:
8010083c:	b538      	push	{r3, r4, r5, lr}
8010083e:	4604      	mov	r4, r0
80100840:	460d      	mov	r5, r1
80100842:	89a3      	ldrh	r3, [r4, #12]
80100844:	061a      	lsls	r2, r3, #24
80100846:	d5fc      	bpl.n	80100842 <i2c_read+0x6>
80100848:	89a3      	ldrh	r3, [r4, #12]
8010084a:	696a      	ldr	r2, [r5, #20]
8010084c:	f023 0302 	bic.w	r3, r3, #2
80100850:	041b      	lsls	r3, r3, #16
80100852:	0c1b      	lsrs	r3, r3, #16
80100854:	81a3      	strh	r3, [r4, #12]
80100856:	2a00      	cmp	r2, #0
80100858:	d13a      	bne.n	801008d0 <i2c_read+0x94>
8010085a:	8923      	ldrh	r3, [r4, #8]
8010085c:	68e8      	ldr	r0, [r5, #12]
8010085e:	f023 0318 	bic.w	r3, r3, #24
80100862:	041b      	lsls	r3, r3, #16
80100864:	2801      	cmp	r0, #1
80100866:	ea4f 4313 	mov.w	r3, r3, lsr #16
8010086a:	8123      	strh	r3, [r4, #8]
8010086c:	bf01      	itttt	eq
8010086e:	8923      	ldrheq	r3, [r4, #8]
80100870:	b29b      	uxtheq	r3, r3
80100872:	f043 0308 	orreq.w	r3, r3, #8
80100876:	8123      	strheq	r3, [r4, #8]
80100878:	8a23      	ldrh	r3, [r4, #16]
8010087a:	3801      	subs	r0, #1
8010087c:	60e8      	str	r0, [r5, #12]
8010087e:	89a3      	ldrh	r3, [r4, #12]
80100880:	0799      	lsls	r1, r3, #30
80100882:	d5fc      	bpl.n	8010087e <i2c_read+0x42>
80100884:	89a3      	ldrh	r3, [r4, #12]
80100886:	f023 0302 	bic.w	r3, r3, #2
8010088a:	041b      	lsls	r3, r3, #16
8010088c:	0c1b      	lsrs	r3, r3, #16
8010088e:	81a3      	strh	r3, [r4, #12]
80100890:	b9b0      	cbnz	r0, 801008c0 <i2c_read+0x84>
80100892:	8922      	ldrh	r2, [r4, #8]
80100894:	f64f 73ff 	movw	r3, #65535	; 0xffff
80100898:	f022 0238 	bic.w	r2, r2, #56	; 0x38
8010089c:	0412      	lsls	r2, r2, #16
8010089e:	0c12      	lsrs	r2, r2, #16
801008a0:	8122      	strh	r2, [r4, #8]
801008a2:	e001      	b.n	801008a8 <i2c_read+0x6c>
801008a4:	3b01      	subs	r3, #1
801008a6:	d002      	beq.n	801008ae <i2c_read+0x72>
801008a8:	89a2      	ldrh	r2, [r4, #12]
801008aa:	0692      	lsls	r2, r2, #26
801008ac:	d4fa      	bmi.n	801008a4 <i2c_read+0x68>
801008ae:	68ab      	ldr	r3, [r5, #8]
801008b0:	8a22      	ldrh	r2, [r4, #16]
801008b2:	1c59      	adds	r1, r3, #1
801008b4:	60a9      	str	r1, [r5, #8]
801008b6:	701a      	strb	r2, [r3, #0]
801008b8:	68e8      	ldr	r0, [r5, #12]
801008ba:	2800      	cmp	r0, #0
801008bc:	d1dd      	bne.n	8010087a <i2c_read+0x3e>
801008be:	bd38      	pop	{r3, r4, r5, pc}
801008c0:	2801      	cmp	r0, #1
801008c2:	bf01      	itttt	eq
801008c4:	8923      	ldrheq	r3, [r4, #8]
801008c6:	b29b      	uxtheq	r3, r3
801008c8:	f043 0308 	orreq.w	r3, r3, #8
801008cc:	8123      	strheq	r3, [r4, #8]
801008ce:	e7ee      	b.n	801008ae <i2c_read+0x72>
801008d0:	4620      	mov	r0, r4
801008d2:	f7ff ff43 	bl	8010075c <i2c_repeatStart>
801008d6:	b160      	cbz	r0, 801008f2 <i2c_read+0xb6>
801008d8:	8923      	ldrh	r3, [r4, #8]
801008da:	2008      	movs	r0, #8
801008dc:	f023 0380 	bic.w	r3, r3, #128	; 0x80
801008e0:	041b      	lsls	r3, r3, #16
801008e2:	0c1b      	lsrs	r3, r3, #16
801008e4:	8123      	strh	r3, [r4, #8]
801008e6:	8923      	ldrh	r3, [r4, #8]
801008e8:	b29b      	uxth	r3, r3
801008ea:	f043 0380 	orr.w	r3, r3, #128	; 0x80
801008ee:	8123      	strh	r3, [r4, #8]
801008f0:	bd38      	pop	{r3, r4, r5, pc}
801008f2:	682b      	ldr	r3, [r5, #0]
801008f4:	005b      	lsls	r3, r3, #1
801008f6:	f043 0301 	orr.w	r3, r3, #1
801008fa:	b29b      	uxth	r3, r3
801008fc:	8223      	strh	r3, [r4, #16]
801008fe:	89a3      	ldrh	r3, [r4, #12]
80100900:	079b      	lsls	r3, r3, #30
80100902:	d5fc      	bpl.n	801008fe <i2c_read+0xc2>
80100904:	89a3      	ldrh	r3, [r4, #12]
80100906:	4620      	mov	r0, r4
80100908:	f023 0302 	bic.w	r3, r3, #2
8010090c:	041b      	lsls	r3, r3, #16
8010090e:	0c1b      	lsrs	r3, r3, #16
80100910:	81a3      	strh	r3, [r4, #12]
80100912:	f7ff ff3f 	bl	80100794 <error_check>
80100916:	2800      	cmp	r0, #0
80100918:	d09f      	beq.n	8010085a <i2c_read+0x1e>
8010091a:	8922      	ldrh	r2, [r4, #8]
8010091c:	f64f 73ff 	movw	r3, #65535	; 0xffff
80100920:	f022 0238 	bic.w	r2, r2, #56	; 0x38
80100924:	0412      	lsls	r2, r2, #16
80100926:	0c12      	lsrs	r2, r2, #16
80100928:	8122      	strh	r2, [r4, #8]
8010092a:	e001      	b.n	80100930 <i2c_read+0xf4>
8010092c:	3b01      	subs	r3, #1
8010092e:	d0c6      	beq.n	801008be <i2c_read+0x82>
80100930:	89a2      	ldrh	r2, [r4, #12]
80100932:	0695      	lsls	r5, r2, #26
80100934:	d4fa      	bmi.n	8010092c <i2c_read+0xf0>
80100936:	bd38      	pop	{r3, r4, r5, pc}

80100938 <i2c_transfer>:
80100938:	8983      	ldrh	r3, [r0, #12]
8010093a:	b570      	push	{r4, r5, r6, lr}
8010093c:	4604      	mov	r4, r0
8010093e:	460e      	mov	r6, r1
80100940:	694d      	ldr	r5, [r1, #20]
80100942:	f023 0312 	bic.w	r3, r3, #18
80100946:	041b      	lsls	r3, r3, #16
80100948:	0c1b      	lsrs	r3, r3, #16
8010094a:	8183      	strh	r3, [r0, #12]
8010094c:	89a3      	ldrh	r3, [r4, #12]
8010094e:	061a      	lsls	r2, r3, #24
80100950:	d5fc      	bpl.n	8010094c <i2c_transfer+0x14>
80100952:	4631      	mov	r1, r6
80100954:	4620      	mov	r0, r4
80100956:	f7ff fec1 	bl	801006dc <i2c_start>
8010095a:	b9b0      	cbnz	r0, 8010098a <i2c_transfer+0x52>
8010095c:	89a3      	ldrh	r3, [r4, #12]
8010095e:	079b      	lsls	r3, r3, #30
80100960:	d5fc      	bpl.n	8010095c <i2c_transfer+0x24>
80100962:	4620      	mov	r0, r4
80100964:	f7ff ff16 	bl	80100794 <error_check>
80100968:	b180      	cbz	r0, 8010098c <i2c_transfer+0x54>
8010096a:	8922      	ldrh	r2, [r4, #8]
8010096c:	f64f 73ff 	movw	r3, #65535	; 0xffff
80100970:	f022 0238 	bic.w	r2, r2, #56	; 0x38
80100974:	0412      	lsls	r2, r2, #16
80100976:	0c12      	lsrs	r2, r2, #16
80100978:	8122      	strh	r2, [r4, #8]
8010097a:	e001      	b.n	80100980 <i2c_transfer+0x48>
8010097c:	3b01      	subs	r3, #1
8010097e:	d004      	beq.n	8010098a <i2c_transfer+0x52>
80100980:	89a2      	ldrh	r2, [r4, #12]
80100982:	0695      	lsls	r5, r2, #26
80100984:	d4fa      	bmi.n	8010097c <i2c_transfer+0x44>
80100986:	bd70      	pop	{r4, r5, r6, pc}
80100988:	4628      	mov	r0, r5
8010098a:	bd70      	pop	{r4, r5, r6, pc}
8010098c:	f105 5100 	add.w	r1, r5, #536870912	; 0x20000000
80100990:	3901      	subs	r1, #1
80100992:	00c9      	lsls	r1, r1, #3
80100994:	b315      	cbz	r5, 801009dc <i2c_transfer+0xa4>
80100996:	89a3      	ldrh	r3, [r4, #12]
80100998:	6932      	ldr	r2, [r6, #16]
8010099a:	f023 0302 	bic.w	r3, r3, #2
8010099e:	041b      	lsls	r3, r3, #16
801009a0:	40ca      	lsrs	r2, r1
801009a2:	0c1b      	lsrs	r3, r3, #16
801009a4:	b2d2      	uxtb	r2, r2
801009a6:	81a3      	strh	r3, [r4, #12]
801009a8:	8222      	strh	r2, [r4, #16]
801009aa:	89a3      	ldrh	r3, [r4, #12]
801009ac:	0798      	lsls	r0, r3, #30
801009ae:	d5fc      	bpl.n	801009aa <i2c_transfer+0x72>
801009b0:	4620      	mov	r0, r4
801009b2:	3d01      	subs	r5, #1
801009b4:	3908      	subs	r1, #8
801009b6:	f7ff feed 	bl	80100794 <error_check>
801009ba:	2800      	cmp	r0, #0
801009bc:	d0ea      	beq.n	80100994 <i2c_transfer+0x5c>
801009be:	8922      	ldrh	r2, [r4, #8]
801009c0:	f64f 73ff 	movw	r3, #65535	; 0xffff
801009c4:	f022 0238 	bic.w	r2, r2, #56	; 0x38
801009c8:	0412      	lsls	r2, r2, #16
801009ca:	0c12      	lsrs	r2, r2, #16
801009cc:	8122      	strh	r2, [r4, #8]
801009ce:	e001      	b.n	801009d4 <i2c_transfer+0x9c>
801009d0:	3b01      	subs	r3, #1
801009d2:	d0da      	beq.n	8010098a <i2c_transfer+0x52>
801009d4:	89a2      	ldrh	r2, [r4, #12]
801009d6:	0692      	lsls	r2, r2, #26
801009d8:	d4fa      	bmi.n	801009d0 <i2c_transfer+0x98>
801009da:	bd70      	pop	{r4, r5, r6, pc}
801009dc:	6873      	ldr	r3, [r6, #4]
801009de:	b943      	cbnz	r3, 801009f2 <i2c_transfer+0xba>
801009e0:	68f0      	ldr	r0, [r6, #12]
801009e2:	2800      	cmp	r0, #0
801009e4:	d0d1      	beq.n	8010098a <i2c_transfer+0x52>
801009e6:	4631      	mov	r1, r6
801009e8:	4620      	mov	r0, r4
801009ea:	e8bd 4070 	ldmia.w	sp!, {r4, r5, r6, lr}
801009ee:	f7ff beef 	b.w	801007d0 <i2c_write>
801009f2:	2b01      	cmp	r3, #1
801009f4:	d1c8      	bne.n	80100988 <i2c_transfer+0x50>
801009f6:	68f0      	ldr	r0, [r6, #12]
801009f8:	2800      	cmp	r0, #0
801009fa:	d0c6      	beq.n	8010098a <i2c_transfer+0x52>
801009fc:	4631      	mov	r1, r6
801009fe:	4620      	mov	r0, r4
80100a00:	e8bd 4070 	ldmia.w	sp!, {r4, r5, r6, lr}
80100a04:	f7ff bf1a 	b.w	8010083c <i2c_read>

80100a08 <i2c_write_oneByte>:
80100a08:	b570      	push	{r4, r5, r6, lr}
80100a0a:	b088      	sub	sp, #32
80100a0c:	9102      	str	r1, [sp, #8]
80100a0e:	ac08      	add	r4, sp, #32
80100a10:	2501      	movs	r5, #1
80100a12:	2600      	movs	r6, #0
80100a14:	a902      	add	r1, sp, #8
80100a16:	f804 3d19 	strb.w	r3, [r4, #-25]!
80100a1a:	9206      	str	r2, [sp, #24]
80100a1c:	9603      	str	r6, [sp, #12]
80100a1e:	9404      	str	r4, [sp, #16]
80100a20:	9505      	str	r5, [sp, #20]
80100a22:	9507      	str	r5, [sp, #28]
80100a24:	f7ff ff88 	bl	80100938 <i2c_transfer>
80100a28:	b008      	add	sp, #32
80100a2a:	bd70      	pop	{r4, r5, r6, pc}

80100a2c <i2c_read_oneByte>:
80100a2c:	b510      	push	{r4, lr}
80100a2e:	b086      	sub	sp, #24
80100a30:	2401      	movs	r4, #1
80100a32:	9100      	str	r1, [sp, #0]
80100a34:	4669      	mov	r1, sp
80100a36:	9302      	str	r3, [sp, #8]
80100a38:	9204      	str	r2, [sp, #16]
80100a3a:	9401      	str	r4, [sp, #4]
80100a3c:	9403      	str	r4, [sp, #12]
80100a3e:	9405      	str	r4, [sp, #20]
80100a40:	f7ff ff7a 	bl	80100938 <i2c_transfer>
80100a44:	b006      	add	sp, #24
80100a46:	bd10      	pop	{r4, pc}

80100a48 <out_num>:
80100a48:	e92d 4ff0 	stmdb	sp!, {r4, r5, r6, r7, r8, r9, sl, fp, lr}
80100a4c:	4683      	mov	fp, r0
80100a4e:	ea8b 74eb 	eor.w	r4, fp, fp, asr #31
80100a52:	2000      	movs	r0, #0
80100a54:	f241 6800 	movw	r8, #5632	; 0x1600
80100a58:	eba4 74eb 	sub.w	r4, r4, fp, asr #31
80100a5c:	b091      	sub	sp, #68	; 0x44
80100a5e:	460f      	mov	r7, r1
80100a60:	4691      	mov	r9, r2
80100a62:	469a      	mov	sl, r3
80100a64:	4606      	mov	r6, r0
80100a66:	f2c8 0810 	movt	r8, #32784	; 0x8010
80100a6a:	ad10      	add	r5, sp, #64	; 0x40
80100a6c:	f805 0d01 	strb.w	r0, [r5, #-1]!
80100a70:	4620      	mov	r0, r4
80100a72:	4639      	mov	r1, r7
80100a74:	f000 fc4e 	bl	80101314 <__aeabi_uidivmod>
80100a78:	f818 3001 	ldrb.w	r3, [r8, r1]
80100a7c:	4620      	mov	r0, r4
80100a7e:	4639      	mov	r1, r7
80100a80:	3601      	adds	r6, #1
80100a82:	f805 3d01 	strb.w	r3, [r5, #-1]!
80100a86:	f000 fb17 	bl	801010b8 <__aeabi_uidiv>
80100a8a:	4604      	mov	r4, r0
80100a8c:	2800      	cmp	r0, #0
80100a8e:	d1ef      	bne.n	80100a70 <out_num+0x28>
80100a90:	f1ba 0f00 	cmp.w	sl, #0
80100a94:	bf18      	it	ne
80100a96:	4556      	cmpne	r6, sl
80100a98:	da09      	bge.n	80100aae <out_num+0x66>
80100a9a:	ebba 0606 	subs.w	r6, sl, r6
80100a9e:	d006      	beq.n	80100aae <out_num+0x66>
80100aa0:	1baa      	subs	r2, r5, r6
80100aa2:	462b      	mov	r3, r5
80100aa4:	f803 9d01 	strb.w	r9, [r3, #-1]!
80100aa8:	4293      	cmp	r3, r2
80100aaa:	d1fb      	bne.n	80100aa4 <out_num+0x5c>
80100aac:	1bad      	subs	r5, r5, r6
80100aae:	f1bb 0f00 	cmp.w	fp, #0
80100ab2:	bfbb      	ittet	lt
80100ab4:	232d      	movlt	r3, #45	; 0x2d
80100ab6:	f105 34ff 	addlt.w	r4, r5, #4294967295	; 0xffffffff
80100aba:	462c      	movge	r4, r5
80100abc:	f805 3c01 	strblt.w	r3, [r5, #-1]
80100ac0:	7820      	ldrb	r0, [r4, #0]
80100ac2:	b128      	cbz	r0, 80100ad0 <out_num+0x88>
80100ac4:	f7ff fcce 	bl	80100464 <PutChar>
80100ac8:	f814 0f01 	ldrb.w	r0, [r4, #1]!
80100acc:	2800      	cmp	r0, #0
80100ace:	d1f9      	bne.n	80100ac4 <out_num+0x7c>
80100ad0:	2000      	movs	r0, #0
80100ad2:	b011      	add	sp, #68	; 0x44
80100ad4:	e8bd 8ff0 	ldmia.w	sp!, {r4, r5, r6, r7, r8, r9, sl, fp, pc}

80100ad8 <my_vprintf>:
80100ad8:	b570      	push	{r4, r5, r6, lr}
80100ada:	4604      	mov	r4, r0
80100adc:	7800      	ldrb	r0, [r0, #0]
80100ade:	2800      	cmp	r0, #0
80100ae0:	d037      	beq.n	80100b52 <my_vprintf+0x7a>
80100ae2:	460e      	mov	r6, r1
80100ae4:	2825      	cmp	r0, #37	; 0x25
80100ae6:	d154      	bne.n	80100b92 <my_vprintf+0xba>
80100ae8:	7860      	ldrb	r0, [r4, #1]
80100aea:	2830      	cmp	r0, #48	; 0x30
80100aec:	bf0d      	iteet	eq
80100aee:	78a0      	ldrbeq	r0, [r4, #2]
80100af0:	3401      	addne	r4, #1
80100af2:	2220      	movne	r2, #32
80100af4:	3402      	addeq	r4, #2
80100af6:	bf08      	it	eq
80100af8:	2230      	moveq	r2, #48	; 0x30
80100afa:	f1a0 0130 	sub.w	r1, r0, #48	; 0x30
80100afe:	b2cb      	uxtb	r3, r1
80100b00:	2b09      	cmp	r3, #9
80100b02:	f04f 0300 	mov.w	r3, #0
80100b06:	d80a      	bhi.n	80100b1e <my_vprintf+0x46>
80100b08:	f814 0f01 	ldrb.w	r0, [r4, #1]!
80100b0c:	eb03 0383 	add.w	r3, r3, r3, lsl #2
80100b10:	eb01 0343 	add.w	r3, r1, r3, lsl #1
80100b14:	f1a0 0130 	sub.w	r1, r0, #48	; 0x30
80100b18:	b2cd      	uxtb	r5, r1
80100b1a:	2d09      	cmp	r5, #9
80100b1c:	d9f4      	bls.n	80100b08 <my_vprintf+0x30>
80100b1e:	f1a0 0163 	sub.w	r1, r0, #99	; 0x63
80100b22:	2915      	cmp	r1, #21
80100b24:	d835      	bhi.n	80100b92 <my_vprintf+0xba>
80100b26:	e8df f001 	tbb	[pc, r1]
80100b2a:	34340b2e 	ldrtcc	r0, [r4], #-2862	; 0xfffff4d2
80100b2e:	34343434 	ldrtcc	r3, [r4], #-1076	; 0xfffffbcc
80100b32:	34343434 	ldrtcc	r3, [r4], #-1076	; 0xfffffbcc
80100b36:	34343422 	ldrtcc	r3, [r4], #-1058	; 0xfffffbde
80100b3a:	340b3416 	strcc	r3, [fp], #-1046	; 0xfffffbea
80100b3e:	68302834 	ldmdavs	r0!, {r2, r4, r5, fp, sp}
80100b42:	210a      	movs	r1, #10
80100b44:	3604      	adds	r6, #4
80100b46:	f7ff ff7f 	bl	80100a48 <out_num>
80100b4a:	7860      	ldrb	r0, [r4, #1]
80100b4c:	3401      	adds	r4, #1
80100b4e:	2800      	cmp	r0, #0
80100b50:	d1c8      	bne.n	80100ae4 <my_vprintf+0xc>
80100b52:	2000      	movs	r0, #0
80100b54:	bd70      	pop	{r4, r5, r6, pc}
80100b56:	6835      	ldr	r5, [r6, #0]
80100b58:	3604      	adds	r6, #4
80100b5a:	7828      	ldrb	r0, [r5, #0]
80100b5c:	2800      	cmp	r0, #0
80100b5e:	d0f4      	beq.n	80100b4a <my_vprintf+0x72>
80100b60:	f7ff fc80 	bl	80100464 <PutChar>
80100b64:	f815 0f01 	ldrb.w	r0, [r5, #1]!
80100b68:	2800      	cmp	r0, #0
80100b6a:	d1f9      	bne.n	80100b60 <my_vprintf+0x88>
80100b6c:	e7ed      	b.n	80100b4a <my_vprintf+0x72>
80100b6e:	6830      	ldr	r0, [r6, #0]
80100b70:	2108      	movs	r1, #8
80100b72:	3604      	adds	r6, #4
80100b74:	f7ff ff68 	bl	80100a48 <out_num>
80100b78:	e7e7      	b.n	80100b4a <my_vprintf+0x72>
80100b7a:	6830      	ldr	r0, [r6, #0]
80100b7c:	2110      	movs	r1, #16
80100b7e:	3604      	adds	r6, #4
80100b80:	f7ff ff62 	bl	80100a48 <out_num>
80100b84:	e7e1      	b.n	80100b4a <my_vprintf+0x72>
80100b86:	6830      	ldr	r0, [r6, #0]
80100b88:	1d35      	adds	r5, r6, #4
80100b8a:	f7ff fc6b 	bl	80100464 <PutChar>
80100b8e:	462e      	mov	r6, r5
80100b90:	e7db      	b.n	80100b4a <my_vprintf+0x72>
80100b92:	f7ff fc67 	bl	80100464 <PutChar>
80100b96:	e7d8      	b.n	80100b4a <my_vprintf+0x72>

80100b98 <printf>:
80100b98:	b40f      	push	{r0, r1, r2, r3}
80100b9a:	b508      	push	{r3, lr}
80100b9c:	a903      	add	r1, sp, #12
80100b9e:	9802      	ldr	r0, [sp, #8]
80100ba0:	f7ff ff9a 	bl	80100ad8 <my_vprintf>
80100ba4:	e8bd 4008 	ldmia.w	sp!, {r3, lr}
80100ba8:	2000      	movs	r0, #0
80100baa:	b004      	add	sp, #16
80100bac:	4770      	bx	lr
80100bae:	bf00      	nop

80100bb0 <my_printf_test>:
80100bb0:	e92d 41f0 	stmdb	sp!, {r4, r5, r6, r7, r8, lr}
80100bb4:	f241 4378 	movw	r3, #5240	; 0x1478
80100bb8:	b08e      	sub	sp, #56	; 0x38
80100bba:	f2c8 0310 	movt	r3, #32784	; 0x8010
80100bbe:	ad0e      	add	r5, sp, #56	; 0x38
80100bc0:	4618      	mov	r0, r3
80100bc2:	4629      	mov	r1, r5
80100bc4:	f845 3d04 	str.w	r3, [r5, #-4]!
80100bc8:	f7ff ff86 	bl	80100ad8 <my_vprintf>
80100bcc:	f241 43a4 	movw	r3, #5284	; 0x14a4
80100bd0:	f241 44c4 	movw	r4, #5316	; 0x14c4
80100bd4:	f2c8 0310 	movt	r3, #32784	; 0x8010
80100bd8:	f2c8 0410 	movt	r4, #32784	; 0x8010
80100bdc:	4618      	mov	r0, r3
80100bde:	4629      	mov	r1, r5
80100be0:	ad0e      	add	r5, sp, #56	; 0x38
80100be2:	ae0e      	add	r6, sp, #56	; 0x38
80100be4:	f845 3d08 	str.w	r3, [r5, #-8]!
80100be8:	46b0      	mov	r8, r6
80100bea:	f7ff ff75 	bl	80100ad8 <my_vprintf>
80100bee:	4629      	mov	r1, r5
80100bf0:	4620      	mov	r0, r4
80100bf2:	f846 4d0c 	str.w	r4, [r6, #-12]!
80100bf6:	ad0e      	add	r5, sp, #56	; 0x38
80100bf8:	f7ff ff6e 	bl	80100ad8 <my_vprintf>
80100bfc:	4631      	mov	r1, r6
80100bfe:	4620      	mov	r0, r4
80100c00:	f845 4d10 	str.w	r4, [r5, #-16]!
80100c04:	af0e      	add	r7, sp, #56	; 0x38
80100c06:	f7ff ff67 	bl	80100ad8 <my_vprintf>
80100c0a:	f241 43e0 	movw	r3, #5344	; 0x14e0
80100c0e:	4629      	mov	r1, r5
80100c10:	f2c8 0310 	movt	r3, #32784	; 0x8010
80100c14:	ae0e      	add	r6, sp, #56	; 0x38
80100c16:	4618      	mov	r0, r3
80100c18:	f848 3d14 	str.w	r3, [r8, #-20]!
80100c1c:	f7ff ff5c 	bl	80100ad8 <my_vprintf>
80100c20:	f241 43fc 	movw	r3, #5372	; 0x14fc
80100c24:	4641      	mov	r1, r8
80100c26:	f2c8 0310 	movt	r3, #32784	; 0x8010
80100c2a:	ad0e      	add	r5, sp, #56	; 0x38
80100c2c:	4618      	mov	r0, r3
80100c2e:	f847 3d18 	str.w	r3, [r7, #-24]!
80100c32:	f7ff ff51 	bl	80100ad8 <my_vprintf>
80100c36:	f241 5318 	movw	r3, #5400	; 0x1518
80100c3a:	4639      	mov	r1, r7
80100c3c:	f2c8 0310 	movt	r3, #32784	; 0x8010
80100c40:	ac0e      	add	r4, sp, #56	; 0x38
80100c42:	4618      	mov	r0, r3
80100c44:	f846 3d1c 	str.w	r3, [r6, #-28]!
80100c48:	f7ff ff46 	bl	80100ad8 <my_vprintf>
80100c4c:	f241 5324 	movw	r3, #5412	; 0x1524
80100c50:	4631      	mov	r1, r6
80100c52:	f2c8 0310 	movt	r3, #32784	; 0x8010
80100c56:	af0e      	add	r7, sp, #56	; 0x38
80100c58:	4618      	mov	r0, r3
80100c5a:	f845 3d20 	str.w	r3, [r5, #-32]!
80100c5e:	f7ff ff3b 	bl	80100ad8 <my_vprintf>
80100c62:	f241 5330 	movw	r3, #5424	; 0x1530
80100c66:	4629      	mov	r1, r5
80100c68:	f2c8 0310 	movt	r3, #32784	; 0x8010
80100c6c:	ae0e      	add	r6, sp, #56	; 0x38
80100c6e:	4618      	mov	r0, r3
80100c70:	f844 3d24 	str.w	r3, [r4, #-36]!
80100c74:	f7ff ff30 	bl	80100ad8 <my_vprintf>
80100c78:	f241 5340 	movw	r3, #5440	; 0x1540
80100c7c:	4621      	mov	r1, r4
80100c7e:	f2c8 0310 	movt	r3, #32784	; 0x8010
80100c82:	ad0e      	add	r5, sp, #56	; 0x38
80100c84:	4618      	mov	r0, r3
80100c86:	f847 3d28 	str.w	r3, [r7, #-40]!
80100c8a:	f7ff ff25 	bl	80100ad8 <my_vprintf>
80100c8e:	f241 534c 	movw	r3, #5452	; 0x154c
80100c92:	4639      	mov	r1, r7
80100c94:	f2c8 0310 	movt	r3, #32784	; 0x8010
80100c98:	ac0e      	add	r4, sp, #56	; 0x38
80100c9a:	4618      	mov	r0, r3
80100c9c:	f846 3d2c 	str.w	r3, [r6, #-44]!
80100ca0:	f7ff ff1a 	bl	80100ad8 <my_vprintf>
80100ca4:	f241 535c 	movw	r3, #5468	; 0x155c
80100ca8:	4631      	mov	r1, r6
80100caa:	f2c8 0310 	movt	r3, #32784	; 0x8010
80100cae:	4618      	mov	r0, r3
80100cb0:	f845 3d30 	str.w	r3, [r5, #-48]!
80100cb4:	f7ff ff10 	bl	80100ad8 <my_vprintf>
80100cb8:	f241 5368 	movw	r3, #5480	; 0x1568
80100cbc:	4629      	mov	r1, r5
80100cbe:	f2c8 0310 	movt	r3, #32784	; 0x8010
80100cc2:	4618      	mov	r0, r3
80100cc4:	f844 3d34 	str.w	r3, [r4, #-52]!
80100cc8:	f7ff ff06 	bl	80100ad8 <my_vprintf>
80100ccc:	f241 5374 	movw	r3, #5492	; 0x1574
80100cd0:	4621      	mov	r1, r4
80100cd2:	f2c8 0310 	movt	r3, #32784	; 0x8010
80100cd6:	4618      	mov	r0, r3
80100cd8:	9300      	str	r3, [sp, #0]
80100cda:	f7ff fefd 	bl	80100ad8 <my_vprintf>
80100cde:	2000      	movs	r0, #0
80100ce0:	b00e      	add	sp, #56	; 0x38
80100ce2:	e8bd 81f0 	ldmia.w	sp!, {r4, r5, r6, r7, r8, pc}
80100ce6:	bf00      	nop

80100ce8 <simple_strtoul>:
80100ce8:	b5f0      	push	{r4, r5, r6, r7, lr}
80100cea:	7803      	ldrb	r3, [r0, #0]
80100cec:	2b30      	cmp	r3, #48	; 0x30
80100cee:	d02c      	beq.n	80100d4a <simple_strtoul+0x62>
80100cf0:	f241 6e10 	movw	lr, #5648	; 0x1610
80100cf4:	461e      	mov	r6, r3
80100cf6:	f2c8 0e10 	movt	lr, #32784	; 0x8010
80100cfa:	2a00      	cmp	r2, #0
80100cfc:	d147      	bne.n	80100d8e <simple_strtoul+0xa6>
80100cfe:	f81e 5003 	ldrb.w	r5, [lr, r3]
80100d02:	220a      	movs	r2, #10
80100d04:	f005 0744 	and.w	r7, r5, #68	; 0x44
80100d08:	b1df      	cbz	r7, 80100d42 <simple_strtoul+0x5a>
80100d0a:	2700      	movs	r7, #0
80100d0c:	e009      	b.n	80100d22 <simple_strtoul+0x3a>
80100d0e:	f810 3f01 	ldrb.w	r3, [r0, #1]!
80100d12:	fb02 4707 	mla	r7, r2, r7, r4
80100d16:	f81e 5003 	ldrb.w	r5, [lr, r3]
80100d1a:	461e      	mov	r6, r3
80100d1c:	f015 0f44 	tst.w	r5, #68	; 0x44
80100d20:	d00f      	beq.n	80100d42 <simple_strtoul+0x5a>
80100d22:	f015 0f04 	tst.w	r5, #4
80100d26:	f1a6 0430 	sub.w	r4, r6, #48	; 0x30
80100d2a:	d108      	bne.n	80100d3e <simple_strtoul+0x56>
80100d2c:	3b20      	subs	r3, #32
80100d2e:	f015 0f02 	tst.w	r5, #2
80100d32:	b2db      	uxtb	r3, r3
80100d34:	f1a6 0437 	sub.w	r4, r6, #55	; 0x37
80100d38:	bf18      	it	ne
80100d3a:	f1a3 0437 	subne.w	r4, r3, #55	; 0x37
80100d3e:	4294      	cmp	r4, r2
80100d40:	d3e5      	bcc.n	80100d0e <simple_strtoul+0x26>
80100d42:	b101      	cbz	r1, 80100d46 <simple_strtoul+0x5e>
80100d44:	6008      	str	r0, [r1, #0]
80100d46:	4638      	mov	r0, r7
80100d48:	bdf0      	pop	{r4, r5, r6, r7, pc}
80100d4a:	7843      	ldrb	r3, [r0, #1]
80100d4c:	1c47      	adds	r7, r0, #1
80100d4e:	f003 04df 	and.w	r4, r3, #223	; 0xdf
80100d52:	2c58      	cmp	r4, #88	; 0x58
80100d54:	bf1c      	itt	ne
80100d56:	f241 6e10 	movwne	lr, #5648	; 0x1610
80100d5a:	f2c8 0e10 	movtne	lr, #32784	; 0x8010
80100d5e:	d10d      	bne.n	80100d7c <simple_strtoul+0x94>
80100d60:	7886      	ldrb	r6, [r0, #2]
80100d62:	f241 6e10 	movw	lr, #5648	; 0x1610
80100d66:	f2c8 0e10 	movt	lr, #32784	; 0x8010
80100d6a:	f81e 5006 	ldrb.w	r5, [lr, r6]
80100d6e:	f015 0f44 	tst.w	r5, #68	; 0x44
80100d72:	d003      	beq.n	80100d7c <simple_strtoul+0x94>
80100d74:	3002      	adds	r0, #2
80100d76:	4633      	mov	r3, r6
80100d78:	2210      	movs	r2, #16
80100d7a:	e7c6      	b.n	80100d0a <simple_strtoul+0x22>
80100d7c:	f81e 5003 	ldrb.w	r5, [lr, r3]
80100d80:	4638      	mov	r0, r7
80100d82:	461e      	mov	r6, r3
80100d84:	b92a      	cbnz	r2, 80100d92 <simple_strtoul+0xaa>
80100d86:	2208      	movs	r2, #8
80100d88:	f005 0744 	and.w	r7, r5, #68	; 0x44
80100d8c:	e7bc      	b.n	80100d08 <simple_strtoul+0x20>
80100d8e:	f81e 5003 	ldrb.w	r5, [lr, r3]
80100d92:	f005 0744 	and.w	r7, r5, #68	; 0x44
80100d96:	e7b7      	b.n	80100d08 <simple_strtoul+0x20>

80100d98 <simple_strtol>:
80100d98:	b510      	push	{r4, lr}
80100d9a:	7804      	ldrb	r4, [r0, #0]
80100d9c:	2c2d      	cmp	r4, #45	; 0x2d
80100d9e:	d003      	beq.n	80100da8 <simple_strtol+0x10>
80100da0:	e8bd 4010 	ldmia.w	sp!, {r4, lr}
80100da4:	f7ff bfa0 	b.w	80100ce8 <simple_strtoul>
80100da8:	3001      	adds	r0, #1
80100daa:	f7ff ff9d 	bl	80100ce8 <simple_strtoul>
80100dae:	4240      	negs	r0, r0
80100db0:	bd10      	pop	{r4, pc}
80100db2:	bf00      	nop

80100db4 <gets>:
80100db4:	b5f8      	push	{r3, r4, r5, r6, r7, lr}
80100db6:	4607      	mov	r7, r0
80100db8:	2500      	movs	r5, #0
80100dba:	1e46      	subs	r6, r0, #1
80100dbc:	e004      	b.n	80100dc8 <gets+0x14>
80100dbe:	2c0d      	cmp	r4, #13
80100dc0:	d010      	beq.n	80100de4 <gets+0x30>
80100dc2:	3501      	adds	r5, #1
80100dc4:	f806 4f01 	strb.w	r4, [r6, #1]!
80100dc8:	f7ff fb56 	bl	80100478 <GetChar>
80100dcc:	4604      	mov	r4, r0
80100dce:	f7ff fb49 	bl	80100464 <PutChar>
80100dd2:	2c0a      	cmp	r4, #10
80100dd4:	d1f3      	bne.n	80100dbe <gets+0xa>
80100dd6:	200d      	movs	r0, #13
80100dd8:	f7ff fb44 	bl	80100464 <PutChar>
80100ddc:	2300      	movs	r3, #0
80100dde:	4638      	mov	r0, r7
80100de0:	557b      	strb	r3, [r7, r5]
80100de2:	bdf8      	pop	{r3, r4, r5, r6, r7, pc}
80100de4:	200a      	movs	r0, #10
80100de6:	f7ff fb3d 	bl	80100464 <PutChar>
80100dea:	2300      	movs	r3, #0
80100dec:	4638      	mov	r0, r7
80100dee:	557b      	strb	r3, [r7, r5]
80100df0:	bdf8      	pop	{r3, r4, r5, r6, r7, pc}
80100df2:	bf00      	nop

80100df4 <get_int>:
80100df4:	b500      	push	{lr}
80100df6:	b09b      	sub	sp, #108	; 0x6c
80100df8:	a801      	add	r0, sp, #4
80100dfa:	f7ff ffdb 	bl	80100db4 <gets>
80100dfe:	2200      	movs	r2, #0
80100e00:	a801      	add	r0, sp, #4
80100e02:	4611      	mov	r1, r2
80100e04:	f7ff ffc8 	bl	80100d98 <simple_strtol>
80100e08:	b01b      	add	sp, #108	; 0x6c
80100e0a:	f85d fb04 	ldr.w	pc, [sp], #4
80100e0e:	bf00      	nop

80100e10 <get_uint>:
80100e10:	b500      	push	{lr}
80100e12:	b09b      	sub	sp, #108	; 0x6c
80100e14:	a801      	add	r0, sp, #4
80100e16:	f7ff ffcd 	bl	80100db4 <gets>
80100e1a:	2200      	movs	r2, #0
80100e1c:	a801      	add	r0, sp, #4
80100e1e:	4611      	mov	r1, r2
80100e20:	f7ff ff62 	bl	80100ce8 <simple_strtoul>
80100e24:	b01b      	add	sp, #108	; 0x6c
80100e26:	f85d fb04 	ldr.w	pc, [sp], #4
80100e2a:	bf00      	nop

80100e2c <raise>:
80100e2c:	2000      	movs	r0, #0
80100e2e:	4770      	bx	lr

80100e30 <init_ap3216c>:
80100e30:	b510      	push	{r4, lr}
80100e32:	2400      	movs	r4, #0
80100e34:	f2c0 241a 	movt	r4, #538	; 0x21a
80100e38:	2303      	movs	r3, #3
80100e3a:	2200      	movs	r2, #0
80100e3c:	4620      	mov	r0, r4
80100e3e:	211e      	movs	r1, #30
80100e40:	f7ff fde2 	bl	80100a08 <i2c_write_oneByte>
80100e44:	4620      	mov	r0, r4
80100e46:	2321      	movs	r3, #33	; 0x21
80100e48:	2210      	movs	r2, #16
80100e4a:	211e      	movs	r1, #30
80100e4c:	f7ff fddc 	bl	80100a08 <i2c_write_oneByte>
80100e50:	4620      	mov	r0, r4
80100e52:	2396      	movs	r3, #150	; 0x96
80100e54:	221a      	movs	r2, #26
80100e56:	211e      	movs	r1, #30
80100e58:	f7ff fdd6 	bl	80100a08 <i2c_write_oneByte>
80100e5c:	4620      	mov	r0, r4
80100e5e:	2300      	movs	r3, #0
80100e60:	221b      	movs	r2, #27
80100e62:	211e      	movs	r1, #30
80100e64:	f7ff fdd0 	bl	80100a08 <i2c_write_oneByte>
80100e68:	4620      	mov	r0, r4
80100e6a:	2301      	movs	r3, #1
80100e6c:	2202      	movs	r2, #2
80100e6e:	211e      	movs	r1, #30
80100e70:	e8bd 4010 	ldmia.w	sp!, {r4, lr}
80100e74:	f7ff bdc8 	b.w	80100a08 <i2c_write_oneByte>

80100e78 <read_ap3216c_regs>:
80100e78:	b510      	push	{r4, lr}
80100e7a:	b398      	cbz	r0, 80100ee4 <read_ap3216c_regs+0x6c>
80100e7c:	4604      	mov	r4, r0
80100e7e:	2000      	movs	r0, #0
80100e80:	1ce3      	adds	r3, r4, #3
80100e82:	220a      	movs	r2, #10
80100e84:	211e      	movs	r1, #30
80100e86:	f2c0 201a 	movt	r0, #538	; 0x21a
80100e8a:	f7ff fdcf 	bl	80100a2c <i2c_read_oneByte>
80100e8e:	2000      	movs	r0, #0
80100e90:	1d23      	adds	r3, r4, #4
80100e92:	220b      	movs	r2, #11
80100e94:	211e      	movs	r1, #30
80100e96:	f2c0 201a 	movt	r0, #538	; 0x21a
80100e9a:	f7ff fdc7 	bl	80100a2c <i2c_read_oneByte>
80100e9e:	2000      	movs	r0, #0
80100ea0:	1d63      	adds	r3, r4, #5
80100ea2:	220c      	movs	r2, #12
80100ea4:	211e      	movs	r1, #30
80100ea6:	f2c0 201a 	movt	r0, #538	; 0x21a
80100eaa:	f7ff fdbf 	bl	80100a2c <i2c_read_oneByte>
80100eae:	2000      	movs	r0, #0
80100eb0:	1da3      	adds	r3, r4, #6
80100eb2:	220d      	movs	r2, #13
80100eb4:	211e      	movs	r1, #30
80100eb6:	f2c0 201a 	movt	r0, #538	; 0x21a
80100eba:	f7ff fdb7 	bl	80100a2c <i2c_read_oneByte>
80100ebe:	2000      	movs	r0, #0
80100ec0:	1de3      	adds	r3, r4, #7
80100ec2:	220e      	movs	r2, #14
80100ec4:	211e      	movs	r1, #30
80100ec6:	f2c0 201a 	movt	r0, #538	; 0x21a
80100eca:	f7ff fdaf 	bl	80100a2c <i2c_read_oneByte>
80100ece:	2000      	movs	r0, #0
80100ed0:	f104 0308 	add.w	r3, r4, #8
80100ed4:	220f      	movs	r2, #15
80100ed6:	211e      	movs	r1, #30
80100ed8:	f2c0 201a 	movt	r0, #538	; 0x21a
80100edc:	f7ff fda6 	bl	80100a2c <i2c_read_oneByte>
80100ee0:	2000      	movs	r0, #0
80100ee2:	bd10      	pop	{r4, pc}
80100ee4:	f241 5080 	movw	r0, #5504	; 0x1580
80100ee8:	f2c8 0010 	movt	r0, #32784	; 0x8010
80100eec:	f7ff fe54 	bl	80100b98 <printf>
80100ef0:	f04f 30ff 	mov.w	r0, #4294967295	; 0xffffffff
80100ef4:	bd10      	pop	{r4, pc}
80100ef6:	bf00      	nop

80100ef8 <ap3216c_read>:
80100ef8:	b5f0      	push	{r4, r5, r6, r7, lr}
80100efa:	b085      	sub	sp, #20
80100efc:	4604      	mov	r4, r0
80100efe:	a801      	add	r0, sp, #4
80100f00:	f7ff ffba 	bl	80100e78 <read_ap3216c_regs>
80100f04:	f241 5094 	movw	r0, #5524	; 0x1594
80100f08:	f2c8 0010 	movt	r0, #32784	; 0x8010
80100f0c:	f7ff fe44 	bl	80100b98 <printf>
80100f10:	b314      	cbz	r4, 80100f58 <ap3216c_read+0x60>
80100f12:	f89d 2007 	ldrb.w	r2, [sp, #7]
80100f16:	0613      	lsls	r3, r2, #24
80100f18:	d41e      	bmi.n	80100f58 <ap3216c_read+0x60>
80100f1a:	f89d 300c 	ldrb.w	r3, [sp, #12]
80100f1e:	f002 0203 	and.w	r2, r2, #3
80100f22:	f89d e008 	ldrb.w	lr, [sp, #8]
80100f26:	2000      	movs	r0, #0
80100f28:	f89d 600a 	ldrb.w	r6, [sp, #10]
80100f2c:	f89d 1009 	ldrb.w	r1, [sp, #9]
80100f30:	f003 0780 	and.w	r7, r3, #128	; 0x80
80100f34:	f89d 500b 	ldrb.w	r5, [sp, #11]
80100f38:	011b      	lsls	r3, r3, #4
80100f3a:	ea42 028e 	orr.w	r2, r2, lr, lsl #2
80100f3e:	60e7      	str	r7, [r4, #12]
80100f40:	f403 737c 	and.w	r3, r3, #1008	; 0x3f0
80100f44:	f005 050f 	and.w	r5, r5, #15
80100f48:	ea41 2106 	orr.w	r1, r1, r6, lsl #8
80100f4c:	432b      	orrs	r3, r5
80100f4e:	6022      	str	r2, [r4, #0]
80100f50:	60a3      	str	r3, [r4, #8]
80100f52:	6061      	str	r1, [r4, #4]
80100f54:	b005      	add	sp, #20
80100f56:	bdf0      	pop	{r4, r5, r6, r7, pc}
80100f58:	f241 50a8 	movw	r0, #5544	; 0x15a8
80100f5c:	f2c8 0010 	movt	r0, #32784	; 0x8010
80100f60:	f7ff fe1a 	bl	80100b98 <printf>
80100f64:	f04f 30ff 	mov.w	r0, #4294967295	; 0xffffffff
80100f68:	e7f4      	b.n	80100f54 <ap3216c_read+0x5c>
80100f6a:	bf00      	nop

80100f6c <GPIO4_16_init>:
80100f6c:	b510      	push	{r4, lr}
80100f6e:	f44f 73dc 	mov.w	r3, #440	; 0x1b8
80100f72:	f44f 4400 	mov.w	r4, #32768	; 0x8000
80100f76:	f2c0 230e 	movt	r3, #526	; 0x20e
80100f7a:	f2c0 240a 	movt	r4, #522	; 0x20a
80100f7e:	2205      	movs	r2, #5
80100f80:	601a      	str	r2, [r3, #0]
80100f82:	4620      	mov	r0, r4
80100f84:	2202      	movs	r2, #2
80100f86:	2110      	movs	r1, #16
80100f88:	f7ff f93e 	bl	80100208 <gpio_set_pin_mode>
80100f8c:	4620      	mov	r0, r4
80100f8e:	2203      	movs	r2, #3
80100f90:	2110      	movs	r1, #16
80100f92:	e8bd 4010 	ldmia.w	sp!, {r4, lr}
80100f96:	f7ff b961 	b.w	8010025c <gpio_set_intMode>
80100f9a:	bf00      	nop

80100f9c <ap3216c_irqHandler>:
80100f9c:	f44f 4300 	mov.w	r3, #32768	; 0x8000
80100fa0:	f2c0 230a 	movt	r3, #522	; 0x20a
80100fa4:	699b      	ldr	r3, [r3, #24]
80100fa6:	03da      	lsls	r2, r3, #15
80100fa8:	d400      	bmi.n	80100fac <ap3216c_irqHandler+0x10>
80100faa:	4770      	bx	lr
80100fac:	b500      	push	{lr}
80100fae:	2000      	movs	r0, #0
80100fb0:	b087      	sub	sp, #28
80100fb2:	2201      	movs	r2, #1
80100fb4:	f10d 0307 	add.w	r3, sp, #7
80100fb8:	211e      	movs	r1, #30
80100fba:	f2c0 201a 	movt	r0, #538	; 0x21a
80100fbe:	f7ff fd35 	bl	80100a2c <i2c_read_oneByte>
80100fc2:	a802      	add	r0, sp, #8
80100fc4:	f7ff ff98 	bl	80100ef8 <ap3216c_read>
80100fc8:	f89d 3007 	ldrb.w	r3, [sp, #7]
80100fcc:	07db      	lsls	r3, r3, #31
80100fce:	d561      	bpl.n	80101094 <ap3216c_irqHandler+0xf8>
80100fd0:	9b03      	ldr	r3, [sp, #12]
80100fd2:	2b95      	cmp	r3, #149	; 0x95
80100fd4:	d93a      	bls.n	8010104c <ap3216c_irqHandler+0xb0>
80100fd6:	2000      	movs	r0, #0
80100fd8:	f7ff f8f2 	bl	801001c0 <led_ctl>
80100fdc:	2000      	movs	r0, #0
80100fde:	2396      	movs	r3, #150	; 0x96
80100fe0:	221a      	movs	r2, #26
80100fe2:	211e      	movs	r1, #30
80100fe4:	f2c0 201a 	movt	r0, #538	; 0x21a
80100fe8:	f7ff fd0e 	bl	80100a08 <i2c_write_oneByte>
80100fec:	2000      	movs	r0, #0
80100fee:	221b      	movs	r2, #27
80100ff0:	4603      	mov	r3, r0
80100ff2:	211e      	movs	r1, #30
80100ff4:	f2c0 201a 	movt	r0, #538	; 0x21a
80100ff8:	f7ff fd06 	bl	80100a08 <i2c_write_oneByte>
80100ffc:	2000      	movs	r0, #0
80100ffe:	23ff      	movs	r3, #255	; 0xff
80101000:	221c      	movs	r2, #28
80101002:	211e      	movs	r1, #30
80101004:	f2c0 201a 	movt	r0, #538	; 0x21a
80101008:	f7ff fcfe 	bl	80100a08 <i2c_write_oneByte>
8010100c:	2000      	movs	r0, #0
8010100e:	23ff      	movs	r3, #255	; 0xff
80101010:	f2c0 201a 	movt	r0, #538	; 0x21a
80101014:	221d      	movs	r2, #29
80101016:	211e      	movs	r1, #30
80101018:	f7ff fcf6 	bl	80100a08 <i2c_write_oneByte>
8010101c:	f241 50c0 	movw	r0, #5568	; 0x15c0
80101020:	f2c8 0010 	movt	r0, #32784	; 0x8010
80101024:	f7ff fdb8 	bl	80100b98 <printf>
80101028:	2301      	movs	r3, #1
8010102a:	2000      	movs	r0, #0
8010102c:	461a      	mov	r2, r3
8010102e:	f2c0 201a 	movt	r0, #538	; 0x21a
80101032:	211e      	movs	r1, #30
80101034:	f7ff fce8 	bl	80100a08 <i2c_write_oneByte>
80101038:	f44f 4300 	mov.w	r3, #32768	; 0x8000
8010103c:	f44f 3280 	mov.w	r2, #65536	; 0x10000
80101040:	f2c0 230a 	movt	r3, #522	; 0x20a
80101044:	619a      	str	r2, [r3, #24]
80101046:	b007      	add	sp, #28
80101048:	f85d fb04 	ldr.w	pc, [sp], #4
8010104c:	2001      	movs	r0, #1
8010104e:	f7ff f8b7 	bl	801001c0 <led_ctl>
80101052:	2000      	movs	r0, #0
80101054:	2396      	movs	r3, #150	; 0x96
80101056:	221c      	movs	r2, #28
80101058:	211e      	movs	r1, #30
8010105a:	f2c0 201a 	movt	r0, #538	; 0x21a
8010105e:	f7ff fcd3 	bl	80100a08 <i2c_write_oneByte>
80101062:	2000      	movs	r0, #0
80101064:	221d      	movs	r2, #29
80101066:	4603      	mov	r3, r0
80101068:	211e      	movs	r1, #30
8010106a:	f2c0 201a 	movt	r0, #538	; 0x21a
8010106e:	f7ff fccb 	bl	80100a08 <i2c_write_oneByte>
80101072:	2000      	movs	r0, #0
80101074:	221a      	movs	r2, #26
80101076:	4603      	mov	r3, r0
80101078:	211e      	movs	r1, #30
8010107a:	f2c0 201a 	movt	r0, #538	; 0x21a
8010107e:	f7ff fcc3 	bl	80100a08 <i2c_write_oneByte>
80101082:	2000      	movs	r0, #0
80101084:	221b      	movs	r2, #27
80101086:	4603      	mov	r3, r0
80101088:	211e      	movs	r1, #30
8010108a:	f2c0 201a 	movt	r0, #538	; 0x21a
8010108e:	f7ff fcbb 	bl	80100a08 <i2c_write_oneByte>
80101092:	e7c3      	b.n	8010101c <ap3216c_irqHandler+0x80>
80101094:	f241 50e0 	movw	r0, #5600	; 0x15e0
80101098:	f2c8 0010 	movt	r0, #32784	; 0x8010
8010109c:	f7ff fd7c 	bl	80100b98 <printf>
801010a0:	2000      	movs	r0, #0
801010a2:	2302      	movs	r3, #2
801010a4:	2201      	movs	r2, #1
801010a6:	211e      	movs	r1, #30
801010a8:	f2c0 201a 	movt	r0, #538	; 0x21a
801010ac:	f7ff fcac 	bl	80100a08 <i2c_write_oneByte>
801010b0:	e7c2      	b.n	80101038 <ap3216c_irqHandler+0x9c>
801010b2:	bf00      	nop
801010b4:	0000      	movs	r0, r0
	...

801010b8 <__aeabi_uidiv>:
801010b8:	1e4a      	subs	r2, r1, #1
801010ba:	bf08      	it	eq
801010bc:	4770      	bxeq	lr
801010be:	f0c0 8124 	bcc.w	8010130a <__aeabi_uidiv+0x252>
801010c2:	4288      	cmp	r0, r1
801010c4:	f240 8116 	bls.w	801012f4 <__aeabi_uidiv+0x23c>
801010c8:	4211      	tst	r1, r2
801010ca:	f000 8117 	beq.w	801012fc <__aeabi_uidiv+0x244>
801010ce:	fab0 f380 	clz	r3, r0
801010d2:	fab1 f281 	clz	r2, r1
801010d6:	eba2 0303 	sub.w	r3, r2, r3
801010da:	f1c3 031f 	rsb	r3, r3, #31
801010de:	a204      	add	r2, pc, #16	; (adr r2, 801010f0 <__aeabi_uidiv+0x38>)
801010e0:	eb02 1303 	add.w	r3, r2, r3, lsl #4
801010e4:	f04f 0200 	mov.w	r2, #0
801010e8:	469f      	mov	pc, r3
801010ea:	bf00      	nop
801010ec:	f3af 8000 	nop.w
801010f0:	ebb0 7fc1 	cmp.w	r0, r1, lsl #31
801010f4:	bf00      	nop
801010f6:	eb42 0202 	adc.w	r2, r2, r2
801010fa:	bf28      	it	cs
801010fc:	eba0 70c1 	subcs.w	r0, r0, r1, lsl #31
80101100:	ebb0 7f81 	cmp.w	r0, r1, lsl #30
80101104:	bf00      	nop
80101106:	eb42 0202 	adc.w	r2, r2, r2
8010110a:	bf28      	it	cs
8010110c:	eba0 7081 	subcs.w	r0, r0, r1, lsl #30
80101110:	ebb0 7f41 	cmp.w	r0, r1, lsl #29
80101114:	bf00      	nop
80101116:	eb42 0202 	adc.w	r2, r2, r2
8010111a:	bf28      	it	cs
8010111c:	eba0 7041 	subcs.w	r0, r0, r1, lsl #29
80101120:	ebb0 7f01 	cmp.w	r0, r1, lsl #28
80101124:	bf00      	nop
80101126:	eb42 0202 	adc.w	r2, r2, r2
8010112a:	bf28      	it	cs
8010112c:	eba0 7001 	subcs.w	r0, r0, r1, lsl #28
80101130:	ebb0 6fc1 	cmp.w	r0, r1, lsl #27
80101134:	bf00      	nop
80101136:	eb42 0202 	adc.w	r2, r2, r2
8010113a:	bf28      	it	cs
8010113c:	eba0 60c1 	subcs.w	r0, r0, r1, lsl #27
80101140:	ebb0 6f81 	cmp.w	r0, r1, lsl #26
80101144:	bf00      	nop
80101146:	eb42 0202 	adc.w	r2, r2, r2
8010114a:	bf28      	it	cs
8010114c:	eba0 6081 	subcs.w	r0, r0, r1, lsl #26
80101150:	ebb0 6f41 	cmp.w	r0, r1, lsl #25
80101154:	bf00      	nop
80101156:	eb42 0202 	adc.w	r2, r2, r2
8010115a:	bf28      	it	cs
8010115c:	eba0 6041 	subcs.w	r0, r0, r1, lsl #25
80101160:	ebb0 6f01 	cmp.w	r0, r1, lsl #24
80101164:	bf00      	nop
80101166:	eb42 0202 	adc.w	r2, r2, r2
8010116a:	bf28      	it	cs
8010116c:	eba0 6001 	subcs.w	r0, r0, r1, lsl #24
80101170:	ebb0 5fc1 	cmp.w	r0, r1, lsl #23
80101174:	bf00      	nop
80101176:	eb42 0202 	adc.w	r2, r2, r2
8010117a:	bf28      	it	cs
8010117c:	eba0 50c1 	subcs.w	r0, r0, r1, lsl #23
80101180:	ebb0 5f81 	cmp.w	r0, r1, lsl #22
80101184:	bf00      	nop
80101186:	eb42 0202 	adc.w	r2, r2, r2
8010118a:	bf28      	it	cs
8010118c:	eba0 5081 	subcs.w	r0, r0, r1, lsl #22
80101190:	ebb0 5f41 	cmp.w	r0, r1, lsl #21
80101194:	bf00      	nop
80101196:	eb42 0202 	adc.w	r2, r2, r2
8010119a:	bf28      	it	cs
8010119c:	eba0 5041 	subcs.w	r0, r0, r1, lsl #21
801011a0:	ebb0 5f01 	cmp.w	r0, r1, lsl #20
801011a4:	bf00      	nop
801011a6:	eb42 0202 	adc.w	r2, r2, r2
801011aa:	bf28      	it	cs
801011ac:	eba0 5001 	subcs.w	r0, r0, r1, lsl #20
801011b0:	ebb0 4fc1 	cmp.w	r0, r1, lsl #19
801011b4:	bf00      	nop
801011b6:	eb42 0202 	adc.w	r2, r2, r2
801011ba:	bf28      	it	cs
801011bc:	eba0 40c1 	subcs.w	r0, r0, r1, lsl #19
801011c0:	ebb0 4f81 	cmp.w	r0, r1, lsl #18
801011c4:	bf00      	nop
801011c6:	eb42 0202 	adc.w	r2, r2, r2
801011ca:	bf28      	it	cs
801011cc:	eba0 4081 	subcs.w	r0, r0, r1, lsl #18
801011d0:	ebb0 4f41 	cmp.w	r0, r1, lsl #17
801011d4:	bf00      	nop
801011d6:	eb42 0202 	adc.w	r2, r2, r2
801011da:	bf28      	it	cs
801011dc:	eba0 4041 	subcs.w	r0, r0, r1, lsl #17
801011e0:	ebb0 4f01 	cmp.w	r0, r1, lsl #16
801011e4:	bf00      	nop
801011e6:	eb42 0202 	adc.w	r2, r2, r2
801011ea:	bf28      	it	cs
801011ec:	eba0 4001 	subcs.w	r0, r0, r1, lsl #16
801011f0:	ebb0 3fc1 	cmp.w	r0, r1, lsl #15
801011f4:	bf00      	nop
801011f6:	eb42 0202 	adc.w	r2, r2, r2
801011fa:	bf28      	it	cs
801011fc:	eba0 30c1 	subcs.w	r0, r0, r1, lsl #15
80101200:	ebb0 3f81 	cmp.w	r0, r1, lsl #14
80101204:	bf00      	nop
80101206:	eb42 0202 	adc.w	r2, r2, r2
8010120a:	bf28      	it	cs
8010120c:	eba0 3081 	subcs.w	r0, r0, r1, lsl #14
80101210:	ebb0 3f41 	cmp.w	r0, r1, lsl #13
80101214:	bf00      	nop
80101216:	eb42 0202 	adc.w	r2, r2, r2
8010121a:	bf28      	it	cs
8010121c:	eba0 3041 	subcs.w	r0, r0, r1, lsl #13
80101220:	ebb0 3f01 	cmp.w	r0, r1, lsl #12
80101224:	bf00      	nop
80101226:	eb42 0202 	adc.w	r2, r2, r2
8010122a:	bf28      	it	cs
8010122c:	eba0 3001 	subcs.w	r0, r0, r1, lsl #12
80101230:	ebb0 2fc1 	cmp.w	r0, r1, lsl #11
80101234:	bf00      	nop
80101236:	eb42 0202 	adc.w	r2, r2, r2
8010123a:	bf28      	it	cs
8010123c:	eba0 20c1 	subcs.w	r0, r0, r1, lsl #11
80101240:	ebb0 2f81 	cmp.w	r0, r1, lsl #10
80101244:	bf00      	nop
80101246:	eb42 0202 	adc.w	r2, r2, r2
8010124a:	bf28      	it	cs
8010124c:	eba0 2081 	subcs.w	r0, r0, r1, lsl #10
80101250:	ebb0 2f41 	cmp.w	r0, r1, lsl #9
80101254:	bf00      	nop
80101256:	eb42 0202 	adc.w	r2, r2, r2
8010125a:	bf28      	it	cs
8010125c:	eba0 2041 	subcs.w	r0, r0, r1, lsl #9
80101260:	ebb0 2f01 	cmp.w	r0, r1, lsl #8
80101264:	bf00      	nop
80101266:	eb42 0202 	adc.w	r2, r2, r2
8010126a:	bf28      	it	cs
8010126c:	eba0 2001 	subcs.w	r0, r0, r1, lsl #8
80101270:	ebb0 1fc1 	cmp.w	r0, r1, lsl #7
80101274:	bf00      	nop
80101276:	eb42 0202 	adc.w	r2, r2, r2
8010127a:	bf28      	it	cs
8010127c:	eba0 10c1 	subcs.w	r0, r0, r1, lsl #7
80101280:	ebb0 1f81 	cmp.w	r0, r1, lsl #6
80101284:	bf00      	nop
80101286:	eb42 0202 	adc.w	r2, r2, r2
8010128a:	bf28      	it	cs
8010128c:	eba0 1081 	subcs.w	r0, r0, r1, lsl #6
80101290:	ebb0 1f41 	cmp.w	r0, r1, lsl #5
80101294:	bf00      	nop
80101296:	eb42 0202 	adc.w	r2, r2, r2
8010129a:	bf28      	it	cs
8010129c:	eba0 1041 	subcs.w	r0, r0, r1, lsl #5
801012a0:	ebb0 1f01 	cmp.w	r0, r1, lsl #4
801012a4:	bf00      	nop
801012a6:	eb42 0202 	adc.w	r2, r2, r2
801012aa:	bf28      	it	cs
801012ac:	eba0 1001 	subcs.w	r0, r0, r1, lsl #4
801012b0:	ebb0 0fc1 	cmp.w	r0, r1, lsl #3
801012b4:	bf00      	nop
801012b6:	eb42 0202 	adc.w	r2, r2, r2
801012ba:	bf28      	it	cs
801012bc:	eba0 00c1 	subcs.w	r0, r0, r1, lsl #3
801012c0:	ebb0 0f81 	cmp.w	r0, r1, lsl #2
801012c4:	bf00      	nop
801012c6:	eb42 0202 	adc.w	r2, r2, r2
801012ca:	bf28      	it	cs
801012cc:	eba0 0081 	subcs.w	r0, r0, r1, lsl #2
801012d0:	ebb0 0f41 	cmp.w	r0, r1, lsl #1
801012d4:	bf00      	nop
801012d6:	eb42 0202 	adc.w	r2, r2, r2
801012da:	bf28      	it	cs
801012dc:	eba0 0041 	subcs.w	r0, r0, r1, lsl #1
801012e0:	ebb0 0f01 	cmp.w	r0, r1
801012e4:	bf00      	nop
801012e6:	eb42 0202 	adc.w	r2, r2, r2
801012ea:	bf28      	it	cs
801012ec:	eba0 0001 	subcs.w	r0, r0, r1
801012f0:	4610      	mov	r0, r2
801012f2:	4770      	bx	lr
801012f4:	bf0c      	ite	eq
801012f6:	2001      	moveq	r0, #1
801012f8:	2000      	movne	r0, #0
801012fa:	4770      	bx	lr
801012fc:	fab1 f281 	clz	r2, r1
80101300:	f1c2 021f 	rsb	r2, r2, #31
80101304:	fa20 f002 	lsr.w	r0, r0, r2
80101308:	4770      	bx	lr
8010130a:	b108      	cbz	r0, 80101310 <__aeabi_uidiv+0x258>
8010130c:	f04f 30ff 	mov.w	r0, #4294967295	; 0xffffffff
80101310:	f000 b80e 	b.w	80101330 <__aeabi_idiv0>

80101314 <__aeabi_uidivmod>:
80101314:	2900      	cmp	r1, #0
80101316:	d0f8      	beq.n	8010130a <__aeabi_uidiv+0x252>
80101318:	e92d 4003 	stmdb	sp!, {r0, r1, lr}
8010131c:	f7ff fecc 	bl	801010b8 <__aeabi_uidiv>
80101320:	e8bd 4006 	ldmia.w	sp!, {r1, r2, lr}
80101324:	fb02 f300 	mul.w	r3, r2, r0
80101328:	eba1 0103 	sub.w	r1, r1, r3
8010132c:	4770      	bx	lr
8010132e:	bf00      	nop

80101330 <__aeabi_idiv0>:
80101330:	b502      	push	{r1, lr}
80101332:	f04f 0008 	mov.w	r0, #8
80101336:	f7ff fd79 	bl	80100e2c <raise>
8010133a:	bd02      	pop	{r1, pc}

Disassembly of section .text.startup:

8010133c <main>:
8010133c:	e92d 41f0 	stmdb	sp!, {r4, r5, r6, r7, r8, lr}
80101340:	b086      	sub	sp, #24
80101342:	f7ff f8d1 	bl	801004e8 <int_init>
80101346:	f241 4724 	movw	r7, #5156	; 0x1424
8010134a:	f241 4638 	movw	r6, #5176	; 0x1438
8010134e:	f7fe ffb5 	bl	801002bc <imx6ull_clock_init>
80101352:	f7ff f851 	bl	801003f8 <Uart_Init>
80101356:	f7ff f98b 	bl	80100670 <i2c_init>
8010135a:	f7fe ff0f 	bl	8010017c <led_init>
8010135e:	f7ff f931 	bl	801005c4 <key_GPIO5_1_init>
80101362:	f7ff fe03 	bl	80100f6c <GPIO4_16_init>
80101366:	f240 6109 	movw	r1, #1545	; 0x609
8010136a:	2200      	movs	r2, #0
8010136c:	f2c8 0110 	movt	r1, #32784	; 0x8010
80101370:	206a      	movs	r0, #106	; 0x6a
80101372:	f7ff f8ef 	bl	80100554 <request_irq>
80101376:	f640 719d 	movw	r1, #3997	; 0xf9d
8010137a:	2200      	movs	r2, #0
8010137c:	f2c8 0110 	movt	r1, #32784	; 0x8010
80101380:	f241 4550 	movw	r5, #5200	; 0x1450
80101384:	2069      	movs	r0, #105	; 0x69
80101386:	f2c8 0710 	movt	r7, #32784	; 0x8010
8010138a:	f2c8 0610 	movt	r6, #32784	; 0x8010
8010138e:	f2c8 0510 	movt	r5, #32784	; 0x8010
80101392:	2464      	movs	r4, #100	; 0x64
80101394:	f7ff f8de 	bl	80100554 <request_irq>
80101398:	f7ff fd4a 	bl	80100e30 <init_ap3216c>
8010139c:	e007      	b.n	801013ae <main+0x72>
8010139e:	f241 400c 	movw	r0, #5132	; 0x140c
801013a2:	f2c8 0010 	movt	r0, #32784	; 0x8010
801013a6:	f7ff fbf7 	bl	80100b98 <printf>
801013aa:	3c01      	subs	r4, #1
801013ac:	d02a      	beq.n	80101404 <main+0xc8>
801013ae:	a802      	add	r0, sp, #8
801013b0:	f7ff fda2 	bl	80100ef8 <ap3216c_read>
801013b4:	4680      	mov	r8, r0
801013b6:	2800      	cmp	r0, #0
801013b8:	d1f1      	bne.n	8010139e <main+0x62>
801013ba:	9905      	ldr	r1, [sp, #20]
801013bc:	4638      	mov	r0, r7
801013be:	09c9      	lsrs	r1, r1, #7
801013c0:	f7ff fbea 	bl	80100b98 <printf>
801013c4:	9903      	ldr	r1, [sp, #12]
801013c6:	4630      	mov	r0, r6
801013c8:	f7ff fbe6 	bl	80100b98 <printf>
801013cc:	9904      	ldr	r1, [sp, #16]
801013ce:	4628      	mov	r0, r5
801013d0:	f7ff fbe2 	bl	80100b98 <printf>
801013d4:	f241 4064 	movw	r0, #5220	; 0x1464
801013d8:	9902      	ldr	r1, [sp, #8]
801013da:	f2c8 0010 	movt	r0, #32784	; 0x8010
801013de:	f7ff fbdb 	bl	80100b98 <printf>
801013e2:	f8cd 8004 	str.w	r8, [sp, #4]
801013e6:	f64f 72ff 	movw	r2, #65535	; 0xffff
801013ea:	9b01      	ldr	r3, [sp, #4]
801013ec:	f2c0 0221 	movt	r2, #33	; 0x21
801013f0:	4293      	cmp	r3, r2
801013f2:	dcda      	bgt.n	801013aa <main+0x6e>
801013f4:	9b01      	ldr	r3, [sp, #4]
801013f6:	3301      	adds	r3, #1
801013f8:	9301      	str	r3, [sp, #4]
801013fa:	9b01      	ldr	r3, [sp, #4]
801013fc:	4293      	cmp	r3, r2
801013fe:	ddf9      	ble.n	801013f4 <main+0xb8>
80101400:	3c01      	subs	r4, #1
80101402:	d1d4      	bne.n	801013ae <main+0x72>
80101404:	4620      	mov	r0, r4
80101406:	b006      	add	sp, #24
80101408:	e8bd 81f0 	ldmia.w	sp!, {r4, r5, r6, r7, r8, pc}

Disassembly of section .rodata.str1.4:

8010140c <.rodata.str1.4>:
8010140c:	20656854 	rsbcs	r6, r5, r4, asr r8
80101410:	756c6176 	strbvc	r6, [ip, #-374]!	; 0xfffffe8a
80101414:	73692065 	cmnvc	r9, #101	; 0x65
80101418:	766e6920 	strbtvc	r6, [lr], -r0, lsr #18
8010141c:	64696c61 	strbtvs	r6, [r9], #-3169	; 0xfffff39f
80101420:	00000a0d 	andeq	r0, r0, sp, lsl #20
80101424:	756c6176 	strbvc	r6, [ip, #-374]!	; 0xfffffe8a
80101428:	65642e65 	strbvs	r2, [r4, #-3685]!	; 0xfffff19b
8010142c:	74636574 	strbtvc	r6, [r3], #-1396	; 0xfffffa8c
80101430:	6425203a 	strtvs	r2, [r5], #-58	; 0xffffffc6
80101434:	00000a0d 	andeq	r0, r0, sp, lsl #20
80101438:	756c6176 	strbvc	r6, [ip, #-374]!	; 0xfffffe8a
8010143c:	4c412e65 	mcrrmi	14, 6, r2, r1, cr5
80101440:	6c615653 	stclvs	6, cr5, [r1], #-332	; 0xfffffeb4
80101444:	203a6575 	eorscs	r6, sl, r5, ror r5
80101448:	0a0d6425 	beq	8045a4e4 <__bss_end+0x3588d0>
8010144c:	00000000 	andeq	r0, r0, r0
80101450:	756c6176 	strbvc	r6, [ip, #-374]!	; 0xfffffe8a
80101454:	53502e65 	cmppl	r0, #1616	; 0x650
80101458:	756c6156 	strbvc	r6, [ip, #-342]!	; 0xfffffeaa
8010145c:	25203a65 	strcs	r3, [r0, #-2661]!	; 0xfffff59b
80101460:	000a0d64 	andeq	r0, sl, r4, ror #26
80101464:	756c6176 	strbvc	r6, [ip, #-374]!	; 0xfffffe8a
80101468:	52492e65 	subpl	r2, r9, #1616	; 0x650
8010146c:	756c6156 	strbvc	r6, [ip, #-342]!	; 0xfffffeaa
80101470:	25203a65 	strcs	r3, [r0, #-2661]!	; 0xfffff59b
80101474:	000a0d64 	andeq	r0, sl, r4, ror #26
80101478:	73696854 	cmnvc	r9, #84, 16	; 0x540000
8010147c:	20736920 	rsbscs	r6, r3, r0, lsr #18
80101480:	2e777777 	mrccs	7, 3, r7, cr7, cr7, {3}
80101484:	61303031 	teqvs	r0, r1, lsr r0
80101488:	6f2e6b73 	svcvs	0x002e6b73
8010148c:	20206772 	eorcs	r6, r0, r2, ror r7
80101490:	5f796d20 	svcpl	0x00796d20
80101494:	6e697270 	mcrvs	2, 3, r7, cr9, cr0, {3}
80101498:	74206674 	strtvc	r6, [r0], #-1652	; 0xfffff98c
8010149c:	0a747365 	beq	81e1e238 <__bss_end+0x1d1c624>
801014a0:	0000000d 	andeq	r0, r0, sp
801014a4:	74736574 	ldrbtvc	r6, [r3], #-1396	; 0xfffffa8c
801014a8:	61686320 	cmnvs	r8, r0, lsr #6
801014ac:	20202072 	eorcs	r2, r0, r2, ror r0
801014b0:	20202020 	eorcs	r2, r0, r0, lsr #32
801014b4:	20202020 	eorcs	r2, r0, r0, lsr #32
801014b8:	2c63253d 	cfstr64cs	mvdx2, [r3], #-244	; 0xffffff0c
801014bc:	0d0a6325 	stceq	3, cr6, [sl, #-148]	; 0xffffff6c
801014c0:	00000000 	andeq	r0, r0, r0
801014c4:	74736574 	ldrbtvc	r6, [r3], #-1396	; 0xfffffa8c
801014c8:	63656420 	cmnvs	r5, #32, 8	; 0x20000000
801014cc:	6c616d69 	stclvs	13, cr6, [r1], #-420	; 0xfffffe5c
801014d0:	6d756e20 	ldclvs	14, cr6, [r5, #-128]!	; 0xffffff80
801014d4:	20726562 	rsbscs	r6, r2, r2, ror #10
801014d8:	0a64253d 	beq	81a0a9d4 <__bss_end+0x1908dc0>
801014dc:	0000000d 	andeq	r0, r0, sp
801014e0:	74736574 	ldrbtvc	r6, [r3], #-1396	; 0xfffffa8c
801014e4:	78656820 	stmdavc	r5!, {r5, fp, sp, lr}^
801014e8:	20202020 	eorcs	r2, r0, r0, lsr #32
801014ec:	6d756e20 	ldclvs	14, cr6, [r5, #-128]!	; 0xffffff80
801014f0:	20726562 	rsbscs	r6, r2, r2, ror #10
801014f4:	2578303d 	ldrbcs	r3, [r8, #-61]!	; 0xffffffc3
801014f8:	000d0a78 	andeq	r0, sp, r8, ror sl
801014fc:	74736574 	ldrbtvc	r6, [r3], #-1396	; 0xfffffa8c
80101500:	72747320 	rsbsvc	r7, r4, #32, 6	; 0x80000000
80101504:	20676e69 	rsbcs	r6, r7, r9, ror #28
80101508:	20202020 	eorcs	r2, r0, r0, lsr #32
8010150c:	20202020 	eorcs	r2, r0, r0, lsr #32
80101510:	0a73253d 	beq	81dcaa0c <__bss_end+0x1cc8df8>
80101514:	0000000d 	andeq	r0, r0, sp
80101518:	3d6d756e 	cfstr64cc	mvdx7, [sp, #-440]!	; 0xfffffe48
8010151c:	64383025 	ldrtvs	r3, [r8], #-37	; 0xffffffdb
80101520:	00000d0a 	andeq	r0, r0, sl, lsl #26
80101524:	3d6d756e 	cfstr64cc	mvdx7, [sp, #-440]!	; 0xfffffe48
80101528:	0a643825 	beq	81a0f5c4 <__bss_end+0x190d9b0>
8010152c:	0000000d 	andeq	r0, r0, sp
80101530:	3d6d756e 	cfstr64cc	mvdx7, [sp, #-440]!	; 0xfffffe48
80101534:	30257830 	eorcc	r7, r5, r0, lsr r8
80101538:	0d0a7838 	stceq	8, cr7, [sl, #-224]	; 0xffffff20
8010153c:	00000000 	andeq	r0, r0, r0
80101540:	3d6d756e 	cfstr64cc	mvdx7, [sp, #-440]!	; 0xfffffe48
80101544:	38257830 	stmdacc	r5!, {r4, r5, fp, ip, sp, lr}
80101548:	000d0a78 	andeq	r0, sp, r8, ror sl
8010154c:	3d6d756e 	cfstr64cc	mvdx7, [sp, #-440]!	; 0xfffffe48
80101550:	30257830 	eorcc	r7, r5, r0, lsr r8
80101554:	0d0a7832 	stceq	8, cr7, [sl, #-200]	; 0xffffff38
80101558:	00000000 	andeq	r0, r0, r0
8010155c:	3d6d756e 	cfstr64cc	mvdx7, [sp, #-440]!	; 0xfffffe48
80101560:	32257830 	eorcc	r7, r5, #48, 16	; 0x300000
80101564:	000d0a78 	andeq	r0, sp, r8, ror sl
80101568:	3d6d756e 	cfstr64cc	mvdx7, [sp, #-440]!	; 0xfffffe48
8010156c:	64353025 	ldrtvs	r3, [r5], #-37	; 0xffffffdb
80101570:	00000d0a 	andeq	r0, r0, sl, lsl #26
80101574:	3d6d756e 	cfstr64cc	mvdx7, [sp, #-440]!	; 0xfffffe48
80101578:	0a643525 	beq	81a0ea14 <__bss_end+0x190ce00>
8010157c:	0000000d 	andeq	r0, r0, sp
80101580:	61746164 	cmnvs	r4, r4, ror #2
80101584:	20736920 	rsbscs	r6, r3, r0, lsr #18
80101588:	61766e69 	cmnvs	r6, r9, ror #28
8010158c:	2064696c 	rsbcs	r6, r4, ip, ror #18
80101590:	00000a0d 	andeq	r0, r0, sp, lsl #20
80101594:	5f707061 	svcpl	0x00707061
80101598:	32337061 	eorscc	r7, r3, #97	; 0x61
8010159c:	2e633631 	mcrcs	6, 3, r3, cr3, cr1, {1}
801015a0:	0a0d2e2e 	beq	8044ce60 <__bss_end+0x34b24c>
801015a4:	00000000 	andeq	r0, r0, r0
801015a8:	61766e69 	cmnvs	r6, r9, ror #28
801015ac:	2064696c 	rsbcs	r6, r4, ip, ror #18
801015b0:	756c6176 	strbvc	r6, [ip, #-374]!	; 0xfffffe8a
801015b4:	726f2065 	rsbvc	r2, pc, #101	; 0x65
801015b8:	74616420 	strbtvc	r6, [r1], #-1056	; 0xfffffbe0
801015bc:	000a0d61 	andeq	r0, sl, r1, ror #26
801015c0:	32337061 	eorscc	r7, r3, #97	; 0x61
801015c4:	5f633631 	svcpl	0x00633631
801015c8:	48717269 	ldmdami	r1!, {r0, r3, r5, r6, r9, ip, sp, lr}^
801015cc:	6c646e61 	stclvs	14, cr6, [r4], #-388	; 0xfffffe7c
801015d0:	41207265 			; <UNDEFINED> instruction: 0x41207265
801015d4:	4920534c 	stmdbmi	r0!, {r2, r3, r6, r8, r9, ip, lr}
801015d8:	0a0d544e 	beq	80456718 <__bss_end+0x354b04>
801015dc:	00000000 	andeq	r0, r0, r0
801015e0:	32337061 	eorscc	r7, r3, #97	; 0x61
801015e4:	5f633631 	svcpl	0x00633631
801015e8:	48717269 	ldmdami	r1!, {r0, r3, r5, r6, r9, ip, sp, lr}^
801015ec:	6c646e61 	stclvs	14, cr6, [r4], #-388	; 0xfffffe7c
801015f0:	50207265 	eorpl	r7, r0, r5, ror #4
801015f4:	4e492053 	mcrmi	0, 2, r2, cr9, cr3, {2}
801015f8:	000a0d54 	andeq	r0, sl, r4, asr sp

Disassembly of section .data:

801015fc <GPIO5_Group>:
801015fc:	020ac000 	andeq	ip, sl, #0

80101600 <hex_tab>:
80101600:	33323130 	teqcc	r2, #48, 2
80101604:	37363534 			; <UNDEFINED> instruction: 0x37363534
80101608:	62613938 	rsbvs	r3, r1, #56, 18	; 0xe0000
8010160c:	66656463 	strbtvs	r6, [r5], -r3, ror #8

80101610 <_ctype>:
80101610:	08080808 	stmdaeq	r8, {r3, fp}
80101614:	08080808 	stmdaeq	r8, {r3, fp}
80101618:	28282808 	stmdacs	r8!, {r3, fp, sp}
8010161c:	08082828 	stmdaeq	r8, {r3, r5, fp, sp}
80101620:	08080808 	stmdaeq	r8, {r3, fp}
80101624:	08080808 	stmdaeq	r8, {r3, fp}
80101628:	08080808 	stmdaeq	r8, {r3, fp}
8010162c:	08080808 	stmdaeq	r8, {r3, fp}
80101630:	101010a0 	andsne	r1, r0, r0, lsr #1
80101634:	10101010 	andsne	r1, r0, r0, lsl r0
80101638:	10101010 	andsne	r1, r0, r0, lsl r0
8010163c:	10101010 	andsne	r1, r0, r0, lsl r0
80101640:	04040404 	streq	r0, [r4], #-1028	; 0xfffffbfc
80101644:	04040404 	streq	r0, [r4], #-1028	; 0xfffffbfc
80101648:	10100404 	andsne	r0, r0, r4, lsl #8
8010164c:	10101010 	andsne	r1, r0, r0, lsl r0
80101650:	41414110 	cmpmi	r1, r0, lsl r1
80101654:	01414141 	cmpeq	r1, r1, asr #2
80101658:	01010101 	tsteq	r1, r1, lsl #2
8010165c:	01010101 	tsteq	r1, r1, lsl #2
80101660:	01010101 	tsteq	r1, r1, lsl #2
80101664:	01010101 	tsteq	r1, r1, lsl #2
80101668:	10010101 	andne	r0, r1, r1, lsl #2
8010166c:	10101010 	andsne	r1, r0, r0, lsl r0
80101670:	42424210 	submi	r4, r2, #16, 4
80101674:	02424242 	subeq	r4, r2, #536870916	; 0x20000004
80101678:	02020202 	andeq	r0, r2, #536870912	; 0x20000000
8010167c:	02020202 	andeq	r0, r2, #536870912	; 0x20000000
80101680:	02020202 	andeq	r0, r2, #536870912	; 0x20000000
80101684:	02020202 	andeq	r0, r2, #536870912	; 0x20000000
80101688:	10020202 	andne	r0, r2, r2, lsl #4
8010168c:	08101010 	ldmdaeq	r0, {r4, ip}
	...
801016b0:	101010a0 	andsne	r1, r0, r0, lsr #1
801016b4:	10101010 	andsne	r1, r0, r0, lsl r0
801016b8:	10101010 	andsne	r1, r0, r0, lsl r0
801016bc:	10101010 	andsne	r1, r0, r0, lsl r0
801016c0:	10101010 	andsne	r1, r0, r0, lsl r0
801016c4:	10101010 	andsne	r1, r0, r0, lsl r0
801016c8:	10101010 	andsne	r1, r0, r0, lsl r0
801016cc:	10101010 	andsne	r1, r0, r0, lsl r0
801016d0:	01010101 	tsteq	r1, r1, lsl #2
801016d4:	01010101 	tsteq	r1, r1, lsl #2
801016d8:	01010101 	tsteq	r1, r1, lsl #2
801016dc:	01010101 	tsteq	r1, r1, lsl #2
801016e0:	01010101 	tsteq	r1, r1, lsl #2
801016e4:	10010101 	andne	r0, r1, r1, lsl #2
801016e8:	01010101 	tsteq	r1, r1, lsl #2
801016ec:	02010101 	andeq	r0, r1, #1073741824	; 0x40000000
801016f0:	02020202 	andeq	r0, r2, #536870912	; 0x20000000
801016f4:	02020202 	andeq	r0, r2, #536870912	; 0x20000000
801016f8:	02020202 	andeq	r0, r2, #536870912	; 0x20000000
801016fc:	02020202 	andeq	r0, r2, #536870912	; 0x20000000
80101700:	02020202 	andeq	r0, r2, #536870912	; 0x20000000
80101704:	10020202 	andne	r0, r2, r2, lsl #4
80101708:	02020202 	andeq	r0, r2, #536870912	; 0x20000000
8010170c:	02020202 	andeq	r0, r2, #536870912	; 0x20000000

Disassembly of section .bss:

80101710 <__bss_start>:
80101710:	00000000 	andeq	r0, r0, r0

80101714 <irqTable>:
	...

Disassembly of section .ARM.attributes:

00000000 <.ARM.attributes>:
   0:	00002e41 	andeq	r2, r0, r1, asr #28
   4:	61656100 	cmnvs	r5, r0, lsl #2
   8:	01006962 	tsteq	r0, r2, ror #18
   c:	00000024 	andeq	r0, r0, r4, lsr #32
  10:	412d3705 			; <UNDEFINED> instruction: 0x412d3705
  14:	070a0600 	streq	r0, [sl, -r0, lsl #12]
  18:	09010841 	stmdbeq	r1, {r0, r6, fp}
  1c:	12040a02 	andne	r0, r4, #8192	; 0x2000
  20:	15011404 	strne	r1, [r1, #-1028]	; 0xfffffbfc
  24:	18031701 	stmdane	r3, {r0, r8, r9, sl, ip}
  28:	1c021a01 			; <UNDEFINED> instruction: 0x1c021a01
  2c:	Address 0x000000000000002c is out of bounds.


Disassembly of section .comment:

00000000 <.comment>:
   0:	3a434347 	bcc	10d0d24 <shift+0x10d0d24>
   4:	694c2820 	stmdbvs	ip, {r5, fp, sp}^
   8:	6f72616e 	svcvs	0x0072616e
   c:	43434720 	movtmi	r4, #14112	; 0x3720
  10:	322e3620 	eorcc	r3, lr, #32, 12	; 0x2000000
  14:	3130322d 	teqcc	r0, sp, lsr #4
  18:	31312e36 	teqcc	r1, r6, lsr lr
  1c:	2e362029 	cdpcs	0, 3, cr2, cr6, cr9, {1}
  20:	20312e32 	eorscs	r2, r1, r2, lsr lr
  24:	36313032 			; <UNDEFINED> instruction: 0x36313032
  28:	36313031 			; <UNDEFINED> instruction: 0x36313031
	...

Disassembly of section .debug_line:

00000000 <.debug_line>:
   0:	0000009d 	muleq	r0, sp, r0
   4:	001e0002 	andseq	r0, lr, r2
   8:	01020000 	mrseq	r0, (UNDEF: 2)
   c:	000d0efb 	strdeq	r0, [sp], -fp
  10:	01010101 	tsteq	r1, r1, lsl #2
  14:	01000000 	mrseq	r0, (UNDEF: 0)
  18:	00010000 	andeq	r0, r1, r0
  1c:	72617473 	rsbvc	r7, r1, #1929379840	; 0x73000000
  20:	00532e74 	subseq	r2, r3, r4, ror lr
  24:	00000000 	andeq	r0, r0, r0
  28:	00020500 	andeq	r0, r2, r0, lsl #10
  2c:	16801000 	strne	r1, [r0], r0
  30:	30303030 	eorscc	r3, r0, r0, lsr r0
  34:	3034304d 	eorscc	r3, r4, sp, asr #32
  38:	2f2f2f2f 	svccs	0x002f2f2f
  3c:	2f302f2f 	svccs	0x00302f2f
  40:	2f2f2f33 	svccs	0x002f2f33
  44:	302f302f 	eorcc	r3, pc, pc, lsr #32
  48:	2f31312f 	svccs	0x0031312f
  4c:	2f2f302f 	svccs	0x002f302f
  50:	0e032f2f 	cdpeq	15, 0, cr2, cr3, cr15, {1}
  54:	302f2f2e 	eorcc	r2, pc, lr, lsr #30
  58:	332f2f2f 			; <UNDEFINED> instruction: 0x332f2f2f
  5c:	3530332f 	ldrcc	r3, [r0, #-815]!	; 0xfffffcd1
  60:	2f2f2f2f 	svccs	0x002f2f2f
  64:	2f2f2f30 	svccs	0x002f2f30
  68:	2f2f302f 	svccs	0x002f302f
  6c:	2f2f312f 	svccs	0x002f312f
  70:	302f2f2f 	eorcc	r2, pc, pc, lsr #30
  74:	2f302f2f 	svccs	0x00302f2f
  78:	302f2f2f 	eorcc	r2, pc, pc, lsr #30
  7c:	03302f2f 	teqeq	r0, #47, 30	; 0xbc
  80:	302e7ef7 	strdcc	r7, [lr], -r7	; <UNPREDICTABLE>
  84:	30313030 	eorscc	r3, r1, r0, lsr r0
  88:	032e1003 			; <UNDEFINED> instruction: 0x032e1003
  8c:	03312e0a 	teqeq	r1, #10, 28	; 0xa0
  90:	032f2e09 			; <UNDEFINED> instruction: 0x032f2e09
  94:	032f2e15 			; <UNDEFINED> instruction: 0x032f2e15
  98:	34342e1a 	ldrtcc	r2, [r4], #-3610	; 0xfffff1e6
  9c:	01000202 	tsteq	r0, r2, lsl #4
  a0:	0000e001 	andeq	lr, r0, r1
  a4:	99000200 	stmdbls	r0, {r9}
  a8:	02000000 	andeq	r0, r0, #0
  ac:	0d0efb01 	vstreq	d15, [lr, #-4]
  b0:	01010100 	mrseq	r0, (UNDEF: 17)
  b4:	00000001 	andeq	r0, r0, r1
  b8:	01000001 	tsteq	r0, r1
  bc:	6e692f2e 	cdpvs	15, 6, cr2, cr9, cr14, {1}
  c0:	64756c63 	ldrbtvs	r6, [r5], #-3171	; 0xfffff39d
  c4:	6d000065 	stcvs	0, cr0, [r0, #-404]	; 0xfffffe6c
  c8:	2e6e6961 	vnmulcs.f16	s13, s28, s3	; <UNPREDICTABLE>
  cc:	00000063 	andeq	r0, r0, r3, rrx
  d0:	33706100 	cmncc	r0, #0, 2
  d4:	63363132 	teqvs	r6, #-2147483636	; 0x8000000c
  d8:	0100682e 	tsteq	r0, lr, lsr #16
  dc:	69670000 	stmdbvs	r7!, {}^	; <UNPREDICTABLE>
  e0:	00682e63 	rsbeq	r2, r8, r3, ror #28
  e4:	63000001 	movwvs	r0, #1
  e8:	6b636f6c 	blvs	18dbea0 <shift+0x18dbea0>
  ec:	696e695f 	stmdbvs	lr!, {r0, r1, r2, r3, r4, r6, r8, fp, sp, lr}^
  f0:	00682e74 	rsbeq	r2, r8, r4, ror lr
  f4:	75000001 	strvc	r0, [r0, #-1]
  f8:	2e747261 	cdpcs	2, 7, cr7, cr4, cr1, {3}
  fc:	00010068 	andeq	r0, r1, r8, rrx
 100:	63326900 	teqvs	r2, #0, 18
 104:	0100682e 	tsteq	r0, lr, lsr #16
 108:	656c0000 	strbvs	r0, [ip, #-0]!
 10c:	00682e64 	rsbeq	r2, r8, r4, ror #28
 110:	6b000001 	blvs	11c <shift+0x11c>
 114:	695f7965 	ldmdbvs	pc, {r0, r2, r5, r6, r8, fp, ip, sp, lr}^	; <UNPREDICTABLE>
 118:	7265746e 	rsbvc	r7, r5, #1845493760	; 0x6e000000
 11c:	74707572 	ldrbtvc	r7, [r0], #-1394	; 0xfffffa8e
 120:	0100682e 	tsteq	r0, lr, lsr #16
 124:	796d0000 	stmdbvc	sp!, {}^	; <UNPREDICTABLE>
 128:	6972705f 	ldmdbvs	r2!, {r0, r1, r2, r3, r4, r6, ip, sp, lr}^
 12c:	2e66746e 	cdpcs	4, 6, cr7, cr6, cr14, {3}
 130:	00010068 	andeq	r0, r1, r8, rrx
 134:	49434d00 	stmdbmi	r3, {r8, sl, fp, lr}^
 138:	5936584d 	ldmdbpl	r6!, {r0, r2, r3, r6, fp, ip, lr}
 13c:	00682e32 	rsbeq	r2, r8, r2, lsr lr
 140:	00000001 	andeq	r0, r0, r1
 144:	3c020500 	cfstr32cc	mvfx0, [r2], {-0}
 148:	03801013 	orreq	r1, r0, #19
 14c:	033d0110 	teqeq	sp, #16, 2
 150:	032f2e15 			; <UNDEFINED> instruction: 0x032f2e15
 154:	2f2f2e6b 	svccs	0x002f2e6b
 158:	2f2f2f2f 	svccs	0x002f2f2f
 15c:	580f0383 	stmdapl	pc, {r0, r1, r7, r8, r9}	; <UNPREDICTABLE>
 160:	032e7103 			; <UNDEFINED> instruction: 0x032e7103
 164:	2f2f200d 	svccs	0x002f200d
 168:	1f2e7203 	svcne	0x002e7203
 16c:	3c09032f 	stccc	3, cr0, [r9], {47}	; 0x2f
 170:	413d3061 	teqmi	sp, r1, rrx
 174:	034b4b59 	movteq	r4, #47961	; 0xbb59
 178:	12037463 	andne	r7, r3, #1660944384	; 0x63000000
 17c:	2e1103e4 	cdpcs	3, 1, cr0, cr1, cr4, {7}
 180:	01000402 	tsteq	r0, r2, lsl #8
 184:	00006a01 	andeq	r6, r0, r1, lsl #20
 188:	3d000200 	sfmcc	f0, 4, [r0, #-0]
 18c:	02000000 	andeq	r0, r0, #0
 190:	0d0efb01 	vstreq	d15, [lr, #-4]
 194:	01010100 	mrseq	r0, (UNDEF: 17)
 198:	00000001 	andeq	r0, r0, r1
 19c:	01000001 	tsteq	r0, r1
 1a0:	6e692f2e 	cdpvs	15, 6, cr2, cr9, cr14, {1}
 1a4:	64756c63 	ldrbtvs	r6, [r5], #-3171	; 0xfffff39d
 1a8:	6c000065 	stcvs	0, cr0, [r0], {101}	; 0x65
 1ac:	632e6465 			; <UNDEFINED> instruction: 0x632e6465
 1b0:	00000000 	andeq	r0, r0, r0
 1b4:	36786d69 	ldrbtcc	r6, [r8], -r9, ror #26
 1b8:	2e6c6c75 	mcrcs	12, 3, r6, cr12, cr5, {3}
 1bc:	00010068 	andeq	r0, r1, r8, rrx
 1c0:	69706700 	ldmdbvs	r0!, {r8, r9, sl, sp, lr}^
 1c4:	00682e6f 	rsbeq	r2, r8, pc, ror #28
 1c8:	00000001 	andeq	r0, r0, r1
 1cc:	7c020500 	cfstr32vc	mvfx0, [r2], {-0}
 1d0:	19801001 	stmibne	r0, {r0, ip}
 1d4:	1e493f21 	cdpne	15, 4, cr3, cr9, cr1, {1}
 1d8:	2f1f2f22 	svccs	0x001f2f22
 1dc:	214b3d2b 	cmpcs	fp, fp, lsr #26
 1e0:	322d3d2f 	eorcc	r3, sp, #3008	; 0xbc0
 1e4:	47256415 			; <UNDEFINED> instruction: 0x47256415
 1e8:	13580903 	cmpne	r8, #49152	; 0xc000
 1ec:	0a0213a2 	beq	8507c <shift+0x8507c>
 1f0:	8e010100 	adfhis	f0, f1, f0
 1f4:	02000000 	andeq	r0, r0, #0
 1f8:	00003e00 	andeq	r3, r0, r0, lsl #28
 1fc:	fb010200 	blx	40a06 <shift+0x40a06>
 200:	01000d0e 	tsteq	r0, lr, lsl #26
 204:	00010101 	andeq	r0, r1, r1, lsl #2
 208:	00010000 	andeq	r0, r1, r0
 20c:	2f2e0100 	svccs	0x002e0100
 210:	6c636e69 	stclvs	14, cr6, [r3], #-420	; 0xfffffe5c
 214:	00656475 	rsbeq	r6, r5, r5, ror r4
 218:	69706700 	ldmdbvs	r0!, {r8, r9, sl, sp, lr}^
 21c:	00632e6f 	rsbeq	r2, r3, pc, ror #28
 220:	69000000 	stmdbvs	r0, {}	; <UNPREDICTABLE>
 224:	7536786d 	ldrvc	r7, [r6, #-2157]!	; 0xfffff793
 228:	682e6c6c 	stmdavs	lr!, {r2, r3, r5, r6, sl, fp, sp, lr}
 22c:	00000100 	andeq	r0, r0, r0, lsl #2
 230:	6f697067 	svcvs	0x00697067
 234:	0100682e 	tsteq	r0, lr, lsr #16
 238:	00000000 	andeq	r0, r0, r0
 23c:	02080205 	andeq	r0, r8, #1342177280	; 0x50000000
 240:	0a038010 	beq	e0288 <shift+0xe0288>
 244:	1c931301 	ldcne	3, cr1, [r3], {1}
 248:	1e4c2524 	cdpne	5, 4, cr2, cr12, cr4, {1}
 24c:	3b21223e 	blcc	848b4c <shift+0x848b4c>
 250:	3c750332 	ldclcc	3, cr0, [r5], #-200	; 0xffffff38
 254:	033c0b03 	teqeq	ip, #3072	; 0xc00
 258:	0b032075 	bleq	c8434 <shift+0xc8434>
 25c:	2e710320 	cdpcs	3, 7, cr0, cr1, cr0, {1}
 260:	3f2e0f03 	svccc	0x002e0f03
 264:	1f221e14 	svcne	0x00221e14
 268:	312d4b26 			; <UNDEFINED> instruction: 0x312d4b26
 26c:	7a03302c 	bvc	cc324 <shift+0xcc324>
 270:	342d4b20 	strtcc	r4, [sp], #-2848	; 0xfffff4e0
 274:	21233329 			; <UNDEFINED> instruction: 0x21233329
 278:	2d301f3d 	ldccs	15, cr1, [r0, #-244]!	; 0xffffff0c
 27c:	2f13232f 	svccs	0x0013232f
 280:	01000302 	tsteq	r0, r2, lsl #6
 284:	0000a601 	andeq	sl, r0, r1, lsl #12
 288:	23000200 	movwcs	r0, #512	; 0x200
 28c:	02000000 	andeq	r0, r0, #0
 290:	0d0efb01 	vstreq	d15, [lr, #-4]
 294:	01010100 	mrseq	r0, (UNDEF: 17)
 298:	00000001 	andeq	r0, r0, r1
 29c:	01000001 	tsteq	r0, r1
 2a0:	6f6c6300 	svcvs	0x006c6300
 2a4:	695f6b63 	ldmdbvs	pc, {r0, r1, r5, r6, r8, r9, fp, sp, lr}^	; <UNPREDICTABLE>
 2a8:	2e74696e 	vsubcs.f16	s13, s8, s29	; <UNPREDICTABLE>
 2ac:	00000063 	andeq	r0, r0, r3, rrx
 2b0:	05000000 	streq	r0, [r0, #-0]
 2b4:	1002bc02 	andne	fp, r2, r2, lsl #24
 2b8:	00c00380 	sbceq	r0, r0, r0, lsl #7
 2bc:	222c1401 	eorcs	r1, ip, #16777216	; 0x1000000
 2c0:	03274632 			; <UNDEFINED> instruction: 0x03274632
 2c4:	4c3e2079 	ldcmi	0, cr2, [lr], #-484	; 0xfffffe1c
 2c8:	0402004b 	streq	r0, [r2], #-75	; 0xffffffb5
 2cc:	303e6801 	eorscc	r6, lr, r1, lsl #16
 2d0:	242c302c 	strtcs	r3, [ip], #-44	; 0xffffffd4
 2d4:	004b3e46 	subeq	r3, fp, r6, asr #28
 2d8:	4b010402 	blmi	412e8 <shift+0x412e8>
 2dc:	3c7fbe03 	ldclcc	14, cr11, [pc], #-12	; 2d8 <shift+0x2d8>
 2e0:	2e780336 	mrccs	3, 3, r0, cr8, cr6, {1}
 2e4:	2e780336 	mrccs	3, 3, r0, cr8, cr6, {1}
 2e8:	29200d03 	stmdbcs	r0!, {r0, r1, r8, sl, fp}
 2ec:	03313025 	teqeq	r1, #37	; 0x25
 2f0:	0e032e6f 	cdpeq	14, 0, cr2, cr3, cr15, {3}
 2f4:	2e79032e 	cdpcs	3, 7, cr0, cr9, cr14, {1}
 2f8:	03200a03 			; <UNDEFINED> instruction: 0x03200a03
 2fc:	4b332e76 	blmi	ccbcdc <shift+0xccbcdc>
 300:	4b4b4b4b 	blmi	12d3034 <shift+0x12d3034>
 304:	312b3141 			; <UNDEFINED> instruction: 0x312b3141
 308:	200a032b 	andcs	r0, sl, fp, lsr #6
 30c:	69034f52 	stmdbvs	r3, {r1, r4, r6, r8, r9, sl, fp, lr}
 310:	2e17032e 	cdpcs	3, 1, cr0, cr7, cr14, {1}
 314:	212e6903 			; <UNDEFINED> instruction: 0x212e6903
 318:	0328514c 			; <UNDEFINED> instruction: 0x0328514c
 31c:	03352079 	teqeq	r5, #121	; 0x79
 320:	60032020 	andvs	r2, r3, r0, lsr #32
 324:	034b3320 	movteq	r3, #45856	; 0xb320
 328:	01024a1a 	tsteq	r2, sl, lsl sl
 32c:	a0010100 	andge	r0, r1, r0, lsl #2
 330:	02000000 	andeq	r0, r0, #0
 334:	00004300 	andeq	r4, r0, r0, lsl #6
 338:	fb010200 	blx	40b42 <shift+0x40b42>
 33c:	01000d0e 	tsteq	r0, lr, lsl #26
 340:	00010101 	andeq	r0, r1, r1, lsl #2
 344:	00010000 	andeq	r0, r1, r0
 348:	2f2e0100 	svccs	0x002e0100
 34c:	6c636e69 	stclvs	14, cr6, [r3], #-420	; 0xfffffe5c
 350:	00656475 	rsbeq	r6, r5, r5, ror r4
 354:	72617500 	rsbvc	r7, r1, #0, 10
 358:	00632e74 	rsbeq	r2, r3, r4, ror lr
 35c:	62000000 	andvs	r0, r0, #0
 360:	74657361 	strbtvc	r7, [r5], #-865	; 0xfffffc9f
 364:	2e657079 	mcrcs	0, 3, r7, cr5, cr9, {3}
 368:	00010068 	andeq	r0, r1, r8, rrx
 36c:	49434d00 	stmdbmi	r3, {r8, sl, fp, lr}^
 370:	5936584d 	ldmdbpl	r6!, {r0, r2, r3, r6, fp, ip, lr}
 374:	00682e32 	rsbeq	r2, r8, r2, lsr lr
 378:	00000001 	andeq	r0, r0, r1
 37c:	f8020500 			; <UNDEFINED> instruction: 0xf8020500
 380:	03801003 	orreq	r1, r0, #3
 384:	1d1a0111 	ldfnes	f0, [sl, #-68]	; 0xffffffbc
 388:	2c3f1f21 	ldccs	15, cr1, [pc], #-132	; 30c <shift+0x30c>
 38c:	252e7a03 	strcs	r7, [lr, #-2563]!	; 0xfffff5fd
 390:	2f202703 	svccs	0x00202703
 394:	03205903 			; <UNDEFINED> instruction: 0x03205903
 398:	5a032028 	bpl	c8440 <shift+0xc8440>
 39c:	660d032e 	strvs	r0, [sp], -lr, lsr #6
 3a0:	66100389 	ldrvs	r0, [r0], -r9, lsl #7
 3a4:	2f302f2f 	svccs	0x00302f2f
 3a8:	0d034b2d 	vstreq	d4, [r3, #-180]	; 0xffffff4c
 3ac:	0200132e 	andeq	r1, r0, #-1207959552	; 0xb8000000
 3b0:	3c060104 	stfccs	f0, [r6], {4}
 3b4:	0e034b06 	vmlaeq.f64	d4, d3, d6
 3b8:	0200133c 	andeq	r1, r0, #60, 6	; 0xf0000000
 3bc:	3c060104 	stfccs	f0, [r6], {4}
 3c0:	03214b06 			; <UNDEFINED> instruction: 0x03214b06
 3c4:	03132e0d 	tsteq	r3, #13, 28	; 0xd0
 3c8:	03752e60 	cmneq	r5, #96, 28	; 0x600
 3cc:	0502201f 	streq	r2, [r2, #-31]	; 0xffffffe1
 3d0:	da010100 	ble	407d8 <shift+0x407d8>
 3d4:	02000000 	andeq	r0, r0, #0
 3d8:	00005500 	andeq	r5, r0, r0, lsl #10
 3dc:	fb010200 	blx	40be6 <shift+0x40be6>
 3e0:	01000d0e 	tsteq	r0, lr, lsl #26
 3e4:	00010101 	andeq	r0, r1, r1, lsl #2
 3e8:	00010000 	andeq	r0, r1, r0
 3ec:	2f2e0100 	svccs	0x002e0100
 3f0:	6c636e69 	stclvs	14, cr6, [r3], #-420	; 0xfffffe5c
 3f4:	00656475 	rsbeq	r6, r5, r5, ror r4
 3f8:	63696700 	cmnvs	r9, #0, 14
 3fc:	0000632e 	andeq	r6, r0, lr, lsr #6
 400:	61620000 	cmnvs	r2, r0
 404:	79746573 	ldmdbvc	r4!, {r0, r1, r4, r5, r6, r8, sl, sp, lr}^
 408:	682e6570 	stmdavs	lr!, {r4, r5, r6, r8, sl, sp, lr}
 40c:	00000100 	andeq	r0, r0, r0, lsl #2
 410:	4d49434d 	stclmi	3, cr4, [r9, #-308]	; 0xfffffecc
 414:	32593658 	subscc	r3, r9, #88, 12	; 0x5800000
 418:	0100682e 	tsteq	r0, lr, lsr #16
 41c:	69670000 	stmdbvs	r7!, {}^	; <UNPREDICTABLE>
 420:	00682e63 	rsbeq	r2, r8, r3, ror #28
 424:	75000001 	strvc	r0, [r0, #-1]
 428:	2e747261 	cdpcs	2, 7, cr7, cr4, cr1, {3}
 42c:	00010068 	andeq	r0, r1, r8, rrx
 430:	05000000 	streq	r0, [r0, #-0]
 434:	1004ac02 	andne	sl, r4, r2, lsl #24
 438:	010b0380 	smlabbeq	fp, r0, r3, r0
 43c:	032e3b03 			; <UNDEFINED> instruction: 0x032e3b03
 440:	30030157 	andcc	r0, r3, r7, asr r1
 444:	4d03bd2e 	stcmi	13, cr11, [r3, #-184]	; 0xffffff48
 448:	2e3a0301 	cdpcs	3, 3, cr0, cr10, cr1, {0}
 44c:	204203be 	strhcs	r0, [r2], #-62	; 0xffffffc2
 450:	332e0c03 			; <UNDEFINED> instruction: 0x332e0c03
 454:	7a03261b 	bvc	c9cc8 <shift+0xc9cc8>
 458:	2f2d422e 	svccs	0x002d422e
 45c:	0385432d 	orreq	r4, r5, #-1275068416	; 0xb4000000
 460:	2303745d 	movwcs	r7, #13405	; 0x345d
 464:	29412520 	stmdbcs	r1, {r5, r8, sl, sp}^
 468:	20520325 	subscs	r0, r2, r5, lsr #6
 46c:	cc032b2f 			; <UNDEFINED> instruction: 0xcc032b2f
 470:	03212e00 			; <UNDEFINED> instruction: 0x03212e00
 474:	76032e0e 	strvc	r2, [r3], -lr, lsl #28
 478:	2e0e0301 	cdpcs	3, 0, cr0, cr14, cr1, {0}
 47c:	343c7603 	ldrtcc	r7, [ip], #-1539	; 0xfffff9fd
 480:	2f207a03 	svccs	0x00207a03
 484:	b5032f2d 	strlt	r2, [r3, #-3885]	; 0xfffff0d3
 488:	3003207f 	andcc	r2, r3, pc, ror r0
 48c:	4a27032e 	bmi	9c114c <shift+0x9c114c>
 490:	032e5903 			; <UNDEFINED> instruction: 0x032e5903
 494:	5a033c26 	bpl	cf534 <shift+0xcf534>
 498:	2e270320 	cdpcs	3, 2, cr0, cr7, cr0, {1}
 49c:	a5032123 	strge	r2, [r3, #-291]	; 0xfffffedd
 4a0:	e2033c7f 	and	r3, r3, #32512	; 0x7f00
 4a4:	2c302e00 	ldccs	14, cr2, [r0], #-0
 4a8:	752f2d22 	strvc	r2, [pc, #-3362]!	; fffff78e <__bss_end+0x7fefdb7a>
 4ac:	01000402 	tsteq	r0, r2, lsl #8
 4b0:	0000a701 	andeq	sl, r0, r1, lsl #14
 4b4:	68000200 	stmdavs	r0, {r9}
 4b8:	02000000 	andeq	r0, r0, #0
 4bc:	0d0efb01 	vstreq	d15, [lr, #-4]
 4c0:	01010100 	mrseq	r0, (UNDEF: 17)
 4c4:	00000001 	andeq	r0, r0, r1
 4c8:	01000001 	tsteq	r0, r1
 4cc:	6e692f2e 	cdpvs	15, 6, cr2, cr9, cr14, {1}
 4d0:	64756c63 	ldrbtvs	r6, [r5], #-3171	; 0xfffff39d
 4d4:	6b000065 	blvs	670 <shift+0x670>
 4d8:	695f7965 	ldmdbvs	pc, {r0, r2, r5, r6, r8, fp, ip, sp, lr}^	; <UNPREDICTABLE>
 4dc:	7265746e 	rsbvc	r7, r5, #1845493760	; 0x6e000000
 4e0:	74707572 	ldrbtvc	r7, [r0], #-1394	; 0xfffffa8e
 4e4:	0000632e 	andeq	r6, r0, lr, lsr #6
 4e8:	6d690000 	stclvs	0, cr0, [r9, #-0]
 4ec:	6c753678 	ldclvs	6, cr3, [r5], #-480	; 0xfffffe20
 4f0:	00682e6c 	rsbeq	r2, r8, ip, ror #28
 4f4:	67000001 	strvs	r0, [r0, -r1]
 4f8:	2e6f6970 			; <UNDEFINED> instruction: 0x2e6f6970
 4fc:	00010068 	andeq	r0, r1, r8, rrx
 500:	49434d00 	stmdbmi	r3, {r8, sl, fp, lr}^
 504:	5936584d 	ldmdbpl	r6!, {r0, r2, r3, r6, fp, ip, lr}
 508:	00682e32 	rsbeq	r2, r8, r2, lsr lr
 50c:	75000001 	strvc	r0, [r0, #-1]
 510:	2e747261 	cdpcs	2, 7, cr7, cr4, cr1, {3}
 514:	00010068 	andeq	r0, r1, r8, rrx
 518:	64656c00 	strbtvs	r6, [r5], #-3072	; 0xfffff400
 51c:	0100682e 	tsteq	r0, lr, lsr #16
 520:	00000000 	andeq	r0, r0, r0
 524:	05c40205 	strbeq	r0, [r4, #517]	; 0x205
 528:	09038010 	stmdbeq	r3, {r4, pc}
 52c:	213e2201 	teqcs	lr, r1, lsl #4
 530:	2d232c2d 	stccs	12, cr2, [r3, #-180]!	; 0xffffff4c
 534:	4b3d3921 	blmi	f4e9c0 <shift+0xf4e9c0>
 538:	2d3d2f21 	ldccs	15, cr2, [sp, #-132]!	; 0xffffff7c
 53c:	211f2141 	tstcs	pc, r1, asr #2
 540:	04020032 	streq	r0, [r2], #-50	; 0xffffffce
 544:	06740603 	ldrbteq	r0, [r4], -r3, lsl #12
 548:	2b439567 	blcs	10e5aec <shift+0x10e5aec>
 54c:	4b1f2175 	blmi	7c8b28 <shift+0x7c8b28>
 550:	2e760321 	cdpcs	3, 7, cr0, cr6, cr1, {1}
 554:	022e0a03 	eoreq	r0, lr, #12288	; 0x3000
 558:	01010002 	tsteq	r1, r2
 55c:	000001d6 	ldrdeq	r0, [r0], -r6
 560:	005b0002 	subseq	r0, fp, r2
 564:	01020000 	mrseq	r0, (UNDEF: 2)
 568:	000d0efb 	strdeq	r0, [sp], -fp
 56c:	01010101 	tsteq	r1, r1, lsl #2
 570:	01000000 	mrseq	r0, (UNDEF: 0)
 574:	2e010000 	cdpcs	0, 0, cr0, cr1, cr0, {0}
 578:	636e692f 	cmnvs	lr, #770048	; 0xbc000
 57c:	6564756c 	strbvs	r7, [r4, #-1388]!	; 0xfffffa94
 580:	32690000 	rsbcc	r0, r9, #0
 584:	00632e63 	rsbeq	r2, r3, r3, ror #28
 588:	66000000 	strvs	r0, [r0], -r0
 58c:	695f6c73 	ldmdbvs	pc, {r0, r1, r4, r5, r6, sl, fp, sp, lr}^	; <UNPREDICTABLE>
 590:	78756d6f 	ldmdavc	r5!, {r0, r1, r2, r3, r5, r6, r8, sl, fp, sp, lr}^
 594:	00682e63 	rsbeq	r2, r8, r3, ror #28
 598:	62000001 	andvs	r0, r0, #1
 59c:	74657361 	strbtvc	r7, [r5], #-865	; 0xfffffc9f
 5a0:	2e657079 	mcrcs	0, 3, r7, cr5, cr9, {3}
 5a4:	00010068 	andeq	r0, r1, r8, rrx
 5a8:	49434d00 	stmdbmi	r3, {r8, sl, fp, lr}^
 5ac:	5936584d 	ldmdbpl	r6!, {r0, r2, r3, r6, fp, ip, lr}
 5b0:	00682e32 	rsbeq	r2, r8, r2, lsr lr
 5b4:	69000001 	stmdbvs	r0, {r0}
 5b8:	682e6332 	stmdavs	lr!, {r1, r4, r5, r8, r9, sp, lr}
 5bc:	00000100 	andeq	r0, r0, r0, lsl #2
 5c0:	02050000 	andeq	r0, r5, #0
 5c4:	80100670 	andshi	r0, r0, r0, ror r6
 5c8:	04011803 	streq	r1, [r1], #-2051	; 0xfffff7fd
 5cc:	08bf0302 	ldmeq	pc!, {r1, r8, r9}	; <UNPREDICTABLE>
 5d0:	294f2920 	stmdbcs	pc, {r5, r8, fp, sp}^	; <UNPREDICTABLE>
 5d4:	2e1d0325 	cdpcs	3, 1, cr0, cr13, cr5, {1}
 5d8:	95030104 	strls	r0, [r3, #-260]	; 0xfffffefc
 5dc:	02044a77 	andeq	r4, r4, #487424	; 0x77000
 5e0:	2008ce03 	andcs	ip, r8, r3, lsl #28
 5e4:	03010429 	movweq	r0, #5161	; 0x1429
 5e8:	042077b7 	strteq	r7, [r0], #-1975	; 0xfffff849
 5ec:	08ce0302 	stmiaeq	lr, {r1, r8, r9}^
 5f0:	2203292e 	andcs	r2, r3, #753664	; 0xb8000
 5f4:	4a63032e 	bmi	18c12b4 <shift+0x18c12b4>
 5f8:	032e1d03 			; <UNDEFINED> instruction: 0x032e1d03
 5fc:	251b2e63 	ldrcs	r2, [fp, #-3683]	; 0xfffff19d
 600:	b3030104 	movwlt	r0, #12548	; 0x3104
 604:	02042077 	andeq	r2, r4, #119	; 0x77
 608:	2008ea03 	andcs	lr, r8, r3, lsl #20
 60c:	95030104 	strls	r0, [r3, #-260]	; 0xfffffefc
 610:	21672e77 	smccs	29415	; 0x72e7
 614:	13741403 	cmnne	r4, #50331648	; 0x3000000
 618:	1d271c4d 	stcne	12, cr1, [r7, #-308]!	; 0xfffffecc
 61c:	32245a59 	eorcc	r5, r4, #364544	; 0x59000
 620:	7a03782a 	bvc	de6d0 <shift+0xde6d0>
 624:	0321252e 			; <UNDEFINED> instruction: 0x0321252e
 628:	03422e7a 	movteq	r2, #11898	; 0x2e7a
 62c:	0d032e73 	stceq	14, cr2, [r3, #-460]	; 0xfffffe34
 630:	22143f20 	andscs	r3, r4, #32, 30	; 0x80
 634:	2b235a2c 	blcs	8d6eec <shift+0x8d6eec>
 638:	31232c50 			; <UNDEFINED> instruction: 0x31232c50
 63c:	00211f13 	eoreq	r1, r1, r3, lsl pc
 640:	06010402 	streq	r0, [r1], -r2, lsl #8
 644:	213e062e 	teqcs	lr, lr, lsr #12
 648:	2122591f 			; <UNDEFINED> instruction: 0x2122591f
 64c:	245b591f 	ldrbcs	r5, [fp], #-2335	; 0xfffff6e1
 650:	30211f13 	eorcc	r1, r1, r3, lsl pc
 654:	67591d23 	ldrbvs	r1, [r9, -r3, lsr #26]
 658:	3d412259 	sfmcc	f2, 2, [r1, #-356]	; 0xfffffe9c
 65c:	04020024 	streq	r0, [r2], #-36	; 0xffffffdc
 660:	673e3101 	ldrvs	r3, [lr, -r1, lsl #2]!
 664:	02004c5a 	andeq	r4, r0, #23040	; 0x5a00
 668:	3d5a0104 	ldfcce	f0, [sl, #-16]
 66c:	2f591f21 	svccs	0x00591f21
 670:	952e4503 	strls	r4, [lr, #-1283]!	; 0xfffffafd
 674:	00c1032b 	sbceq	r0, r1, fp, lsr #6
 678:	0200233c 	andeq	r2, r0, #60, 6	; 0xf0000000
 67c:	3e400104 	dvfccs	f0, f0, f4
 680:	035a1e22 	cmpeq	sl, #544	; 0x220
 684:	1e222e1b 	mcrne	14, 1, r2, cr2, cr11, {0}
 688:	6c401e3e 	mcrrvs	14, 3, r1, r0, cr14
 68c:	04020024 	streq	r0, [r2], #-36	; 0xffffffdc
 690:	673e2f01 	ldrvs	r2, [lr, -r1, lsl #30]!
 694:	207f8503 	rsbscs	r8, pc, r3, lsl #10
 698:	82032b95 	andhi	r2, r3, #152576	; 0x25400
 69c:	3f5a3c01 	svccc	0x005a3c01
 6a0:	22207603 	eorcs	r7, r0, #3145728	; 0x300000
 6a4:	3e744f03 	cdpcc	15, 7, cr4, cr4, cr3, {0}
 6a8:	591e2222 	ldmdbpl	lr, {r1, r5, r9, sp}
 6ac:	02002359 	andeq	r2, r0, #1677721601	; 0x64000001
 6b0:	40680104 	rsbmi	r0, r8, r4, lsl #2
 6b4:	2f5a1e22 	svccs	0x005a1e22
 6b8:	2e7f9e03 	cdpcs	14, 7, cr9, cr15, cr3, {0}
 6bc:	8b032b95 	blhi	cb518 <shift+0xcb518>
 6c0:	1c164a01 			; <UNDEFINED> instruction: 0x1c164a01
 6c4:	00223020 	eoreq	r3, r2, r0, lsr #32
 6c8:	5b010402 	blpl	416d8 <shift+0x416d8>
 6cc:	02004b3f 	andeq	r4, r0, #64512	; 0xfc00
 6d0:	3f250104 	svccc	0x00250104
 6d4:	7edf033d 	mrcvc	3, 6, r0, cr15, cr13, {1}
 6d8:	032b9520 			; <UNDEFINED> instruction: 0x032b9520
 6dc:	035801c6 	cmpeq	r8, #-2147483599	; 0x80000031
 6e0:	22225861 	eorcs	r5, r2, #6356992	; 0x610000
 6e4:	221e3e1e 	andscs	r3, lr, #480	; 0x1e0
 6e8:	0200221e 	andeq	r2, r0, #-536870911	; 0xe0000001
 6ec:	3f220104 	svccc	0x00220104
 6f0:	7ecd0359 	mcrvc	3, 6, r0, cr13, cr9, {2}
 6f4:	032b952e 			; <UNDEFINED> instruction: 0x032b952e
 6f8:	004a01bc 	strheq	r0, [sl], #-28	; 0xffffffe4
 6fc:	06010402 	streq	r0, [r1], -r2, lsl #8
 700:	363e062e 	ldrtcc	r0, [lr], -lr, lsr #12
 704:	302e7803 	eorcc	r7, lr, r3, lsl #16
 708:	01040200 	mrseq	r0, R12_usr
 70c:	3e062e06 	cdpcc	14, 0, cr2, cr6, cr6, {0}
 710:	36362a32 			; <UNDEFINED> instruction: 0x36362a32
 714:	24207a03 	strtcs	r7, [r0], #-2563	; 0xfffff5fd
 718:	7803251f 	stmdavc	r3, {r0, r1, r2, r3, r4, r8, sl, sp}
 71c:	1f1e3320 	svcne	0x001e3320
 720:	30212322 	eorcc	r2, r1, r2, lsr #6
 724:	23233231 			; <UNDEFINED> instruction: 0x23233231
 728:	23207903 			; <UNDEFINED> instruction: 0x23207903
 72c:	2223211e 	eorcs	r2, r3, #-2147483641	; 0x80000007
 730:	00020230 	andeq	r0, r2, r0, lsr r2
 734:	00d70101 	sbcseq	r0, r7, r1, lsl #2
 738:	00020000 	andeq	r0, r2, r0
 73c:	00000036 	andeq	r0, r0, r6, lsr r0
 740:	0efb0102 	cdpeq	1, 15, cr0, cr11, cr2, {0}
 744:	0101000d 	tsteq	r1, sp
 748:	00000101 	andeq	r0, r0, r1, lsl #2
 74c:	00000100 	andeq	r0, r0, r0, lsl #2
 750:	692f2e01 	stmdbvs	pc!, {r0, r9, sl, fp, sp}	; <UNPREDICTABLE>
 754:	756c636e 	strbvc	r6, [ip, #-878]!	; 0xfffffc92
 758:	00006564 	andeq	r6, r0, r4, ror #10
 75c:	705f796d 	subsvc	r7, pc, sp, ror #18
 760:	746e6972 	strbtvc	r6, [lr], #-2418	; 0xfffff68e
 764:	00632e66 	rsbeq	r2, r3, r6, ror #28
 768:	75000000 	strvc	r0, [r0, #-0]
 76c:	2e747261 	cdpcs	2, 7, cr7, cr4, cr1, {3}
 770:	00010068 	andeq	r0, r1, r8, rrx
 774:	05000000 	streq	r0, [r0, #-0]
 778:	100a4802 	andne	r4, sl, r2, lsl #16
 77c:	01220380 	smlawbeq	r2, r0, r3, r0
 780:	2b3c0903 	blcs	f02b94 <shift+0xf02b94>
 784:	2e77033f 	mrccs	3, 3, r0, cr7, cr15, {1}
 788:	02006c20 	andeq	r6, r0, #32, 24	; 0x2000
 78c:	0a030104 	beq	c0ba4 <shift+0xc0ba4>
 790:	0402003c 	streq	r0, [r2], #-60	; 0xffffffc4
 794:	02006801 	andeq	r6, r0, #65536	; 0x10000
 798:	002d0104 	eoreq	r0, sp, r4, lsl #2
 79c:	1f010402 	svcne	0x00010402
 7a0:	01040200 	mrseq	r0, R12_usr
 7a4:	00595a30 	subseq	r5, r9, r0, lsr sl
 7a8:	45030402 	strmi	r0, [r3, #-1026]	; 0xfffffbfe
 7ac:	03040200 	movweq	r0, #16896	; 0x4200
 7b0:	04020026 	streq	r0, [r2], #-38	; 0xffffffda
 7b4:	2f402d03 	svccs	0x00402d03
 7b8:	2f746003 	svccs	0x00746003
 7bc:	4a23032d 	bmi	8c1478 <shift+0x8c1478>
 7c0:	4c24204f 	stcmi	0, cr2, [r4], #-316	; 0xfffffec4
 7c4:	492e0a03 	stmdbmi	lr!, {r0, r1, r9, fp}
 7c8:	331f271c 	tstcc	pc, #28, 14	; 0x700000
 7cc:	5e2c2f91 	mcrpl	15, 1, r2, cr12, cr1, {4}
 7d0:	65031508 	strvs	r1, [r3, #-1288]	; 0xfffffaf8
 7d4:	4a260358 	bmi	98153c <shift+0x98153c>
 7d8:	032e7803 			; <UNDEFINED> instruction: 0x032e7803
 7dc:	3d2e7fb6 	stccc	15, cr7, [lr, #-728]!	; 0xfffffd28
 7e0:	00c6032d 	sbceq	r0, r6, sp, lsr #6
 7e4:	b2036858 	andlt	r6, r3, #88, 16	; 0x580000
 7e8:	cf03667f 	svcgt	0x0003667f
 7ec:	b1032000 	mrslt	r2, (UNDEF: 3)
 7f0:	cf03207f 	svcgt	0x0003207f
 7f4:	b1032e00 	tstlt	r3, r0, lsl #28
 7f8:	e7032e7f 	smlsdx	r3, pc, lr, r2	; <UNPREDICTABLE>
 7fc:	4d323c00 	ldcmi	12, cr3, [r2, #-0]
 800:	03660e03 	cmneq	r6, #3, 28	; 0x30
 804:	2303826f 	movwcs	r8, #12911	; 0x326f
 808:	01018f02 	tsteq	r1, r2, lsl #30
 80c:	01000402 	tsteq	r0, r2, lsl #8
 810:	0000d101 	andeq	sp, r0, r1, lsl #2
 814:	39000200 	stmdbcc	r0, {r9}
 818:	02000000 	andeq	r0, r0, #0
 81c:	0d0efb01 	vstreq	d15, [lr, #-4]
 820:	01010100 	mrseq	r0, (UNDEF: 17)
 824:	00000001 	andeq	r0, r0, r1
 828:	01000001 	tsteq	r0, r1
 82c:	6e692f2e 	cdpvs	15, 6, cr2, cr9, cr14, {1}
 830:	64756c63 	ldrbtvs	r6, [r5], #-3171	; 0xfffff39d
 834:	73000065 	movwvc	r0, #101	; 0x65
 838:	6e697274 	mcrvs	2, 3, r7, cr9, cr4, {3}
 83c:	74755f67 	ldrbtvc	r5, [r5], #-3943	; 0xfffff099
 840:	2e736c69 	cdpcs	12, 7, cr6, cr3, cr9, {3}
 844:	00000063 	andeq	r0, r0, r3, rrx
 848:	72617500 	rsbvc	r7, r1, #0, 10
 84c:	00682e74 	rsbeq	r2, r8, r4, ror lr
 850:	00000001 	andeq	r0, r0, r1
 854:	e8020500 	stmda	r2, {r8, sl}
 858:	0380100c 	orreq	r1, r0, #12
 85c:	230100e5 	movwcs	r0, #4325	; 0x10e5
 860:	4b820a03 	blmi	fe083074 <__bss_end+0x7df81460>
 864:	0402003e 	streq	r0, [r2], #-62	; 0xffffffc2
 868:	20760301 	rsbscs	r0, r6, r1, lsl #6
 86c:	302e0a03 	eorcc	r0, lr, r3, lsl #20
 870:	0402002c 	streq	r0, [r2], #-44	; 0xffffffd4
 874:	00660601 	rsbeq	r0, r6, r1, lsl #12
 878:	06030402 	streq	r0, [r3], -r2, lsl #8
 87c:	00585b03 	subseq	r5, r8, r3, lsl #22
 880:	03030402 	movweq	r0, #13314	; 0x3402
 884:	02002025 	andeq	r2, r0, #37	; 0x25
 888:	002f0304 	eoreq	r0, pc, r4, lsl #6
 88c:	65090402 	strvs	r0, [r9, #-1026]	; 0xfffffbfe
 890:	03222133 			; <UNDEFINED> instruction: 0x03222133
 894:	211f2e6d 	tstcs	pc, sp, ror #28
 898:	01040200 	mrseq	r0, R12_usr
 89c:	a0069006 	andge	r9, r6, r6
 8a0:	033d4d2d 	teqeq	sp, #2880	; 0xb40
 8a4:	3f21901e 	svccc	0x0021901e
 8a8:	034c2d2d 	movteq	r2, #52525	; 0xcd2d
 8ac:	21202e0e 			; <UNDEFINED> instruction: 0x21202e0e
 8b0:	033c0b03 	teqeq	ip, #3072	; 0xc00
 8b4:	70032e0a 	andvc	r2, r3, sl, lsl #28
 8b8:	2f2f3f3c 	svccs	0x002f3f3c
 8bc:	200a0342 	andcs	r0, sl, r2, asr #6
 8c0:	03207603 			; <UNDEFINED> instruction: 0x03207603
 8c4:	7203200a 	andvc	r2, r3, #10
 8c8:	0a034020 	beq	d0950 <shift+0xd0950>
 8cc:	20760320 	rsbscs	r0, r6, r0, lsr #6
 8d0:	03200a03 			; <UNDEFINED> instruction: 0x03200a03
 8d4:	3d302e0d 	ldccc	14, cr2, [r0, #-52]!	; 0xffffffcc
 8d8:	4a0d0359 	bmi	341644 <shift+0x341644>
 8dc:	4f593d30 	svcmi	0x00593d30
 8e0:	00020214 	andeq	r0, r2, r4, lsl r2
 8e4:	013a0101 	teqeq	sl, r1, lsl #2
 8e8:	00020000 	andeq	r0, r2, r0
 8ec:	0000009b 	muleq	r0, fp, r0
 8f0:	0efb0102 	cdpeq	1, 15, cr0, cr11, cr2, {0}
 8f4:	0101000d 	tsteq	r1, sp
 8f8:	00000101 	andeq	r0, r0, r1, lsl #2
 8fc:	00000100 	andeq	r0, r0, r0, lsl #2
 900:	692f2e01 	stmdbvs	pc!, {r0, r9, sl, fp, sp}	; <UNPREDICTABLE>
 904:	756c636e 	strbvc	r6, [ip, #-878]!	; 0xfffffc92
 908:	00006564 	andeq	r6, r0, r4, ror #10
 90c:	32337061 	eorscc	r7, r3, #97	; 0x61
 910:	2e633631 	mcrcs	6, 3, r3, cr3, cr1, {1}
 914:	00000063 	andeq	r0, r0, r3, rrx
 918:	6c736600 	ldclvs	6, cr6, [r3], #-0
 91c:	6d6f695f 			; <UNDEFINED> instruction: 0x6d6f695f
 920:	2e637875 	mcrcs	8, 3, r7, cr3, cr5, {3}
 924:	00010068 	andeq	r0, r1, r8, rrx
 928:	73616200 	cmnvc	r1, #0, 4
 92c:	70797465 	rsbsvc	r7, r9, r5, ror #8
 930:	00682e65 	rsbeq	r2, r8, r5, ror #28
 934:	4d000001 	stcmi	0, cr0, [r0, #-4]
 938:	584d4943 	stmdapl	sp, {r0, r1, r6, r8, fp, lr}^
 93c:	2e325936 			; <UNDEFINED> instruction: 0x2e325936
 940:	00010068 	andeq	r0, r1, r8, rrx
 944:	33706100 	cmncc	r0, #0, 2
 948:	63363132 	teqvs	r6, #-2147483636	; 0x8000000c
 94c:	0100682e 	tsteq	r0, lr, lsr #16
 950:	6d690000 	stclvs	0, cr0, [r9, #-0]
 954:	6c753678 	ldclvs	6, cr3, [r5], #-480	; 0xfffffe20
 958:	00682e6c 	rsbeq	r2, r8, ip, ror #28
 95c:	67000001 	strvs	r0, [r0, -r1]
 960:	2e6f6970 			; <UNDEFINED> instruction: 0x2e6f6970
 964:	00010068 	andeq	r0, r1, r8, rrx
 968:	63326900 	teqvs	r2, #0, 18
 96c:	0100682e 	tsteq	r0, lr, lsr #16
 970:	656c0000 	strbvs	r0, [ip, #-0]!
 974:	00682e64 	rsbeq	r2, r8, r4, ror #28
 978:	6d000001 	stcvs	0, cr0, [r0, #-4]
 97c:	72705f79 	rsbsvc	r5, r0, #484	; 0x1e4
 980:	66746e69 	ldrbtvs	r6, [r4], -r9, ror #28
 984:	0100682e 	tsteq	r0, lr, lsr #16
 988:	00000000 	andeq	r0, r0, r0
 98c:	0e300205 	cdpeq	2, 3, cr0, cr0, cr5, {0}
 990:	11038010 	tstne	r3, r0, lsl r0
 994:	68912101 	ldmvs	r1, {r0, r8, sp}
 998:	2d4b6d67 	stclcs	13, cr6, [fp, #-412]	; 0xfffffe64
 99c:	83332132 	teqhi	r3, #-2147483636	; 0x8000000c
 9a0:	83838383 	orrhi	r8, r3, #201326594	; 0xc000002
 9a4:	75032192 	strvc	r2, [r3, #-402]	; 0xfffffe6e
 9a8:	0e036720 	cdpeq	7, 0, cr6, cr3, cr0, {1}
 9ac:	3d232e4a 	stccc	14, cr2, [r3, #-296]!	; 0xfffffed8
 9b0:	04020067 	streq	r0, [r2], #-103	; 0xffffff99
 9b4:	06200601 	strteq	r0, [r0], -r1, lsl #12
 9b8:	2b4a0a03 	blcs	12831cc <shift+0x12831cc>
 9bc:	207a0351 	rsbscs	r0, sl, r1, asr r3
 9c0:	392c312f 	stmdbcc	ip!, {r0, r1, r2, r3, r5, r8, ip, sp}
 9c4:	2f491e33 	svccs	0x00491e33
 9c8:	261f231d 			; <UNDEFINED> instruction: 0x261f231d
 9cc:	672e7303 	strvs	r7, [lr, -r3, lsl #6]!
 9d0:	044a1003 	strbeq	r1, [sl], #-3
 9d4:	08870302 	stmeq	r7, {r1, r8, r9}
 9d8:	03010420 	movweq	r0, #5152	; 0x1420
 9dc:	042e77fd 	strteq	r7, [lr], #-2045	; 0xfffff803
 9e0:	08830302 	stmeq	r3, {r1, r8, r9}
 9e4:	0301042e 	movweq	r0, #5166	; 0x142e
 9e8:	042e77fd 	strteq	r7, [lr], #-2045	; 0xfffff803
 9ec:	08830302 	stmeq	r3, {r1, r8, r9}
 9f0:	0301042e 	movweq	r0, #5166	; 0x142e
 9f4:	592e77fd 	stmdbpl	lr!, {r0, r2, r3, r4, r5, r6, r7, r8, r9, sl, ip, sp, lr}
 9f8:	16412d3d 			; <UNDEFINED> instruction: 0x16412d3d
 9fc:	2009037e 	andcs	r0, r9, lr, ror r3
 a00:	03207703 			; <UNDEFINED> instruction: 0x03207703
 a04:	3e832009 	cdpcc	0, 8, cr2, cr3, cr9, {0}
 a08:	3c0a034c 	stccc	3, cr0, [sl], {76}	; 0x4c
 a0c:	8383833d 	orrhi	r8, r3, #-201326592	; 0xf4000000
 a10:	768a6784 	strvc	r6, [sl], r4, lsl #15
 a14:	3d3c6703 	ldccc	7, cr6, [ip, #-12]!
 a18:	03838383 	orreq	r8, r3, #201326594	; 0xc000002
 a1c:	0267900f 	rsbeq	r9, r7, #15
 a20:	01010009 	tsteq	r1, r9
 a24:	000000fc 	strdeq	r0, [r0], -ip
 a28:	00c70002 	sbceq	r0, r7, r2
 a2c:	01020000 	mrseq	r0, (UNDEF: 2)
 a30:	000d0efb 	strdeq	r0, [sp], -fp
 a34:	01010101 	tsteq	r1, r1, lsl #2
 a38:	01000000 	mrseq	r0, (UNDEF: 0)
 a3c:	2f010000 	svccs	0x00010000
 a40:	656d6f68 	strbvs	r6, [sp, #-3944]!	; 0xfffff098
 a44:	7763742f 	strbvc	r7, [r3, -pc, lsr #8]!
 a48:	75622d67 	strbvc	r2, [r2, #-3431]!	; 0xfffff299
 a4c:	73646c69 	cmnvc	r4, #26880	; 0x6900
 a50:	6576616c 	ldrbvs	r6, [r6, #-364]!	; 0xfffffe94
 a54:	726f772f 	rsbvc	r7, pc, #12320768	; 0xbc0000
 a58:	6170736b 	cmnvs	r0, fp, ror #6
 a5c:	742f6563 	strtvc	r6, [pc], #-1379	; a64 <shift+0xa64>
 a60:	2d677763 	stclcs	7, cr7, [r7, #-396]!	; 0xfffffe74
 a64:	656b616d 	strbvs	r6, [fp, #-365]!	; 0xfffffe93
 a68:	6c65722d 	sfmvs	f7, 2, [r5], #-180	; 0xffffff4c
 a6c:	65736165 	ldrbvs	r6, [r3, #-357]!	; 0xfffffe9b
 a70:	62616c2f 	rsbvs	r6, r1, #12032	; 0x2f00
 a74:	642f6c65 	strtvs	r6, [pc], #-3173	; a7c <shift+0xa7c>
 a78:	656b636f 	strbvs	r6, [fp, #-879]!	; 0xfffffc91
 a7c:	72742d72 	rsbsvc	r2, r4, #7296	; 0x1c80
 a80:	79747375 	ldmdbvc	r4!, {r0, r2, r4, r5, r6, r8, r9, ip, sp, lr}^
 a84:	646d612d 	strbtvs	r6, [sp], #-301	; 0xfffffed3
 a88:	742d3436 	strtvc	r3, [sp], #-1078	; 0xfffffbca
 a8c:	2d677763 	stclcs	7, cr7, [r7, #-396]!	; 0xfffffe74
 a90:	6c697562 	cfstr64vs	mvdx7, [r9], #-392	; 0xfffffe78
 a94:	61742f64 	cmnvs	r4, r4, ror #30
 a98:	74656772 	strbtvc	r6, [r5], #-1906	; 0xfffff88e
 a9c:	6d72612f 	ldfvse	f6, [r2, #-188]!	; 0xffffff44
 aa0:	6e696c2d 	cdpvs	12, 6, cr6, cr9, cr13, {1}
 aa4:	672d7875 			; <UNDEFINED> instruction: 0x672d7875
 aa8:	6165756e 	cmnvs	r5, lr, ror #10
 aac:	66686962 	strbtvs	r6, [r8], -r2, ror #18
 ab0:	616e732f 	cmnvs	lr, pc, lsr #6
 ab4:	6f687370 	svcvs	0x00687370
 ab8:	672f7374 			; <UNDEFINED> instruction: 0x672f7374
 abc:	6c2d6363 	stcvs	3, cr6, [sp], #-396	; 0xfffffe74
 ac0:	72616e69 	rsbvc	r6, r1, #1680	; 0x690
 ac4:	2e362d6f 	cdpcs	13, 3, cr2, cr6, cr15, {3}
 ac8:	30322d32 	eorscc	r2, r2, r2, lsr sp
 acc:	312e3631 			; <UNDEFINED> instruction: 0x312e3631
 ad0:	696c2f31 	stmdbvs	ip!, {r0, r4, r5, r8, r9, sl, fp, sp}^
 ad4:	63636762 	cmnvs	r3, #25690112	; 0x1880000
 ad8:	6e6f632f 	cdpvs	3, 6, cr6, cr15, cr15, {1}
 adc:	2f676966 	svccs	0x00676966
 ae0:	006d7261 	rsbeq	r7, sp, r1, ror #4
 ae4:	62696c00 	rsbvs	r6, r9, #0, 24
 ae8:	6e756631 	mrcvs	6, 3, r6, cr5, cr1, {1}
 aec:	532e7363 			; <UNDEFINED> instruction: 0x532e7363
 af0:	00000100 	andeq	r0, r0, r0, lsl #2
 af4:	02050000 	andeq	r0, r5, #0
 af8:	801010b8 	ldrhhi	r1, [r0], -r8
 afc:	0107e603 	tsteq	r7, r3, lsl #12
 b00:	2f212121 	svccs	0x00212121
 b04:	30212f21 	eorcc	r2, r1, r1, lsr #30
 b08:	14029102 	strne	r9, [r2], #-258	; 0xfffffefe
 b0c:	21212221 			; <UNDEFINED> instruction: 0x21212221
 b10:	2f4c2221 	svccs	0x004c2221
 b14:	58160324 	ldmdapl	r6, {r2, r5, r8, r9}
 b18:	2f2f2121 	svccs	0x002f2121
 b1c:	022f2f2f 	eoreq	r2, pc, #47, 30	; 0xbc
 b20:	01010001 	tsteq	r1, r1
 b24:	000000e2 	andeq	r0, r0, r2, ror #1
 b28:	00c70002 	sbceq	r0, r7, r2
 b2c:	01020000 	mrseq	r0, (UNDEF: 2)
 b30:	000d0efb 	strdeq	r0, [sp], -fp
 b34:	01010101 	tsteq	r1, r1, lsl #2
 b38:	01000000 	mrseq	r0, (UNDEF: 0)
 b3c:	2f010000 	svccs	0x00010000
 b40:	656d6f68 	strbvs	r6, [sp, #-3944]!	; 0xfffff098
 b44:	7763742f 	strbvc	r7, [r3, -pc, lsr #8]!
 b48:	75622d67 	strbvc	r2, [r2, #-3431]!	; 0xfffff299
 b4c:	73646c69 	cmnvc	r4, #26880	; 0x6900
 b50:	6576616c 	ldrbvs	r6, [r6, #-364]!	; 0xfffffe94
 b54:	726f772f 	rsbvc	r7, pc, #12320768	; 0xbc0000
 b58:	6170736b 	cmnvs	r0, fp, ror #6
 b5c:	742f6563 	strtvc	r6, [pc], #-1379	; b64 <shift+0xb64>
 b60:	2d677763 	stclcs	7, cr7, [r7, #-396]!	; 0xfffffe74
 b64:	656b616d 	strbvs	r6, [fp, #-365]!	; 0xfffffe93
 b68:	6c65722d 	sfmvs	f7, 2, [r5], #-180	; 0xffffff4c
 b6c:	65736165 	ldrbvs	r6, [r3, #-357]!	; 0xfffffe9b
 b70:	62616c2f 	rsbvs	r6, r1, #12032	; 0x2f00
 b74:	642f6c65 	strtvs	r6, [pc], #-3173	; b7c <shift+0xb7c>
 b78:	656b636f 	strbvs	r6, [fp, #-879]!	; 0xfffffc91
 b7c:	72742d72 	rsbsvc	r2, r4, #7296	; 0x1c80
 b80:	79747375 	ldmdbvc	r4!, {r0, r2, r4, r5, r6, r8, r9, ip, sp, lr}^
 b84:	646d612d 	strbtvs	r6, [sp], #-301	; 0xfffffed3
 b88:	742d3436 	strtvc	r3, [sp], #-1078	; 0xfffffbca
 b8c:	2d677763 	stclcs	7, cr7, [r7, #-396]!	; 0xfffffe74
 b90:	6c697562 	cfstr64vs	mvdx7, [r9], #-392	; 0xfffffe78
 b94:	61742f64 	cmnvs	r4, r4, ror #30
 b98:	74656772 	strbtvc	r6, [r5], #-1906	; 0xfffff88e
 b9c:	6d72612f 	ldfvse	f6, [r2, #-188]!	; 0xffffff44
 ba0:	6e696c2d 	cdpvs	12, 6, cr6, cr9, cr13, {1}
 ba4:	672d7875 			; <UNDEFINED> instruction: 0x672d7875
 ba8:	6165756e 	cmnvs	r5, lr, ror #10
 bac:	66686962 	strbtvs	r6, [r8], -r2, ror #18
 bb0:	616e732f 	cmnvs	lr, pc, lsr #6
 bb4:	6f687370 	svcvs	0x00687370
 bb8:	672f7374 			; <UNDEFINED> instruction: 0x672f7374
 bbc:	6c2d6363 	stcvs	3, cr6, [sp], #-396	; 0xfffffe74
 bc0:	72616e69 	rsbvc	r6, r1, #1680	; 0x690
 bc4:	2e362d6f 	cdpcs	13, 3, cr2, cr6, cr15, {3}
 bc8:	30322d32 	eorscc	r2, r2, r2, lsr sp
 bcc:	312e3631 			; <UNDEFINED> instruction: 0x312e3631
 bd0:	696c2f31 	stmdbvs	ip!, {r0, r4, r5, r8, r9, sl, fp, sp}^
 bd4:	63636762 	cmnvs	r3, #25690112	; 0x1880000
 bd8:	6e6f632f 	cdpvs	3, 6, cr6, cr15, cr15, {1}
 bdc:	2f676966 	svccs	0x00676966
 be0:	006d7261 	rsbeq	r7, sp, r1, ror #4
 be4:	62696c00 	rsbvs	r6, r9, #0, 24
 be8:	6e756631 	mrcvs	6, 3, r6, cr5, cr1, {1}
 bec:	532e7363 			; <UNDEFINED> instruction: 0x532e7363
 bf0:	00000100 	andeq	r0, r0, r0, lsl #2
 bf4:	02050000 	andeq	r0, r5, #0
 bf8:	80101330 	andshi	r1, r0, r0, lsr r3
 bfc:	010ac403 	tsteq	sl, r3, lsl #8
 c00:	2f200903 	svccs	0x00200903
 c04:	0001022f 	andeq	r0, r1, pc, lsr #4
 c08:	Address 0x0000000000000c08 is out of bounds.


Disassembly of section .debug_info:

00000000 <.debug_info>:
       0:	00000048 	andeq	r0, r0, r8, asr #32
       4:	00000002 	andeq	r0, r0, r2
       8:	01040000 	mrseq	r0, (UNDEF: 4)
       c:	00000000 	andeq	r0, r0, r0
      10:	80100000 	andshi	r0, r0, r0
      14:	8010017c 	andshi	r0, r0, ip, ror r1
      18:	72617473 	rsbvc	r7, r1, #1929379840	; 0x73000000
      1c:	00532e74 	subseq	r2, r3, r4, ror lr
      20:	6d6f682f 	stclvs	8, cr6, [pc, #-188]!	; ffffff6c <__bss_end+0x7fefe358>
      24:	74662f65 	strbtvc	r2, [r6], #-3941	; 0xfffff09b
      28:	65737570 	ldrbvs	r7, [r3, #-1392]!	; 0xfffffa90
      2c:	6f772f72 	svcvs	0x00772f72
      30:	692f6b72 	stmdbvs	pc!, {r1, r4, r5, r6, r8, r9, fp, sp, lr}	; <UNPREDICTABLE>
      34:	6e5f786d 	cdpvs	8, 5, cr7, cr15, cr13, {3}
      38:	00736f6f 	rsbseq	r6, r3, pc, ror #30
      3c:	20554e47 	subscs	r4, r5, r7, asr #28
      40:	32205341 	eorcc	r5, r0, #67108865	; 0x4000001
      44:	2e37322e 	cdpcs	2, 3, cr3, cr7, cr14, {1}
      48:	80010030 	andhi	r0, r1, r0, lsr r0
      4c:	0000063d 	andeq	r0, r0, sp, lsr r6
      50:	00140004 	andseq	r0, r4, r4
      54:	01040000 	mrseq	r0, (UNDEF: 4)
      58:	00000589 	andeq	r0, r0, r9, lsl #11
      5c:	0009060c 	andeq	r0, r9, ip, lsl #12
      60:	0000a500 	andeq	sl, r0, r0, lsl #10
	...
      6c:	0000a100 	andeq	sl, r0, r0, lsl #2
      70:	07040200 	streq	r0, [r4, -r0, lsl #4]
      74:	0000008a 	andeq	r0, r0, sl, lsl #1
      78:	31060102 	tstcc	r6, r2, lsl #2
      7c:	02000007 	andeq	r0, r0, #7
      80:	072f0801 	streq	r0, [pc, -r1, lsl #16]!
      84:	02020000 	andeq	r0, r2, #0
      88:	00043f05 	andeq	r3, r4, r5, lsl #30
      8c:	07020200 	streq	r0, [r2, -r0, lsl #4]
      90:	00000386 	andeq	r0, r0, r6, lsl #7
      94:	69050403 	stmdbvs	r5, {r0, r1, sl}
      98:	0400746e 	streq	r7, [r0], #-1134	; 0xfffffb92
      9c:	00000048 	andeq	r0, r0, r8, asr #32
      a0:	4f050802 	svcmi	0x00050802
      a4:	02000001 	andeq	r0, r0, #1
      a8:	00800708 	addeq	r0, r0, r8, lsl #14
      ac:	ae050000 	cdpge	0, 0, cr0, cr5, cr0, {0}
      b0:	04000003 	streq	r0, [r0], #-3
      b4:	00000048 	andeq	r0, r0, r8, asr #32
      b8:	04045c0a 	streq	r5, [r4], #-3082	; 0xfffff3f6
      bc:	6b060000 	blvs	1800c4 <shift+0x1800c4>
      c0:	80000004 	andhi	r0, r0, r4
      c4:	0967077f 	stmdbeq	r7!, {r0, r1, r2, r3, r4, r5, r6, r8, r9, sl}^
      c8:	07000000 	streq	r0, [r0, -r0]
      cc:	000002c1 	andeq	r0, r0, r1, asr #5
      d0:	04300701 	ldrteq	r0, [r0], #-1793	; 0xfffff8ff
      d4:	07020000 	streq	r0, [r2, -r0]
      d8:	00000666 	andeq	r0, r0, r6, ror #12
      dc:	0a3d0703 	beq	f41cf0 <shift+0xf41cf0>
      e0:	07040000 	streq	r0, [r4, -r0]
      e4:	000000ec 	andeq	r0, r0, ip, ror #1
      e8:	01f40705 	mvnseq	r0, r5, lsl #14
      ec:	07060000 	streq	r0, [r6, -r0]
      f0:	0000073d 	andeq	r0, r0, sp, lsr r7
      f4:	083d0707 	ldmdaeq	sp!, {r0, r1, r2, r8, r9, sl}
      f8:	07080000 	streq	r0, [r8, -r0]
      fc:	0000078a 	andeq	r0, r0, sl, lsl #15
     100:	02870709 	addeq	r0, r7, #2359296	; 0x240000
     104:	070a0000 	streq	r0, [sl, -r0]
     108:	000000cc 	andeq	r0, r0, ip, asr #1
     10c:	01e4070b 	mvneq	r0, fp, lsl #14
     110:	070c0000 	streq	r0, [ip, -r0]
     114:	00000312 	andeq	r0, r0, r2, lsl r3
     118:	082d070d 	stmdaeq	sp!, {r0, r2, r3, r8, r9, sl}
     11c:	070e0000 	streq	r0, [lr, -r0]
     120:	00000a4c 	andeq	r0, r0, ip, asr #20
     124:	0112070f 	tsteq	r2, pc, lsl #14
     128:	07190000 	ldreq	r0, [r9, -r0]
     12c:	00000651 	andeq	r0, r0, r1, asr r6
     130:	06b3071a 	ssateq	r0, #20, sl, lsl #14
     134:	071b0000 	ldreq	r0, [fp, -r0]
     138:	00000554 	andeq	r0, r0, r4, asr r5
     13c:	0979071c 	ldmdbeq	r9!, {r2, r3, r4, r8, r9, sl}^
     140:	071d0000 	ldreq	r0, [sp, -r0]
     144:	00000976 	andeq	r0, r0, r6, ror r9
     148:	03d8071e 	bicseq	r0, r8, #7864320	; 0x780000
     14c:	071f0000 	ldreq	r0, [pc, -r0]
     150:	000007c7 	andeq	r0, r0, r7, asr #15
     154:	08d30720 	ldmeq	r3, {r5, r8, r9, sl}^
     158:	07210000 	streq	r0, [r1, -r0]!
     15c:	0000025a 	andeq	r0, r0, sl, asr r2
     160:	015d0722 	cmpeq	sp, r2, lsr #14
     164:	07230000 	streq	r0, [r3, -r0]!
     168:	000001b1 			; <UNDEFINED> instruction: 0x000001b1
     16c:	04dd0724 	ldrbeq	r0, [sp], #1828	; 0x724
     170:	07250000 	streq	r0, [r5, -r0]!
     174:	00000189 	andeq	r0, r0, r9, lsl #3
     178:	002c0726 	eoreq	r0, ip, r6, lsr #14
     17c:	07270000 	streq	r0, [r7, -r0]!
     180:	000006d2 	ldrdeq	r0, [r0], -r2
     184:	02f90728 	rscseq	r0, r9, #40, 14	; 0xa00000
     188:	07290000 	streq	r0, [r9, -r0]!
     18c:	00000484 	andeq	r0, r0, r4, lsl #9
     190:	04e8072a 	strbteq	r0, [r8], #1834	; 0x72a
     194:	072b0000 	streq	r0, [fp, -r0]!
     198:	000000dc 	ldrdeq	r0, [r0], -ip
     19c:	0040072c 	subeq	r0, r0, ip, lsr #14
     1a0:	072d0000 	streq	r0, [sp, -r0]!
     1a4:	00000929 	andeq	r0, r0, r9, lsr #18
     1a8:	06e9072e 	strbteq	r0, [r9], lr, lsr #14
     1ac:	072f0000 	streq	r0, [pc, -r0]!
     1b0:	000009f0 	strdeq	r0, [r0], -r0	; <UNPREDICTABLE>
     1b4:	08820730 	stmeq	r2, {r4, r5, r8, r9, sl}
     1b8:	07310000 	ldreq	r0, [r1, -r0]!
     1bc:	000007e4 	andeq	r0, r0, r4, ror #15
     1c0:	062a0732 			; <UNDEFINED> instruction: 0x062a0732
     1c4:	07330000 	ldreq	r0, [r3, -r0]!
     1c8:	00000264 	andeq	r0, r0, r4, ror #4
     1cc:	03990734 	orrseq	r0, r9, #52, 14	; 0xd00000
     1d0:	07350000 	ldreq	r0, [r5, -r0]!
     1d4:	00000424 	andeq	r0, r0, r4, lsr #8
     1d8:	08fa0736 	ldmeq	sl!, {r1, r2, r4, r5, r8, r9, sl}^
     1dc:	07370000 	ldreq	r0, [r7, -r0]!
     1e0:	00000692 	muleq	r0, r2, r6
     1e4:	06c50738 			; <UNDEFINED> instruction: 0x06c50738
     1e8:	07390000 	ldreq	r0, [r9, -r0]!
     1ec:	00000687 	andeq	r0, r0, r7, lsl #13
     1f0:	0016073a 	andseq	r0, r6, sl, lsr r7
     1f4:	073b0000 	ldreq	r0, [fp, -r0]!
     1f8:	00000144 	andeq	r0, r0, r4, asr #2
     1fc:	022f073c 	eoreq	r0, pc, #60, 14	; 0xf00000
     200:	073d0000 	ldreq	r0, [sp, -r0]!
     204:	00000771 	andeq	r0, r0, r1, ror r7
     208:	090d073e 	stmdbeq	sp, {r1, r2, r3, r4, r5, r8, r9, sl}
     20c:	073f0000 	ldreq	r0, [pc, -r0]!
     210:	00000a31 	andeq	r0, r0, r1, lsr sl
     214:	03e70740 	mvneq	r0, #64, 14	; 0x1000000
     218:	07410000 	strbeq	r0, [r1, -r0]
     21c:	0000053b 	andeq	r0, r0, fp, lsr r5
     220:	03510742 	cmpeq	r1, #17301504	; 0x1080000
     224:	07430000 	strbeq	r0, [r3, -r0]
     228:	00000799 	muleq	r0, r9, r7
     22c:	08c90744 	stmiaeq	r9, {r2, r6, r8, r9, sl}^
     230:	07450000 	strbeq	r0, [r5, -r0]
     234:	00000225 	andeq	r0, r0, r5, lsr #4
     238:	00c10746 	sbceq	r0, r1, r6, asr #14
     23c:	07470000 	strbeq	r0, [r7, -r0]
     240:	00000035 	andeq	r0, r0, r5, lsr r0
     244:	052b0748 	streq	r0, [fp, #-1864]!	; 0xfffff8b8
     248:	07490000 	strbeq	r0, [r9, -r0]
     24c:	000008ec 	andeq	r0, r0, ip, ror #17
     250:	03fd074a 	mvnseq	r0, #19398656	; 0x1280000
     254:	074b0000 	strbeq	r0, [fp, -r0]
     258:	00000493 	muleq	r0, r3, r4
     25c:	0097074c 	addseq	r0, r7, ip, asr #14
     260:	074d0000 	strbeq	r0, [sp, -r0]
     264:	00000875 	andeq	r0, r0, r5, ror r8
     268:	060f074e 	streq	r0, [pc], -lr, asr #14
     26c:	074f0000 	strbeq	r0, [pc, -r0]
     270:	00000567 	andeq	r0, r0, r7, ror #10
     274:	024d0750 	subeq	r0, sp, #80, 14	; 0x1400000
     278:	07510000 	ldrbeq	r0, [r1, -r0]
     27c:	00000823 	andeq	r0, r0, r3, lsr #16
     280:	03080752 	movweq	r0, #34642	; 0x8752
     284:	07530000 	ldrbeq	r0, [r3, -r0]
     288:	00000479 	andeq	r0, r0, r9, ror r4
     28c:	02770754 	rsbseq	r0, r7, #84, 14	; 0x1500000
     290:	07550000 	ldrbeq	r0, [r5, -r0]
     294:	00000193 	muleq	r0, r3, r1
     298:	069f0756 			; <UNDEFINED> instruction: 0x069f0756
     29c:	07570000 	ldrbeq	r0, [r7, -r0]
     2a0:	0000086a 	andeq	r0, r0, sl, ror #16
     2a4:	09b00758 	ldmibeq	r0!, {r3, r4, r6, r8, r9, sl}
     2a8:	07590000 	ldrbeq	r0, [r9, -r0]
     2ac:	00000919 	andeq	r0, r0, r9, lsl r9
     2b0:	06fa075a 	usateq	r0, #26, sl, asr #14
     2b4:	075b0000 	ldrbeq	r0, [fp, -r0]
     2b8:	000004f3 	strdeq	r0, [r0], -r3
     2bc:	0070075c 	rsbseq	r0, r0, ip, asr r7
     2c0:	075d0000 	ldrbeq	r0, [sp, -r0]
     2c4:	00000a1c 	andeq	r0, r0, ip, lsl sl
     2c8:	08dc075e 	ldmeq	ip, {r1, r2, r3, r4, r6, r8, r9, sl}^
     2cc:	075f0000 	ldrbeq	r0, [pc, -r0]
     2d0:	0000032c 	andeq	r0, r0, ip, lsr #6
     2d4:	02970760 	addseq	r0, r7, #96, 14	; 0x1800000
     2d8:	07610000 	strbeq	r0, [r1, -r0]!
     2dc:	000004ab 	andeq	r0, r0, fp, lsr #9
     2e0:	07a30762 	streq	r0, [r3, r2, ror #14]!
     2e4:	07630000 	strbeq	r0, [r3, -r0]!
     2e8:	0000088d 	andeq	r0, r0, sp, lsl #17
     2ec:	012a0764 			; <UNDEFINED> instruction: 0x012a0764
     2f0:	07650000 	strbeq	r0, [r5, -r0]!
     2f4:	00000166 	andeq	r0, r0, r6, ror #2
     2f8:	03b30766 			; <UNDEFINED> instruction: 0x03b30766
     2fc:	07670000 	strbeq	r0, [r7, -r0]!
     300:	000004c4 	andeq	r0, r0, r4, asr #9
     304:	0a020768 	beq	820ac <shift+0x820ac>
     308:	07690000 	strbeq	r0, [r9, -r0]!
     30c:	000008b0 			; <UNDEFINED> instruction: 0x000008b0
     310:	035b076a 	cmpeq	fp, #27787264	; 0x1a80000
     314:	076b0000 	strbeq	r0, [fp, -r0]!
     318:	0000045a 	andeq	r0, r0, sl, asr r4
     31c:	0933076c 	ldmdbeq	r3!, {r2, r3, r5, r6, r8, r9, sl}
     320:	076d0000 	strbeq	r0, [sp, -r0]!
     324:	000003a2 	andeq	r0, r0, r2, lsr #7
     328:	0203076e 	andeq	r0, r3, #28835840	; 0x1b80000
     32c:	076f0000 	strbeq	r0, [pc, -r0]!
     330:	000009e5 	andeq	r0, r0, r5, ror #19
     334:	00650770 	rsbeq	r0, r5, r0, ror r7
     338:	07710000 	ldrbeq	r0, [r1, -r0]!
     33c:	0000067e 	andeq	r0, r0, lr, ror r6
     340:	01da0772 	bicseq	r0, sl, r2, ror r7
     344:	07730000 	ldrbeq	r0, [r3, -r0]!
     348:	000002ef 	andeq	r0, r0, pc, ror #5
     34c:	08190774 	ldmdaeq	r9, {r2, r4, r5, r6, r8, r9, sl}
     350:	07750000 	ldrbeq	r0, [r5, -r0]!
     354:	00000944 	andeq	r0, r0, r4, asr #18
     358:	01bb0776 			; <UNDEFINED> instruction: 0x01bb0776
     35c:	07770000 	ldrbeq	r0, [r7, -r0]!
     360:	000002d0 	ldrdeq	r0, [r0], -r0	; <UNPREDICTABLE>
     364:	09dc0778 	ldmibeq	ip, {r3, r4, r5, r6, r8, r9, sl}^
     368:	07790000 	ldrbeq	r0, [r9, -r0]!
     36c:	00000449 	andeq	r0, r0, r9, asr #8
     370:	0824077a 	stmdaeq	r4!, {r1, r3, r4, r5, r6, r8, r9, sl}
     374:	077b0000 	ldrbeq	r0, [fp, -r0]!
     378:	00000214 	andeq	r0, r0, r4, lsl r2
     37c:	0101077c 	tsteq	r1, ip, ror r7
     380:	077d0000 	ldrbeq	r0, [sp, -r0]!
     384:	000007f2 	strdeq	r0, [r0], -r2
     388:	033c077e 	teqeq	ip, #33030144	; 0x1f80000
     38c:	077f0000 	ldrbeq	r0, [pc, -r0]!
     390:	0000098d 	andeq	r0, r0, sp, lsl #19
     394:	03220780 			; <UNDEFINED> instruction: 0x03220780
     398:	07810000 	streq	r0, [r1, r0]
     39c:	000004a1 	andeq	r0, r0, r1, lsr #9
     3a0:	03750782 	cmneq	r5, #34078720	; 0x2080000
     3a4:	07830000 	streq	r0, [r3, r0]
     3a8:	0000075d 	andeq	r0, r0, sp, asr r7
     3ac:	084c0784 	stmdaeq	ip, {r2, r7, r8, r9, sl}^
     3b0:	07850000 	streq	r0, [r5, r0]
     3b4:	000001c9 	andeq	r0, r0, r9, asr #3
     3b8:	071e0786 	ldreq	r0, [lr, -r6, lsl #15]
     3bc:	07870000 	streq	r0, [r7, r0]
     3c0:	00000517 	andeq	r0, r0, r7, lsl r5
     3c4:	05030788 	streq	r0, [r3, #-1928]	; 0xfffff878
     3c8:	07890000 	streq	r0, [r9, r0]
     3cc:	0000070a 	andeq	r0, r0, sl, lsl #14
     3d0:	017f078a 	cmneq	pc, sl, lsl #15
     3d4:	078b0000 	streq	r0, [fp, r0]
     3d8:	00000021 	andeq	r0, r0, r1, lsr #32
     3dc:	07bd078c 	ldreq	r0, [sp, ip, lsl #15]!
     3e0:	078d0000 	streq	r0, [sp, r0]
     3e4:	000003f3 	strdeq	r0, [r0], -r3
     3e8:	06a9078e 	strteq	r0, [r9], lr, lsl #15
     3ec:	078f0000 	streq	r0, [pc, r0]
     3f0:	000007d3 	ldrdeq	r0, [r0], -r3
     3f4:	094e0790 	stmdbeq	lr, {r4, r7, r8, r9, sl}^
     3f8:	07910000 	ldreq	r0, [r1, r0]
     3fc:	0000000c 	andeq	r0, r0, ip
     400:	041a0792 	ldreq	r0, [sl], #-1938	; 0xfffff86e
     404:	07930000 	ldreq	r0, [r3, r0]
     408:	00000620 	andeq	r0, r0, r0, lsr #12
     40c:	07670794 			; <UNDEFINED> instruction: 0x07670794
     410:	07950000 	ldreq	r0, [r5, r0]
     414:	000003cd 	andeq	r0, r0, sp, asr #7
     418:	01a10796 			; <UNDEFINED> instruction: 0x01a10796
     41c:	07970000 	ldreq	r0, [r7, r0]
     420:	00000520 	andeq	r0, r0, r0, lsr #10
     424:	09cc0798 	stmibeq	ip, {r3, r4, r7, r8, r9, sl}^
     428:	07990000 	ldreq	r0, [r9, r0]
     42c:	00000578 	andeq	r0, r0, r8, ror r5
     430:	074c079a 			; <UNDEFINED> instruction: 0x074c079a
     434:	079b0000 	ldreq	r0, [fp, r0]
     438:	00000859 	andeq	r0, r0, r9, asr r8
     43c:	099f079c 	ldmibeq	pc, {r2, r3, r4, r7, r8, r9, sl}	; <UNPREDICTABLE>
     440:	079d0000 	ldreq	r0, [sp, r0]
     444:	000002de 	ldrdeq	r0, [r0], -lr
     448:	0057079e 			; <UNDEFINED> instruction: 0x0057079e
     44c:	009f0000 	addseq	r0, pc, r0
     450:	bb070402 	bllt	1c1460 <shift+0x1c1460>
     454:	08000009 	stmdaeq	r0, {r0, r3}
     458:	0000040b 	andeq	r0, r0, fp, lsl #8
     45c:	48130210 	ldmdami	r3, {r4, r9}
     460:	09000004 	stmdbeq	r0, {r2}
     464:	0000095f 	andeq	r0, r0, pc, asr r9
     468:	00251402 	eoreq	r1, r5, r2, lsl #8
     46c:	09000000 	stmdbeq	r0, {}	; <UNPREDICTABLE>
     470:	00000675 	andeq	r0, r0, r5, ror r6
     474:	00251502 	eoreq	r1, r5, r2, lsl #10
     478:	09040000 	stmdbeq	r4, {}	; <UNPREDICTABLE>
     47c:	000009c4 	andeq	r0, r0, r4, asr #19
     480:	00251602 	eoreq	r1, r5, r2, lsl #12
     484:	09080000 	stmdbeq	r8, {}	; <UNPREDICTABLE>
     488:	0000077c 	andeq	r0, r0, ip, ror r7
     48c:	00251702 	eoreq	r1, r5, r2, lsl #14
     490:	000c0000 	andeq	r0, ip, r0
     494:	0006410a 	andeq	r4, r6, sl, lsl #2
     498:	0b180200 	bleq	600ca0 <shift+0x600ca0>
     49c:	0b000004 	bleq	4b4 <shift+0x4b4>
     4a0:	00000a2c 	andeq	r0, r0, ip, lsr #20
     4a4:	00481001 	subeq	r1, r8, r1
     4a8:	133c0000 	teqne	ip, #0
     4ac:	00d08010 	sbcseq	r8, r0, r0, lsl r0
     4b0:	9c010000 	stcls	0, cr0, [r1], {-0}
     4b4:	000005b1 			; <UNDEFINED> instruction: 0x000005b1
     4b8:	000bbf0c 	andeq	fp, fp, ip, lsl #30
     4bc:	481d0100 	ldmdami	sp, {r8}
     4c0:	02000004 	andeq	r0, r0, #4
     4c4:	720d5891 	andvc	r5, sp, #9502720	; 0x910000
     4c8:	01007465 	tsteq	r0, r5, ror #8
     4cc:	0000481e 	andeq	r4, r0, lr, lsl r8
     4d0:	00000000 	andeq	r0, r0, r0
     4d4:	00690d00 	rsbeq	r0, r9, r0, lsl #26
     4d8:	00481e01 	subeq	r1, r8, r1, lsl #28
     4dc:	00340000 	eorseq	r0, r4, r0
     4e0:	b10e0000 	mrslt	r0, (UNDEF: 14)
     4e4:	e2000005 	and	r0, r0, #5
     4e8:	1e801013 	mcrne	0, 4, r1, cr0, cr3, {0}
     4ec:	01000000 	mrseq	r0, (UNDEF: 0)
     4f0:	0004bc2b 	andeq	fp, r4, fp, lsr #24
     4f4:	13e20f00 	mvnne	r0, #0, 30
     4f8:	001e8010 	andseq	r8, lr, r0, lsl r0
     4fc:	bd100000 	ldclt	0, cr0, [r0, #-0]
     500:	02000005 	andeq	r0, r0, #5
     504:	00005491 	muleq	r0, r1, r4
     508:	10134611 	andsne	r4, r3, r1, lsl r6
     50c:	0005c780 	andeq	ip, r5, r0, lsl #15
     510:	13521100 	cmpne	r2, #0, 2
     514:	05d28010 	ldrbeq	r8, [r2, #16]
     518:	56110000 	ldrpl	r0, [r1], -r0
     51c:	dd801013 	stcle	0, cr1, [r0, #76]	; 0x4c
     520:	11000005 	tstne	r0, r5
     524:	8010135a 	andshi	r1, r0, sl, asr r3
     528:	000005e8 	andeq	r0, r0, r8, ror #11
     52c:	10135e11 	andsne	r5, r3, r1, lsl lr
     530:	0005f380 	andeq	pc, r5, r0, lsl #7
     534:	13621100 	cmnne	r2, #0, 2
     538:	05fe8010 	ldrbeq	r8, [lr, #16]!
     53c:	66110000 	ldrvs	r0, [r1], -r0
     540:	09801013 	stmibeq	r0, {r0, r1, r4, ip}
     544:	12000006 	andne	r0, r0, #6
     548:	80101376 	andshi	r1, r0, r6, ror r3
     54c:	00000614 	andeq	r0, r0, r4, lsl r6
     550:	00000514 	andeq	r0, r0, r4, lsl r5
     554:	02500113 	subseq	r0, r0, #-1073741820	; 0xc0000004
     558:	01136a08 	tsteq	r3, r8, lsl #20
     55c:	00300152 	eorseq	r0, r0, r2, asr r1
     560:	10139812 	andsne	r9, r3, r2, lsl r8
     564:	00061480 	andeq	r1, r6, r0, lsl #9
     568:	00052d00 	andeq	r2, r5, r0, lsl #26
     56c:	50011300 	andpl	r1, r1, r0, lsl #6
     570:	13690802 	cmnne	r9, #131072	; 0x20000
     574:	30015201 	andcc	r5, r1, r1, lsl #4
     578:	139c1100 	orrsne	r1, ip, #0, 2
     57c:	061f8010 			; <UNDEFINED> instruction: 0x061f8010
     580:	aa120000 	bge	480588 <shift+0x480588>
     584:	2a801013 	bcs	fe0045d8 <__bss_end+0x7df029c4>
     588:	4d000006 	stcmi	0, cr0, [r0, #-24]	; 0xffffffe8
     58c:	13000005 	movwne	r0, #5
     590:	03055001 	movweq	r5, #20481	; 0x5001
     594:	8010140c 	andshi	r1, r0, ip, lsl #8
     598:	13b41200 			; <UNDEFINED> instruction: 0x13b41200
     59c:	06358010 			; <UNDEFINED> instruction: 0x06358010
     5a0:	05610000 	strbeq	r0, [r1, #-0]!
     5a4:	01130000 	tsteq	r3, r0
     5a8:	58910250 	ldmpl	r1, {r4, r6, r9}
     5ac:	13c41200 	bicne	r1, r4, #0, 4
     5b0:	062a8010 			; <UNDEFINED> instruction: 0x062a8010
     5b4:	05750000 	ldrbeq	r0, [r5, #-0]!
     5b8:	01130000 	tsteq	r3, r0
     5bc:	00770250 	rsbseq	r0, r7, r0, asr r2
     5c0:	13cc1200 	bicne	r1, ip, #0, 4
     5c4:	062a8010 			; <UNDEFINED> instruction: 0x062a8010
     5c8:	05890000 	streq	r0, [r9]
     5cc:	01130000 	tsteq	r3, r0
     5d0:	00760250 	rsbseq	r0, r6, r0, asr r2
     5d4:	13d41200 	bicsne	r1, r4, #0, 4
     5d8:	062a8010 			; <UNDEFINED> instruction: 0x062a8010
     5dc:	059d0000 	ldreq	r0, [sp]
     5e0:	01130000 	tsteq	r3, r0
     5e4:	00750250 	rsbseq	r0, r5, r0, asr r2
     5e8:	13e21400 	mvnne	r1, #0, 8
     5ec:	062a8010 			; <UNDEFINED> instruction: 0x062a8010
     5f0:	01130000 	tsteq	r3, r0
     5f4:	64030550 	strvs	r0, [r3], #-1360	; 0xfffffab0
     5f8:	00801014 	addeq	r1, r0, r4, lsl r0
     5fc:	00fb1500 	rscseq	r1, fp, r0, lsl #10
     600:	0a010000 	beq	40608 <shift+0x40608>
     604:	0005c703 	andeq	ip, r5, r3, lsl #14
     608:	00691600 	rsbeq	r1, r9, r0, lsl #12
     60c:	004f0c01 	subeq	r0, pc, r1, lsl #24
     610:	17000000 	strne	r0, [r0, -r0]
     614:	00000a5c 	andeq	r0, r0, ip, asr sl
     618:	00000a5c 	andeq	r0, r0, ip, asr sl
     61c:	3a171103 	bcc	5c4a30 <shift+0x5c4a30>
     620:	3a000002 	bcc	630 <shift+0x630>
     624:	04000002 	streq	r0, [r0], #-2
     628:	08a61704 	stmiaeq	r6!, {r2, r8, r9, sl, ip}
     62c:	08a60000 	stmiaeq	r6!, {}	; <UNPREDICTABLE>
     630:	16050000 	strne	r0, [r5], -r0
     634:	0002b817 	andeq	fp, r2, r7, lsl r8
     638:	0002b800 	andeq	fp, r2, r0, lsl #16
     63c:	17080600 	strne	r0, [r8, -r0, lsl #12]
     640:	000006e0 	andeq	r0, r0, r0, ror #13
     644:	000006e0 	andeq	r0, r0, r0, ror #13
     648:	a7170407 	ldrge	r0, [r7, -r7, lsl #8]
     64c:	a7000002 	strge	r0, [r0, -r2]
     650:	08000002 	stmdaeq	r0, {r1}
     654:	080b1706 	stmdaeq	fp, {r1, r2, r8, r9, sl, ip}
     658:	080b0000 	stmdaeq	fp, {}	; <UNPREDICTABLE>
     65c:	1e020000 	cdpne	0, 0, cr0, cr2, cr0, {0}
     660:	00000017 	andeq	r0, r0, r7, lsl r0
     664:	00000000 	andeq	r0, r0, r0
     668:	17100300 	ldrne	r0, [r0, -r0, lsl #6]
     66c:	0000004a 	andeq	r0, r0, sl, asr #32
     670:	0000004a 	andeq	r0, r0, sl, asr #32
     674:	fd171b02 	ldc2	11, cr1, [r7, #-8]	; <UNPREDICTABLE>
     678:	fd000011 	stc2	0, cr0, [r0, #-68]	; 0xffffffbc
     67c:	09000011 	stmdbeq	r0, {r0, r4}
     680:	0547171b 	strbeq	r1, [r7, #-1819]	; 0xfffff8e5
     684:	05470000 	strbeq	r0, [r7, #-0]
     688:	1c020000 	stcne	0, cr0, [r2], {-0}
     68c:	0001ab00 	andeq	sl, r1, r0, lsl #22
     690:	50000400 	andpl	r0, r0, r0, lsl #8
     694:	04000001 	streq	r0, [r0], #-1
     698:	00058901 	andeq	r8, r5, r1, lsl #18
     69c:	0ac20c00 	beq	ff0836a4 <__bss_end+0x7ef81a90>
     6a0:	00a50000 	adceq	r0, r5, r0
     6a4:	017c0000 	cmneq	ip, r0
     6a8:	008c8010 	addeq	r8, ip, r0, lsl r0
     6ac:	01850000 	orreq	r0, r5, r0
     6b0:	20020000 	andcs	r0, r2, r0
     6b4:	008e1202 	addeq	r1, lr, r2, lsl #4
     6b8:	22030000 	andcs	r0, r3, #0
     6bc:	0200000b 	andeq	r0, r0, #11
     6c0:	00008e13 	andeq	r8, r0, r3, lsl lr
     6c4:	0f030000 	svceq	0x00030000
     6c8:	0200000b 	andeq	r0, r0, #11
     6cc:	00008e14 	andeq	r8, r0, r4, lsl lr
     6d0:	19030400 	stmdbne	r3, {sl}
     6d4:	0200000b 	andeq	r0, r0, #11
     6d8:	00008e15 	andeq	r8, r0, r5, lsl lr
     6dc:	93030800 	movwls	r0, #14336	; 0x3800
     6e0:	0200000a 	andeq	r0, r0, #10
     6e4:	00008e16 	andeq	r8, r0, r6, lsl lr
     6e8:	9d030c00 	stcls	12, cr0, [r3, #-0]
     6ec:	0200000a 	andeq	r0, r0, #10
     6f0:	00008e17 	andeq	r8, r0, r7, lsl lr
     6f4:	a7031000 	strge	r1, [r3, -r0]
     6f8:	0200000a 	andeq	r0, r0, #10
     6fc:	00008e18 	andeq	r8, r0, r8, lsl lr
     700:	c8031400 	stmdagt	r3, {sl, ip}
     704:	0200000a 	andeq	r0, r0, #10
     708:	00008e19 	andeq	r8, r0, r9, lsl lr
     70c:	d7031800 	strle	r1, [r3, -r0, lsl #16]
     710:	0200000a 	andeq	r0, r0, #10
     714:	00008e1a 	andeq	r8, r0, sl, lsl lr
     718:	04001c00 	streq	r1, [r0], #-3072	; 0xfffff400
     71c:	008a0704 	addeq	r0, sl, r4, lsl #14
     720:	02050000 	andeq	r0, r5, #0
     724:	0200000b 	andeq	r0, r0, #11
     728:	0000251b 	andeq	r2, r0, fp, lsl r5
     72c:	0ae50600 	beq	ff941f34 <__bss_end+0x7f840320>
     730:	8e040000 	cdphi	0, 0, cr0, cr4, cr0, {0}
     734:	03000000 	movweq	r0, #0
     738:	0000c307 	andeq	ip, r0, r7, lsl #6
     73c:	0ad10700 	beq	ff442344 <__bss_end+0x7f340730>
     740:	07000000 	streq	r0, [r0, -r0]
     744:	00000b2a 	andeq	r0, r0, sl, lsr #22
     748:	0ab00701 	beq	fec02354 <__bss_end+0x7eb00740>
     74c:	00020000 	andeq	r0, r2, r0
     750:	31060104 	tstcc	r6, r4, lsl #2
     754:	04000007 	streq	r0, [r0], #-7
     758:	072f0801 	streq	r0, [pc, -r1, lsl #16]!
     75c:	02040000 	andeq	r0, r4, #0
     760:	00043f05 	andeq	r3, r4, r5, lsl #30
     764:	07020400 	streq	r0, [r2, -r0, lsl #8]
     768:	00000386 	andeq	r0, r0, r6, lsl #7
     76c:	69050408 	stmdbvs	r5, {r3, sl}
     770:	0400746e 	streq	r7, [r0], #-1134	; 0xfffffb92
     774:	014f0508 	cmpeq	pc, r8, lsl #10
     778:	08040000 	stmdaeq	r4, {}	; <UNPREDICTABLE>
     77c:	00008007 	andeq	r8, r0, r7
     780:	07040400 	streq	r0, [r4, -r0, lsl #8]
     784:	000009bb 			; <UNDEFINED> instruction: 0x000009bb
     788:	000b3109 	andeq	r3, fp, r9, lsl #2
     78c:	0c050100 	stfeqs	f0, [r5], {-0}
     790:	05000001 	streq	r0, [r0, #-1]
     794:	1015fc03 	andsne	pc, r5, r3, lsl #24
     798:	95040a80 	strls	r0, [r4, #-2688]	; 0xfffff580
     79c:	0b000000 	bleq	7a4 <shift+0x7a4>
     7a0:	00000a65 	andeq	r0, r0, r5, ror #20
     7a4:	01f42101 	mvnseq	r2, r1, lsl #2
     7a8:	00148010 	andseq	r8, r4, r0, lsl r0
     7ac:	9c010000 	stcls	0, cr0, [r1], {-0}
     7b0:	000a860b 	andeq	r8, sl, fp, lsl #12
     7b4:	e01c0100 	ands	r0, ip, r0, lsl #2
     7b8:	14801001 	strne	r1, [r0], #1
     7bc:	01000000 	mrseq	r0, (UNDEF: 0)
     7c0:	0aba0c9c 	beq	fee83a38 <__bss_end+0x7ed81e24>
     7c4:	10010000 	andne	r0, r1, r0
     7c8:	801001c0 	andshi	r0, r0, r0, asr #3
     7cc:	0000001e 	andeq	r0, r0, lr, lsl r0
     7d0:	01569c01 	cmpeq	r6, r1, lsl #24
     7d4:	6f0d0000 	svcvs	0x000d0000
     7d8:	1001006e 	andne	r0, r1, lr, rrx
     7dc:	000000df 	ldrdeq	r0, [r0], -pc	; <UNPREDICTABLE>
     7e0:	0c005001 	stceq	0, cr5, [r0], {1}
     7e4:	000006e0 	andeq	r0, r0, r0, ror #13
     7e8:	017c0701 	cmneq	ip, r1, lsl #14
     7ec:	00448010 	subeq	r8, r4, r0, lsl r0
     7f0:	9c010000 	stcls	0, cr0, [r1], {-0}
     7f4:	00000198 	muleq	r0, r8, r1
     7f8:	1001b20e 	andne	fp, r1, lr, lsl #4
     7fc:	00019880 	andeq	r9, r1, r0, lsl #17
     800:	00018300 	andeq	r8, r1, r0, lsl #6
     804:	51010f00 	tstpl	r1, r0, lsl #30
     808:	010f3301 	tsteq	pc, r1, lsl #6
     80c:	00310152 	eorseq	r0, r1, r2, asr r1
     810:	1001c010 	andne	ip, r1, r0, lsl r0
     814:	0001a380 	andeq	sl, r1, r0, lsl #7
     818:	51010f00 	tstpl	r1, r0, lsl #30
     81c:	010f3301 	tsteq	pc, r1, lsl #6
     820:	00310152 	eorseq	r0, r1, r2, asr r1
     824:	0af01100 	beq	ffc04c2c <__bss_end+0x7fb03018>
     828:	0af00000 	beq	ffc00830 <__bss_end+0x7fafec1c>
     82c:	17030000 	strne	r0, [r3, -r0]
     830:	000a7311 	andeq	r7, sl, r1, lsl r3
     834:	000a7300 	andeq	r7, sl, r0, lsl #6
     838:	00190300 	andseq	r0, r9, r0, lsl #6
     83c:	00000216 	andeq	r0, r0, r6, lsl r2
     840:	02500004 	subseq	r0, r0, #4
     844:	01040000 	mrseq	r0, (UNDEF: 4)
     848:	00000589 	andeq	r0, r0, r9, lsl #11
     84c:	000b640c 	andeq	r6, fp, ip, lsl #8
     850:	0000a500 	andeq	sl, r0, r0, lsl #10
     854:	10020800 	andne	r0, r2, r0, lsl #16
     858:	0000b280 	andeq	fp, r0, r0, lsl #5
     85c:	0001f300 	andeq	pc, r1, r0, lsl #6
     860:	02200200 	eoreq	r0, r0, #0, 4
     864:	00008e12 	andeq	r8, r0, r2, lsl lr
     868:	0b220300 	bleq	881470 <shift+0x881470>
     86c:	13020000 	movwne	r0, #8192	; 0x2000
     870:	0000008e 	andeq	r0, r0, lr, lsl #1
     874:	0b0f0300 	bleq	3c147c <shift+0x3c147c>
     878:	14020000 	strne	r0, [r2], #-0
     87c:	0000008e 	andeq	r0, r0, lr, lsl #1
     880:	0b190304 	bleq	641498 <shift+0x641498>
     884:	15020000 	strne	r0, [r2, #-0]
     888:	0000008e 	andeq	r0, r0, lr, lsl #1
     88c:	0a930308 	beq	fe4c14b4 <__bss_end+0x7e3bf8a0>
     890:	16020000 	strne	r0, [r2], -r0
     894:	0000008e 	andeq	r0, r0, lr, lsl #1
     898:	0a9d030c 	beq	fe7414d0 <__bss_end+0x7e63f8bc>
     89c:	17020000 	strne	r0, [r2, -r0]
     8a0:	0000008e 	andeq	r0, r0, lr, lsl #1
     8a4:	0aa70310 	beq	fe9c14ec <__bss_end+0x7e8bf8d8>
     8a8:	18020000 	stmdane	r2, {}	; <UNPREDICTABLE>
     8ac:	0000008e 	andeq	r0, r0, lr, lsl #1
     8b0:	0ac80314 	beq	ff201508 <__bss_end+0x7f0ff8f4>
     8b4:	19020000 	stmdbne	r2, {}	; <UNPREDICTABLE>
     8b8:	0000008e 	andeq	r0, r0, lr, lsl #1
     8bc:	0ad70318 	beq	ff5c1524 <__bss_end+0x7f4bf910>
     8c0:	1a020000 	bne	808c8 <shift+0x808c8>
     8c4:	0000008e 	andeq	r0, r0, lr, lsl #1
     8c8:	0404001c 	streq	r0, [r4], #-28	; 0xffffffe4
     8cc:	00008a07 	andeq	r8, r0, r7, lsl #20
     8d0:	0b020500 	bleq	81cd8 <shift+0x81cd8>
     8d4:	1b020000 	blne	808dc <shift+0x808dc>
     8d8:	00000025 	andeq	r0, r0, r5, lsr #32
     8dc:	000ae506 	andeq	lr, sl, r6, lsl #10
     8e0:	008e0400 	addeq	r0, lr, r0, lsl #8
     8e4:	07030000 	streq	r0, [r3, -r0]
     8e8:	000000c3 	andeq	r0, r0, r3, asr #1
     8ec:	000ad107 	andeq	sp, sl, r7, lsl #2
     8f0:	2a070000 	bcs	1c08f8 <shift+0x1c08f8>
     8f4:	0100000b 	tsteq	r0, fp
     8f8:	000ab007 	andeq	fp, sl, r7
     8fc:	05000200 	streq	r0, [r0, #-512]	; 0xfffffe00
     900:	00000b3d 	andeq	r0, r0, sp, lsr fp
     904:	00a00b03 	adceq	r0, r0, r3, lsl #22
     908:	c5060000 	strgt	r0, [r6, #-0]
     90c:	0400000b 	streq	r0, [r0], #-11
     910:	0000008e 	andeq	r0, r0, lr, lsl #1
     914:	00f70d03 	rscseq	r0, r7, r3, lsl #26
     918:	49070000 	stmdbmi	r7, {}	; <UNPREDICTABLE>
     91c:	0000000b 	andeq	r0, r0, fp
     920:	000b8107 	andeq	r8, fp, r7, lsl #2
     924:	58070100 	stmdapl	r7, {r8}
     928:	0200000b 	andeq	r0, r0, #11
     92c:	000b6b07 	andeq	r6, fp, r7, lsl #22
     930:	05000300 	streq	r0, [r0, #-768]	; 0xfffffd00
     934:	00000b8c 	andeq	r0, r0, ip, lsl #23
     938:	00ce1203 	sbceq	r1, lr, r3, lsl #4
     93c:	b2080000 	andlt	r0, r8, #0
     940:	0100000b 	tsteq	r0, fp
     944:	00008e31 	andeq	r8, r0, r1, lsr lr
     948:	1002b000 	andne	fp, r2, r0
     94c:	00000a80 	andeq	r0, r0, r0, lsl #21
     950:	389c0100 	ldmcc	ip, {r8}
     954:	09000001 	stmdbeq	r0, {r0}
     958:	00000b9b 	muleq	r0, fp, fp
     95c:	01383101 	teqeq	r8, r1, lsl #2
     960:	008a0000 	addeq	r0, sl, r0
     964:	700a0000 	andvc	r0, sl, r0
     968:	01006e69 	tsteq	r0, r9, ror #28
     96c:	00008e31 	andeq	r8, r0, r1, lsr lr
     970:	00510100 	subseq	r0, r1, r0, lsl #2
     974:	0095040b 	addseq	r0, r5, fp, lsl #8
     978:	730c0000 	movwvc	r0, #49152	; 0xc000
     97c:	0100000a 	tsteq	r0, sl
     980:	1002982b 	andne	r9, r2, fp, lsr #16
     984:	00001880 	andeq	r1, r0, r0, lsl #17
     988:	7d9c0100 	ldfvcs	f0, [ip]
     98c:	0d000001 	stceq	0, cr0, [r0, #-4]
     990:	00000b9b 	muleq	r0, fp, fp
     994:	01382b01 	teqeq	r8, r1, lsl #22
     998:	50010000 	andpl	r0, r1, r0
     99c:	6e69700a 	cdpvs	0, 6, cr7, cr9, cr10, {0}
     9a0:	8e2b0100 	sufhie	f0, f3, f0
     9a4:	01000000 	mrseq	r0, (UNDEF: 0)
     9a8:	0b530951 	bleq	14c2ef4 <shift+0x14c2ef4>
     9ac:	2b010000 	blcs	409b4 <shift+0x409b4>
     9b0:	0000008e 	andeq	r0, r0, lr, lsl #1
     9b4:	000000ab 	andeq	r0, r0, fp, lsr #1
     9b8:	0ba10c00 	bleq	fe8439c0 <__bss_end+0x7e741dac>
     9bc:	1e010000 	cdpne	0, 0, cr0, cr1, cr0, {0}
     9c0:	8010025c 	andshi	r0, r0, ip, asr r2
     9c4:	0000003c 	andeq	r0, r0, ip, lsr r0
     9c8:	01cb9c01 	biceq	r9, fp, r1, lsl #24
     9cc:	9b0d0000 	blls	3409d4 <shift+0x3409d4>
     9d0:	0100000b 	tsteq	r0, fp
     9d4:	0001381e 	andeq	r3, r1, lr, lsl r8
     9d8:	0e500100 	rdfeqs	f0, f0, f0
     9dc:	006e6970 	rsbeq	r6, lr, r0, ror r9
     9e0:	008e1e01 	addeq	r1, lr, r1, lsl #28
     9e4:	00cc0000 	sbceq	r0, ip, r0
     9e8:	cb0d0000 	blgt	3409f0 <shift+0x3409f0>
     9ec:	0100000b 	tsteq	r0, fp
     9f0:	0000f71e 	andeq	pc, r0, lr, lsl r7	; <UNPREDICTABLE>
     9f4:	0f520100 	svceq	0x00520100
     9f8:	00000b78 	andeq	r0, r0, r8, ror fp
     9fc:	008e2001 	addeq	r2, lr, r1
     a00:	01130000 	tsteq	r3, r0
     a04:	08000000 	stmdaeq	r0, {}	; <UNPREDICTABLE>
     a08:	00000af0 	strdeq	r0, [r0], -r0	; <UNPREDICTABLE>
     a0c:	02120a01 	andseq	r0, r2, #4096	; 0x1000
     a10:	02080000 	andeq	r0, r8, #0
     a14:	00528010 	subseq	r8, r2, r0, lsl r0
     a18:	9c010000 	stcls	0, cr0, [r1], {-0}
     a1c:	00000212 	andeq	r0, r0, r2, lsl r2
     a20:	000b9b09 	andeq	r9, fp, r9, lsl #22
     a24:	380a0100 	stmdacc	sl, {r8}
     a28:	60000001 	andvs	r0, r0, r1
     a2c:	0e000001 	cdpeq	0, 0, cr0, cr0, cr1, {0}
     a30:	006e6970 	rsbeq	r6, lr, r0, ror r9
     a34:	008e0a01 	addeq	r0, lr, r1, lsl #20
     a38:	01b30000 			; <UNDEFINED> instruction: 0x01b30000
     a3c:	fd090000 	stc2	0, cr0, [r9, #-0]
     a40:	0100000a 	tsteq	r0, sl
     a44:	0000c30a 	andeq	ip, r0, sl, lsl #6
     a48:	0001df00 	andeq	sp, r1, r0, lsl #30
     a4c:	04100000 	ldreq	r0, [r0], #-0
     a50:	746e6905 	strbtvc	r6, [lr], #-2309	; 0xfffff6fb
     a54:	00f60000 	rscseq	r0, r6, r0
     a58:	00040000 	andeq	r0, r4, r0
     a5c:	00000347 	andeq	r0, r0, r7, asr #6
     a60:	05890104 	streq	r0, [r9, #260]	; 0x104
     a64:	f30c0000 	vhadd.u8	d0, d12, d0
     a68:	a500000b 	strge	r0, [r0, #-11]
     a6c:	bc000000 	stclt	0, cr0, [r0], {-0}
     a70:	3a801002 	bcc	fe004a80 <__bss_end+0x7df02e6c>
     a74:	85000001 	strhi	r0, [r0, #-1]
     a78:	02000002 	andeq	r0, r0, #2
     a7c:	0000023a 	andeq	r0, r0, sl, lsr r2
     a80:	02bc4001 	adcseq	r4, ip, #1
     a84:	013a8010 	teqeq	sl, r0, lsl r0
     a88:	9c010000 	stcls	0, cr0, [r1], {-0}
     a8c:	000000ae 	andeq	r0, r0, lr, lsr #1
     a90:	0000e503 	andeq	lr, r0, r3, lsl #10
     a94:	10033000 	andne	r3, r3, r0
     a98:	00001080 	andeq	r1, r0, r0, lsl #1
     a9c:	5d520100 	ldfple	f0, [r2, #-0]
     aa0:	04000000 	streq	r0, [r0], #-0
     aa4:	00000010 	andeq	r0, r0, r0, lsl r0
     aa8:	0000ed05 	andeq	lr, r0, r5, lsl #26
     aac:	00022400 	andeq	r2, r2, r0, lsl #8
     ab0:	06000000 	streq	r0, [r0], -r0
     ab4:	000000dd 	ldrdeq	r0, [r0], -sp
     ab8:	80100342 	andshi	r0, r0, r2, asr #6
     abc:	00000040 	andeq	r0, r0, r0, asr #32
     ac0:	d5065301 	strle	r5, [r6, #-769]	; 0xfffffcff
     ac4:	94000000 	strls	r0, [r0], #-0
     ac8:	70801003 	addvc	r1, r0, r3
     acc:	01000000 	mrseq	r0, (UNDEF: 0)
     ad0:	00b60354 	adcseq	r0, r6, r4, asr r3
     ad4:	03a60000 			; <UNDEFINED> instruction: 0x03a60000
     ad8:	00908010 	addseq	r8, r0, r0, lsl r0
     adc:	55010000 	strpl	r0, [r1, #-0]
     ae0:	0000009e 	muleq	r0, lr, r0
     ae4:	00009004 	andeq	r9, r0, r4
     ae8:	00c20500 	sbceq	r0, r2, r0, lsl #10
     aec:	02450000 	subeq	r0, r5, #0
     af0:	00000000 	andeq	r0, r0, r0
     af4:	0000ae06 	andeq	sl, r0, r6, lsl #28
     af8:	1003b600 	andne	fp, r3, r0, lsl #12
     afc:	0000b080 	andeq	fp, r0, r0, lsl #1
     b00:	00560100 	subseq	r0, r6, r0, lsl #2
     b04:	000c0007 	andeq	r0, ip, r7
     b08:	013a0100 	teqeq	sl, r0, lsl #2
     b0c:	000bd308 	andeq	sp, fp, r8, lsl #6
     b10:	012d0100 			; <UNDEFINED> instruction: 0x012d0100
     b14:	000000ce 	andeq	r0, r0, lr, asr #1
     b18:	67657209 	strbvs	r7, [r5, -r9, lsl #4]!
     b1c:	ce2f0100 	sufgte	f0, f7, f0
     b20:	00000000 	andeq	r0, r0, r0
     b24:	8a07040a 	bhi	1c1b54 <shift+0x1c1b54>
     b28:	07000000 	streq	r0, [r0, -r0]
     b2c:	00000c13 	andeq	r0, r0, r3, lsl ip
     b30:	07012301 	streq	r2, [r1, -r1, lsl #6]
     b34:	00000be1 	andeq	r0, r0, r1, ror #23
     b38:	0b011901 	bleq	46f44 <shift+0x46f44>
     b3c:	00000c28 	andeq	r0, r0, r8, lsr #24
     b40:	09010c01 	stmdbeq	r1, {r0, sl, fp}
     b44:	00676572 	rsbeq	r6, r7, r2, ror r5
     b48:	00ce0e01 	sbceq	r0, lr, r1, lsl #28
     b4c:	00000000 	andeq	r0, r0, r0
     b50:	00000273 	andeq	r0, r0, r3, ror r2
     b54:	03ec0004 	mvneq	r0, #4
     b58:	01040000 	mrseq	r0, (UNDEF: 4)
     b5c:	00000589 	andeq	r0, r0, r9, lsl #11
     b60:	000c690c 	andeq	r6, ip, ip, lsl #18
     b64:	0000a500 	andeq	sl, r0, r0, lsl #10
     b68:	1003f800 	andne	pc, r3, r0, lsl #16
     b6c:	0000b280 	andeq	fp, r0, r0, lsl #5
     b70:	00032f00 	andeq	r2, r3, r0, lsl #30
     b74:	06010200 	streq	r0, [r1], -r0, lsl #4
     b78:	00000731 	andeq	r0, r0, r1, lsr r7
     b7c:	00387503 	eorseq	r7, r8, r3, lsl #10
     b80:	00360f02 	eorseq	r0, r6, r2, lsl #30
     b84:	01020000 	mrseq	r0, (UNDEF: 2)
     b88:	00072f08 	andeq	r2, r7, r8, lsl #30
     b8c:	05020200 	streq	r0, [r2, #-512]	; 0xfffffe00
     b90:	0000043f 	andeq	r0, r0, pc, lsr r4
     b94:	86070202 	strhi	r0, [r7], -r2, lsl #4
     b98:	04000003 	streq	r0, [r0], #-3
     b9c:	6e690504 	cdpvs	5, 6, cr0, cr9, cr4, {0}
     ba0:	75030074 	strvc	r0, [r3, #-116]	; 0xffffff8c
     ba4:	02003233 	andeq	r3, r0, #805306371	; 0x30000003
     ba8:	00005d15 	andeq	r5, r0, r5, lsl sp
     bac:	07040200 	streq	r0, [r4, -r0, lsl #4]
     bb0:	0000008a 	andeq	r0, r0, sl, lsl #1
     bb4:	00005d05 	andeq	r5, r0, r5, lsl #26
     bb8:	05080200 	streq	r0, [r8, #-512]	; 0xfffffe00
     bbc:	0000014f 	andeq	r0, r0, pc, asr #2
     bc0:	80070802 	andhi	r0, r7, r2, lsl #16
     bc4:	06000000 	streq	r0, [r0], -r0
     bc8:	00000cac 	andeq	r0, r0, ip, lsr #25
     bcc:	002c1a02 	eoreq	r1, ip, r2, lsl #20
     bd0:	ef060000 	svc	0x00060000
     bd4:	0200000c 	andeq	r0, r0, #12
     bd8:	0000521e 	andeq	r5, r0, lr, lsl r2
     bdc:	00820500 	addeq	r0, r2, r0, lsl #10
     be0:	8d070000 	stchi	0, cr0, [r7, #-0]
     be4:	02000000 	andeq	r0, r0, #0
     be8:	09bb0704 	ldmibeq	fp!, {r2, r8, r9, sl}
     bec:	77080000 	strvc	r0, [r8, -r0]
     bf0:	ae000000 	cdpge	0, 0, cr0, cr0, cr0, {0}
     bf4:	09000000 	stmdbeq	r0, {}	; <UNPREDICTABLE>
     bf8:	00000097 	muleq	r0, r7, r0
     bfc:	bc0a003b 	stclt	0, cr0, [sl], {59}	; 0x3b
     c00:	af930303 	svcge	0x00930303
     c04:	0b000001 	bleq	c10 <shift+0xc10>
     c08:	00000c7d 	andeq	r0, r0, sp, ror ip
     c0c:	92930403 	addsls	r0, r3, #50331648	; 0x3000000
     c10:	00000000 	andeq	r0, r0, r0
     c14:	000d080b 	andeq	r0, sp, fp, lsl #16
     c18:	93050300 	movwls	r0, #21248	; 0x5300
     c1c:	0000009e 	muleq	r0, lr, r0
     c20:	0ca20b04 	vstmiaeq	r2!, {d0-d1}
     c24:	06030000 	streq	r0, [r3], -r0
     c28:	00008d93 	muleq	r0, r3, sp
     c2c:	130b4000 	movwne	r4, #45056	; 0xb000
     c30:	0300000d 	movweq	r0, #13
     c34:	009e9307 	addseq	r9, lr, r7, lsl #6
     c38:	0b440000 	bleq	1100c40 <shift+0x1100c40>
     c3c:	00000c82 	andeq	r0, r0, r2, lsl #25
     c40:	8d930803 	ldchi	8, cr0, [r3, #12]
     c44:	80000000 	andhi	r0, r0, r0
     c48:	000c870b 	andeq	r8, ip, fp, lsl #14
     c4c:	93090300 	movwls	r0, #37632	; 0x9300
     c50:	0000008d 	andeq	r0, r0, sp, lsl #1
     c54:	0c8c0b84 	vstmiaeq	ip, {d0-d1}
     c58:	0a030000 	beq	c0c60 <shift+0xc0c60>
     c5c:	00008d93 	muleq	r0, r3, sp
     c60:	910b8800 	tstls	fp, r0, lsl #16
     c64:	0300000c 	movweq	r0, #12
     c68:	008d930b 	addeq	r9, sp, fp, lsl #6
     c6c:	0b8c0000 	bleq	fe300c74 <__bss_end+0x7e1ff060>
     c70:	00000ce2 	andeq	r0, r0, r2, ror #25
     c74:	8d930c03 	ldchi	12, cr0, [r3, #12]
     c78:	90000000 	andls	r0, r0, r0
     c7c:	000cfe0b 	andeq	pc, ip, fp, lsl #28
     c80:	930d0300 	movwls	r0, #54016	; 0xd300
     c84:	0000008d 	andeq	r0, r0, sp, lsl #1
     c88:	0d030b94 	vstreq	d0, [r3, #-592]	; 0xfffffdb0
     c8c:	0e030000 	cdpeq	0, 0, cr0, cr3, cr0, {0}
     c90:	00008d93 	muleq	r0, r3, sp
     c94:	dd0b9800 	stcle	8, cr9, [fp, #-0]
     c98:	0300000c 	movweq	r0, #12
     c9c:	008d930f 	addeq	r9, sp, pc, lsl #6
     ca0:	0b9c0000 	bleq	fe700ca8 <__bss_end+0x7e5ff094>
     ca4:	00000ca7 	andeq	r0, r0, r7, lsr #25
     ca8:	8d931003 	ldchi	0, cr1, [r3, #12]
     cac:	a0000000 	andge	r0, r0, r0
     cb0:	000c9d0b 	andeq	r9, ip, fp, lsl #26
     cb4:	93110300 	tstls	r1, #0, 6
     cb8:	0000008d 	andeq	r0, r0, sp, lsl #1
     cbc:	0cb40ba4 	vldmiaeq	r4!, {d0-d17}
     cc0:	12030000 	andne	r0, r3, #0
     cc4:	00008d93 	muleq	r0, r3, sp
     cc8:	640ba800 	strvs	sl, [fp], #-2048	; 0xfffff800
     ccc:	0300000c 	movweq	r0, #12
     cd0:	00929313 	addseq	r9, r2, r3, lsl r3
     cd4:	0bac0000 	bleq	feb00cdc <__bss_end+0x7e9ff0c8>
     cd8:	00000cf8 	strdeq	r0, [r0], -r8
     cdc:	8d931403 	cfldrshi	mvf1, [r3, #12]
     ce0:	b0000000 	andlt	r0, r0, r0
     ce4:	5354550c 	cmppl	r4, #12, 10	; 0x3000000
     ce8:	93150300 	tstls	r5, #0, 6
     cec:	0000008d 	andeq	r0, r0, sp, lsl #1
     cf0:	0c700bb4 			; <UNDEFINED> instruction: 0x0c700bb4
     cf4:	16030000 	strne	r0, [r3], -r0
     cf8:	00008d93 	muleq	r0, r3, sp
     cfc:	0d00b800 	stceq	8, cr11, [r0, #-0]
     d00:	00000c5a 	andeq	r0, r0, sl, asr ip
     d04:	ae931703 	cdpge	7, 9, cr1, cr3, cr3, {0}
     d08:	0e000000 	cdpeq	0, 0, cr0, cr0, cr0, {0}
     d0c:	00000c36 	andeq	r0, r0, r6, lsr ip
     d10:	01c60401 	biceq	r0, r6, r1, lsl #8
     d14:	040f0000 	streq	r0, [pc], #-0	; d1c <shift+0xd1c>
     d18:	00000064 	andeq	r0, r0, r4, rrx
     d1c:	000cb90e 	andeq	fp, ip, lr, lsl #18
     d20:	c6050100 	strgt	r0, [r5], -r0, lsl #2
     d24:	10000001 	andne	r0, r0, r1
     d28:	00000c96 	muleq	r0, r6, ip
     d2c:	048c6f01 	streq	r6, [ip], #3841	; 0xf01
     d30:	001e8010 	andseq	r8, lr, r0, lsl r0
     d34:	9c010000 	stcls	0, cr0, [r1], {-0}
     d38:	0000020f 	andeq	r0, r0, pc, lsl #4
     d3c:	01007311 	tsteq	r0, r1, lsl r3
     d40:	00020f6f 	andeq	r0, r2, pc, ror #30
     d44:	00026600 	andeq	r6, r2, r0, lsl #12
     d48:	02361200 	eorseq	r1, r6, #0, 4
     d4c:	04900000 	ldreq	r0, [r0], #0
     d50:	00108010 	andseq	r8, r0, r0, lsl r0
     d54:	73010000 	movwvc	r0, #4096	; 0x1000
     d58:	00024213 	andeq	r4, r2, r3, lsl r2
     d5c:	0f000000 	svceq	0x00000000
     d60:	00021c04 	andeq	r1, r2, r4, lsl #24
     d64:	08010200 	stmdaeq	r1, {r9}
     d68:	00000738 	andeq	r0, r0, r8, lsr r7
     d6c:	00021507 	andeq	r1, r2, r7, lsl #10
     d70:	0c751400 	cfldrdeq	mvd1, [r5], #-0
     d74:	5f010000 	svcpl	0x00010000
     d78:	00000036 	andeq	r0, r0, r6, lsr r0
     d7c:	80100478 	andshi	r0, r0, r8, ror r4
     d80:	00000014 	andeq	r0, r0, r4, lsl r0
     d84:	e7159c01 	ldr	r9, [r5, -r1, lsl #24]
     d88:	0100000c 	tsteq	r0, ip
     d8c:	024c014f 	subeq	r0, ip, #-1073741805	; 0xc0000013
     d90:	63160000 	tstvs	r6, #0
     d94:	4b4f0100 	blmi	13c119c <shift+0x13c119c>
     d98:	00000000 	andeq	r0, r0, r0
     d9c:	0008a617 	andeq	sl, r8, r7, lsl r6
     da0:	f8110100 			; <UNDEFINED> instruction: 0xf8110100
     da4:	6a801003 	bvs	fe004db8 <__bss_end+0x7df031a4>
     da8:	01000000 	mrseq	r0, (UNDEF: 0)
     dac:	0236189c 	eorseq	r1, r6, #156, 16	; 0x9c0000
     db0:	04640000 	strbteq	r0, [r4], #-0
     db4:	00148010 	andseq	r8, r4, r0, lsl r0
     db8:	9c010000 	stcls	0, cr0, [r1], {-0}
     dbc:	00024219 	andeq	r4, r2, r9, lsl r2
     dc0:	00029100 	andeq	r9, r2, r0, lsl #2
     dc4:	a1000000 	mrsge	r0, (UNDEF: 0)
     dc8:	0400000c 	streq	r0, [r0], #-12
     dcc:	00054800 	andeq	r4, r5, r0, lsl #16
     dd0:	89010400 	stmdbhi	r1, {sl}
     dd4:	0c000005 	stceq	0, cr0, [r0], {5}
     dd8:	00000d1e 	andeq	r0, r0, lr, lsl sp
     ddc:	000000a5 	andeq	r0, r0, r5, lsr #1
     de0:	801004ac 	andshi	r0, r0, ip, lsr #9
     de4:	00000118 	andeq	r0, r0, r8, lsl r1
     de8:	000003d3 	ldrdeq	r0, [r0], -r3
     dec:	8a070402 	bhi	1c1dfc <shift+0x1c1dfc>
     df0:	02000000 	andeq	r0, r0, #0
     df4:	07310601 	ldreq	r0, [r1, -r1, lsl #12]!
     df8:	75030000 	strvc	r0, [r3, #-0]
     dfc:	0f020038 	svceq	0x00020038
     e00:	0000003d 	andeq	r0, r0, sp, lsr r0
     e04:	2f080102 	svccs	0x00080102
     e08:	02000007 	andeq	r0, r0, #7
     e0c:	043f0502 	ldrteq	r0, [pc], #-1282	; e14 <shift+0xe14>
     e10:	02020000 	andeq	r0, r2, #0
     e14:	00038607 	andeq	r8, r3, r7, lsl #12
     e18:	05040400 	streq	r0, [r4, #-1024]	; 0xfffffc00
     e1c:	00746e69 	rsbseq	r6, r4, r9, ror #28
     e20:	32337503 	eorscc	r7, r3, #12582912	; 0xc00000
     e24:	25150200 	ldrcs	r0, [r5, #-512]	; 0xfffffe00
     e28:	02000000 	andeq	r0, r0, #0
     e2c:	014f0508 	cmpeq	pc, r8, lsl #10
     e30:	08020000 	stmdaeq	r2, {}	; <UNPREDICTABLE>
     e34:	00008007 	andeq	r8, r0, r7
     e38:	0cac0500 	cfstr32eq	mvfx0, [ip]
     e3c:	1a020000 	bne	80e44 <shift+0x80e44>
     e40:	00000033 	andeq	r0, r0, r3, lsr r0
     e44:	00007206 	andeq	r7, r0, r6, lsl #4
     e48:	0cef0500 	cfstr64eq	mvdx0, [pc]	; e50 <shift+0xe50>
     e4c:	1e020000 	cdpne	0, 0, cr0, cr2, cr0, {0}
     e50:	00000059 	andeq	r0, r0, r9, asr r0
     e54:	00008206 	andeq	r8, r0, r6, lsl #4
     e58:	008d0700 	addeq	r0, sp, r0, lsl #14
     e5c:	ae080000 	cdpge	0, 0, cr0, cr8, cr0, {0}
     e60:	04000003 	streq	r0, [r0], #-3
     e64:	00000052 	andeq	r0, r0, r2, asr r0
     e68:	04395c03 	ldrteq	r5, [r9], #-3075	; 0xfffff3fd
     e6c:	6b090000 	blvs	240e74 <shift+0x240e74>
     e70:	80000004 	andhi	r0, r0, r4
     e74:	09670a7f 	stmdbeq	r7!, {r0, r1, r2, r3, r4, r5, r6, r9, fp}^
     e78:	0a000000 	beq	e80 <shift+0xe80>
     e7c:	000002c1 	andeq	r0, r0, r1, asr #5
     e80:	04300a01 	ldrteq	r0, [r0], #-2561	; 0xfffff5ff
     e84:	0a020000 	beq	80e8c <shift+0x80e8c>
     e88:	00000666 	andeq	r0, r0, r6, ror #12
     e8c:	0a3d0a03 	beq	f436a0 <shift+0xf436a0>
     e90:	0a040000 	beq	100e98 <shift+0x100e98>
     e94:	000000ec 	andeq	r0, r0, ip, ror #1
     e98:	01f40a05 	mvnseq	r0, r5, lsl #20
     e9c:	0a060000 	beq	180ea4 <shift+0x180ea4>
     ea0:	0000073d 	andeq	r0, r0, sp, lsr r7
     ea4:	083d0a07 	ldmdaeq	sp!, {r0, r1, r2, r9, fp}
     ea8:	0a080000 	beq	200eb0 <shift+0x200eb0>
     eac:	0000078a 	andeq	r0, r0, sl, lsl #15
     eb0:	02870a09 	addeq	r0, r7, #36864	; 0x9000
     eb4:	0a0a0000 	beq	280ebc <shift+0x280ebc>
     eb8:	000000cc 	andeq	r0, r0, ip, asr #1
     ebc:	01e40a0b 	mvneq	r0, fp, lsl #20
     ec0:	0a0c0000 	beq	300ec8 <shift+0x300ec8>
     ec4:	00000312 	andeq	r0, r0, r2, lsl r3
     ec8:	082d0a0d 	stmdaeq	sp!, {r0, r2, r3, r9, fp}
     ecc:	0a0e0000 	beq	380ed4 <shift+0x380ed4>
     ed0:	00000a4c 	andeq	r0, r0, ip, asr #20
     ed4:	01120a0f 	tsteq	r2, pc, lsl #20
     ed8:	0a190000 	beq	640ee0 <shift+0x640ee0>
     edc:	00000651 	andeq	r0, r0, r1, asr r6
     ee0:	06b30a1a 	ssateq	r0, #20, sl, lsl #20
     ee4:	0a1b0000 	beq	6c0eec <shift+0x6c0eec>
     ee8:	00000554 	andeq	r0, r0, r4, asr r5
     eec:	09790a1c 	ldmdbeq	r9!, {r2, r3, r4, r9, fp}^
     ef0:	0a1d0000 	beq	740ef8 <shift+0x740ef8>
     ef4:	00000976 	andeq	r0, r0, r6, ror r9
     ef8:	03d80a1e 	bicseq	r0, r8, #122880	; 0x1e000
     efc:	0a1f0000 	beq	7c0f04 <shift+0x7c0f04>
     f00:	000007c7 	andeq	r0, r0, r7, asr #15
     f04:	08d30a20 	ldmeq	r3, {r5, r9, fp}^
     f08:	0a210000 	beq	840f10 <shift+0x840f10>
     f0c:	0000025a 	andeq	r0, r0, sl, asr r2
     f10:	015d0a22 	cmpeq	sp, r2, lsr #20
     f14:	0a230000 	beq	8c0f1c <shift+0x8c0f1c>
     f18:	000001b1 			; <UNDEFINED> instruction: 0x000001b1
     f1c:	04dd0a24 	ldrbeq	r0, [sp], #2596	; 0xa24
     f20:	0a250000 	beq	940f28 <shift+0x940f28>
     f24:	00000189 	andeq	r0, r0, r9, lsl #3
     f28:	002c0a26 	eoreq	r0, ip, r6, lsr #20
     f2c:	0a270000 	beq	9c0f34 <shift+0x9c0f34>
     f30:	000006d2 	ldrdeq	r0, [r0], -r2
     f34:	02f90a28 	rscseq	r0, r9, #40, 20	; 0x28000
     f38:	0a290000 	beq	a40f40 <shift+0xa40f40>
     f3c:	00000484 	andeq	r0, r0, r4, lsl #9
     f40:	04e80a2a 	strbteq	r0, [r8], #2602	; 0xa2a
     f44:	0a2b0000 	beq	ac0f4c <shift+0xac0f4c>
     f48:	000000dc 	ldrdeq	r0, [r0], -ip
     f4c:	00400a2c 	subeq	r0, r0, ip, lsr #20
     f50:	0a2d0000 	beq	b40f58 <shift+0xb40f58>
     f54:	00000929 	andeq	r0, r0, r9, lsr #18
     f58:	06e90a2e 	strbteq	r0, [r9], lr, lsr #20
     f5c:	0a2f0000 	beq	bc0f64 <shift+0xbc0f64>
     f60:	000009f0 	strdeq	r0, [r0], -r0	; <UNPREDICTABLE>
     f64:	08820a30 	stmeq	r2, {r4, r5, r9, fp}
     f68:	0a310000 	beq	c40f70 <shift+0xc40f70>
     f6c:	000007e4 	andeq	r0, r0, r4, ror #15
     f70:	062a0a32 			; <UNDEFINED> instruction: 0x062a0a32
     f74:	0a330000 	beq	cc0f7c <shift+0xcc0f7c>
     f78:	00000264 	andeq	r0, r0, r4, ror #4
     f7c:	03990a34 	orrseq	r0, r9, #52, 20	; 0x34000
     f80:	0a350000 	beq	d40f88 <shift+0xd40f88>
     f84:	00000424 	andeq	r0, r0, r4, lsr #8
     f88:	08fa0a36 	ldmeq	sl!, {r1, r2, r4, r5, r9, fp}^
     f8c:	0a370000 	beq	dc0f94 <shift+0xdc0f94>
     f90:	00000692 	muleq	r0, r2, r6
     f94:	06c50a38 			; <UNDEFINED> instruction: 0x06c50a38
     f98:	0a390000 	beq	e40fa0 <shift+0xe40fa0>
     f9c:	00000687 	andeq	r0, r0, r7, lsl #13
     fa0:	00160a3a 	andseq	r0, r6, sl, lsr sl
     fa4:	0a3b0000 	beq	ec0fac <shift+0xec0fac>
     fa8:	00000144 	andeq	r0, r0, r4, asr #2
     fac:	022f0a3c 	eoreq	r0, pc, #60, 20	; 0x3c000
     fb0:	0a3d0000 	beq	f40fb8 <shift+0xf40fb8>
     fb4:	00000771 	andeq	r0, r0, r1, ror r7
     fb8:	090d0a3e 	stmdbeq	sp, {r1, r2, r3, r4, r5, r9, fp}
     fbc:	0a3f0000 	beq	fc0fc4 <shift+0xfc0fc4>
     fc0:	00000a31 	andeq	r0, r0, r1, lsr sl
     fc4:	03e70a40 	mvneq	r0, #64, 20	; 0x40000
     fc8:	0a410000 	beq	1040fd0 <shift+0x1040fd0>
     fcc:	0000053b 	andeq	r0, r0, fp, lsr r5
     fd0:	03510a42 	cmpeq	r1, #270336	; 0x42000
     fd4:	0a430000 	beq	10c0fdc <shift+0x10c0fdc>
     fd8:	00000799 	muleq	r0, r9, r7
     fdc:	08c90a44 	stmiaeq	r9, {r2, r6, r9, fp}^
     fe0:	0a450000 	beq	1140fe8 <shift+0x1140fe8>
     fe4:	00000225 	andeq	r0, r0, r5, lsr #4
     fe8:	00c10a46 	sbceq	r0, r1, r6, asr #20
     fec:	0a470000 	beq	11c0ff4 <shift+0x11c0ff4>
     ff0:	00000035 	andeq	r0, r0, r5, lsr r0
     ff4:	052b0a48 	streq	r0, [fp, #-2632]!	; 0xfffff5b8
     ff8:	0a490000 	beq	1241000 <shift+0x1241000>
     ffc:	000008ec 	andeq	r0, r0, ip, ror #17
    1000:	03fd0a4a 	mvnseq	r0, #303104	; 0x4a000
    1004:	0a4b0000 	beq	12c100c <shift+0x12c100c>
    1008:	00000493 	muleq	r0, r3, r4
    100c:	00970a4c 	addseq	r0, r7, ip, asr #20
    1010:	0a4d0000 	beq	1341018 <shift+0x1341018>
    1014:	00000875 	andeq	r0, r0, r5, ror r8
    1018:	060f0a4e 	streq	r0, [pc], -lr, asr #20
    101c:	0a4f0000 	beq	13c1024 <shift+0x13c1024>
    1020:	00000567 	andeq	r0, r0, r7, ror #10
    1024:	024d0a50 	subeq	r0, sp, #80, 20	; 0x50000
    1028:	0a510000 	beq	1441030 <shift+0x1441030>
    102c:	00000823 	andeq	r0, r0, r3, lsr #16
    1030:	03080a52 	movweq	r0, #35410	; 0x8a52
    1034:	0a530000 	beq	14c103c <shift+0x14c103c>
    1038:	00000479 	andeq	r0, r0, r9, ror r4
    103c:	02770a54 	rsbseq	r0, r7, #84, 20	; 0x54000
    1040:	0a550000 	beq	1541048 <shift+0x1541048>
    1044:	00000193 	muleq	r0, r3, r1
    1048:	069f0a56 			; <UNDEFINED> instruction: 0x069f0a56
    104c:	0a570000 	beq	15c1054 <shift+0x15c1054>
    1050:	0000086a 	andeq	r0, r0, sl, ror #16
    1054:	09b00a58 	ldmibeq	r0!, {r3, r4, r6, r9, fp}
    1058:	0a590000 	beq	1641060 <shift+0x1641060>
    105c:	00000919 	andeq	r0, r0, r9, lsl r9
    1060:	06fa0a5a 	usateq	r0, #26, sl, asr #20
    1064:	0a5b0000 	beq	16c106c <shift+0x16c106c>
    1068:	000004f3 	strdeq	r0, [r0], -r3
    106c:	00700a5c 	rsbseq	r0, r0, ip, asr sl
    1070:	0a5d0000 	beq	1741078 <shift+0x1741078>
    1074:	00000a1c 	andeq	r0, r0, ip, lsl sl
    1078:	08dc0a5e 	ldmeq	ip, {r1, r2, r3, r4, r6, r9, fp}^
    107c:	0a5f0000 	beq	17c1084 <shift+0x17c1084>
    1080:	0000032c 	andeq	r0, r0, ip, lsr #6
    1084:	02970a60 	addseq	r0, r7, #96, 20	; 0x60000
    1088:	0a610000 	beq	1841090 <shift+0x1841090>
    108c:	000004ab 	andeq	r0, r0, fp, lsr #9
    1090:	07a30a62 	streq	r0, [r3, r2, ror #20]!
    1094:	0a630000 	beq	18c109c <shift+0x18c109c>
    1098:	0000088d 	andeq	r0, r0, sp, lsl #17
    109c:	012a0a64 			; <UNDEFINED> instruction: 0x012a0a64
    10a0:	0a650000 	beq	19410a8 <shift+0x19410a8>
    10a4:	00000166 	andeq	r0, r0, r6, ror #2
    10a8:	03b30a66 			; <UNDEFINED> instruction: 0x03b30a66
    10ac:	0a670000 	beq	19c10b4 <shift+0x19c10b4>
    10b0:	000004c4 	andeq	r0, r0, r4, asr #9
    10b4:	0a020a68 	beq	83a5c <shift+0x83a5c>
    10b8:	0a690000 	beq	1a410c0 <shift+0x1a410c0>
    10bc:	000008b0 			; <UNDEFINED> instruction: 0x000008b0
    10c0:	035b0a6a 	cmpeq	fp, #434176	; 0x6a000
    10c4:	0a6b0000 	beq	1ac10cc <shift+0x1ac10cc>
    10c8:	0000045a 	andeq	r0, r0, sl, asr r4
    10cc:	09330a6c 	ldmdbeq	r3!, {r2, r3, r5, r6, r9, fp}
    10d0:	0a6d0000 	beq	1b410d8 <shift+0x1b410d8>
    10d4:	000003a2 	andeq	r0, r0, r2, lsr #7
    10d8:	02030a6e 	andeq	r0, r3, #450560	; 0x6e000
    10dc:	0a6f0000 	beq	1bc10e4 <shift+0x1bc10e4>
    10e0:	000009e5 	andeq	r0, r0, r5, ror #19
    10e4:	00650a70 	rsbeq	r0, r5, r0, ror sl
    10e8:	0a710000 	beq	1c410f0 <shift+0x1c410f0>
    10ec:	0000067e 	andeq	r0, r0, lr, ror r6
    10f0:	01da0a72 	bicseq	r0, sl, r2, ror sl
    10f4:	0a730000 	beq	1cc10fc <shift+0x1cc10fc>
    10f8:	000002ef 	andeq	r0, r0, pc, ror #5
    10fc:	08190a74 	ldmdaeq	r9, {r2, r4, r5, r6, r9, fp}
    1100:	0a750000 	beq	1d41108 <shift+0x1d41108>
    1104:	00000944 	andeq	r0, r0, r4, asr #18
    1108:	01bb0a76 			; <UNDEFINED> instruction: 0x01bb0a76
    110c:	0a770000 	beq	1dc1114 <shift+0x1dc1114>
    1110:	000002d0 	ldrdeq	r0, [r0], -r0	; <UNPREDICTABLE>
    1114:	09dc0a78 	ldmibeq	ip, {r3, r4, r5, r6, r9, fp}^
    1118:	0a790000 	beq	1e41120 <shift+0x1e41120>
    111c:	00000449 	andeq	r0, r0, r9, asr #8
    1120:	08240a7a 	stmdaeq	r4!, {r1, r3, r4, r5, r6, r9, fp}
    1124:	0a7b0000 	beq	1ec112c <shift+0x1ec112c>
    1128:	00000214 	andeq	r0, r0, r4, lsl r2
    112c:	01010a7c 	tsteq	r1, ip, ror sl
    1130:	0a7d0000 	beq	1f41138 <shift+0x1f41138>
    1134:	000007f2 	strdeq	r0, [r0], -r2
    1138:	033c0a7e 	teqeq	ip, #516096	; 0x7e000
    113c:	0a7f0000 	beq	1fc1144 <shift+0x1fc1144>
    1140:	0000098d 	andeq	r0, r0, sp, lsl #19
    1144:	03220a80 			; <UNDEFINED> instruction: 0x03220a80
    1148:	0a810000 	beq	fe041150 <__bss_end+0x7df3f53c>
    114c:	000004a1 	andeq	r0, r0, r1, lsr #9
    1150:	03750a82 	cmneq	r5, #532480	; 0x82000
    1154:	0a830000 	beq	fe0c115c <__bss_end+0x7dfbf548>
    1158:	0000075d 	andeq	r0, r0, sp, asr r7
    115c:	084c0a84 	stmdaeq	ip, {r2, r7, r9, fp}^
    1160:	0a850000 	beq	fe141168 <__bss_end+0x7e03f554>
    1164:	000001c9 	andeq	r0, r0, r9, asr #3
    1168:	071e0a86 	ldreq	r0, [lr, -r6, lsl #21]
    116c:	0a870000 	beq	fe1c1174 <__bss_end+0x7e0bf560>
    1170:	00000517 	andeq	r0, r0, r7, lsl r5
    1174:	05030a88 	streq	r0, [r3, #-2696]	; 0xfffff578
    1178:	0a890000 	beq	fe241180 <__bss_end+0x7e13f56c>
    117c:	0000070a 	andeq	r0, r0, sl, lsl #14
    1180:	017f0a8a 	cmneq	pc, sl, lsl #21
    1184:	0a8b0000 	beq	fe2c118c <__bss_end+0x7e1bf578>
    1188:	00000021 	andeq	r0, r0, r1, lsr #32
    118c:	07bd0a8c 	ldreq	r0, [sp, ip, lsl #21]!
    1190:	0a8d0000 	beq	fe341198 <__bss_end+0x7e23f584>
    1194:	000003f3 	strdeq	r0, [r0], -r3
    1198:	06a90a8e 	strteq	r0, [r9], lr, lsl #21
    119c:	0a8f0000 	beq	fe3c11a4 <__bss_end+0x7e2bf590>
    11a0:	000007d3 	ldrdeq	r0, [r0], -r3
    11a4:	094e0a90 	stmdbeq	lr, {r4, r7, r9, fp}^
    11a8:	0a910000 	beq	fe4411b0 <__bss_end+0x7e33f59c>
    11ac:	0000000c 	andeq	r0, r0, ip
    11b0:	041a0a92 	ldreq	r0, [sl], #-2706	; 0xfffff56e
    11b4:	0a930000 	beq	fe4c11bc <__bss_end+0x7e3bf5a8>
    11b8:	00000620 	andeq	r0, r0, r0, lsr #12
    11bc:	07670a94 			; <UNDEFINED> instruction: 0x07670a94
    11c0:	0a950000 	beq	fe5411c8 <__bss_end+0x7e43f5b4>
    11c4:	000003cd 	andeq	r0, r0, sp, asr #7
    11c8:	01a10a96 			; <UNDEFINED> instruction: 0x01a10a96
    11cc:	0a970000 	beq	fe5c11d4 <__bss_end+0x7e4bf5c0>
    11d0:	00000520 	andeq	r0, r0, r0, lsr #10
    11d4:	09cc0a98 	stmibeq	ip, {r3, r4, r7, r9, fp}^
    11d8:	0a990000 	beq	fe6411e0 <__bss_end+0x7e53f5cc>
    11dc:	00000578 	andeq	r0, r0, r8, ror r5
    11e0:	074c0a9a 			; <UNDEFINED> instruction: 0x074c0a9a
    11e4:	0a9b0000 	beq	fe6c11ec <__bss_end+0x7e5bf5d8>
    11e8:	00000859 	andeq	r0, r0, r9, asr r8
    11ec:	099f0a9c 	ldmibeq	pc, {r2, r3, r4, r7, r9, fp}	; <UNPREDICTABLE>
    11f0:	0a9d0000 	beq	fe7411f8 <__bss_end+0x7e63f5e4>
    11f4:	000002de 	ldrdeq	r0, [r0], -lr
    11f8:	00570a9e 			; <UNDEFINED> instruction: 0x00570a9e
    11fc:	009f0000 	addseq	r0, pc, r0
    1200:	000dcd05 	andeq	ip, sp, r5, lsl #26
    1204:	97fa0300 	ldrbls	r0, [sl, r0, lsl #6]!
    1208:	02000000 	andeq	r0, r0, #0
    120c:	09bb0704 	ldmibeq	fp!, {r2, r8, r9, sl}
    1210:	8d0b0000 	stchi	0, cr0, [fp, #-0]
    1214:	5b000000 	blpl	121c <shift+0x121c>
    1218:	0c000004 	stceq	0, cr0, [r0], {4}
    121c:	00000444 	andeq	r0, r0, r4, asr #8
    1220:	4b06001f 	blmi	1812a4 <shift+0x1812a4>
    1224:	0b000004 	bleq	123c <shift+0x123c>
    1228:	0000008d 	andeq	r0, r0, sp, lsl #1
    122c:	00000470 	andeq	r0, r0, r0, ror r4
    1230:	0004440c 	andeq	r4, r4, ip, lsl #8
    1234:	06000f00 	streq	r0, [r0], -r0, lsl #30
    1238:	00000460 	andeq	r0, r0, r0, ror #8
    123c:	0330040d 	teqeq	r0, #218103808	; 0xd000000
    1240:	07ffa462 	ldrbeq	sl, [pc, r2, ror #8]!
    1244:	a20e0000 	andge	r0, lr, #0
    1248:	0300000e 	movweq	r0, #14
    124c:	07ffa464 	ldrbeq	sl, [pc, r4, ror #8]!
    1250:	0f000000 	svceq	0x00000000
    1254:	00001001 	andeq	r1, r0, r1
    1258:	8da46503 	cfstr32hi	mvfx6, [r4, #12]!
    125c:	00000000 	andeq	r0, r0, r0
    1260:	0dd70f10 	ldcleq	15, cr0, [r7, #64]	; 0x40
    1264:	66030000 	strvs	r0, [r3], -r0
    1268:	000092a4 	andeq	r9, r0, r4, lsr #5
    126c:	0f100400 	svceq	0x00100400
    1270:	00000d78 	andeq	r0, r0, r8, ror sp
    1274:	92a46703 	adcls	r6, r4, #786432	; 0xc0000
    1278:	08000000 	stmdaeq	r0, {}	; <UNPREDICTABLE>
    127c:	0eac0f10 	mcreq	15, 5, r0, cr12, cr0, {0}
    1280:	68030000 	stmdavs	r3, {}	; <UNPREDICTABLE>
    1284:	000810a4 	andeq	r1, r8, r4, lsr #1
    1288:	0f100c00 	svceq	0x00100c00
    128c:	00000f29 	andeq	r0, r0, r9, lsr #30
    1290:	70a46903 	adcvc	r6, r4, r3, lsl #18
    1294:	80000004 	andhi	r0, r0, r4
    1298:	0eb60f10 	mrceq	15, 5, r0, cr6, cr0, {0}
    129c:	6a030000 	bvs	c12a4 <shift+0xc12a4>
    12a0:	000820a4 	andeq	r2, r8, r4, lsr #1
    12a4:	0f10c000 	svceq	0x0010c000
    12a8:	00000e38 	andeq	r0, r0, r8, lsr lr
    12ac:	70a46b03 	adcvc	r6, r4, r3, lsl #22
    12b0:	00000004 	andeq	r0, r0, r4
    12b4:	0ec00f11 	mcreq	15, 6, r0, cr0, cr1, {0}
    12b8:	6c030000 	stcvs	0, cr0, [r3], {-0}
    12bc:	000820a4 	andeq	r2, r8, r4, lsr #1
    12c0:	0f114000 	svceq	0x00114000
    12c4:	00000f3a 	andeq	r0, r0, sl, lsr pc
    12c8:	70a46d03 	adcvc	r6, r4, r3, lsl #26
    12cc:	80000004 	andhi	r0, r0, r4
    12d0:	0eca0f11 	mcreq	15, 6, r0, cr10, cr1, {0}
    12d4:	6e030000 	cdpvs	0, 0, cr0, cr3, cr0, {0}
    12d8:	000820a4 	andeq	r2, r8, r4, lsr #1
    12dc:	0f11c000 	svceq	0x0011c000
    12e0:	00000dfd 	strdeq	r0, [r0], -sp
    12e4:	70a46f03 	adcvc	r6, r4, r3, lsl #30
    12e8:	00000004 	andeq	r0, r0, r4
    12ec:	0ed40f12 	mrceq	15, 6, r0, cr4, cr2, {0}
    12f0:	70030000 	andvc	r0, r3, r0
    12f4:	000820a4 	andeq	r2, r8, r4, lsr #1
    12f8:	0f124000 	svceq	0x00124000
    12fc:	00000f46 	andeq	r0, r0, r6, asr #30
    1300:	70a47103 	adcvc	r7, r4, r3, lsl #2
    1304:	80000004 	andhi	r0, r0, r4
    1308:	0ede0f12 	mrceq	15, 6, r0, cr14, cr2, {0}
    130c:	72030000 	andvc	r0, r3, #0
    1310:	000820a4 	andeq	r2, r8, r4, lsr #1
    1314:	0f12c000 	svceq	0x0012c000
    1318:	00000d39 	andeq	r0, r0, r9, lsr sp
    131c:	70a47303 	adcvc	r7, r4, r3, lsl #6
    1320:	00000004 	andeq	r0, r0, r4
    1324:	0ee80f13 	mcreq	15, 7, r0, cr8, cr3, {0}
    1328:	74030000 	strvc	r0, [r3], #-0
    132c:	000820a4 	andeq	r2, r8, r4, lsr #1
    1330:	0f134000 	svceq	0x00134000
    1334:	0000101f 	andeq	r1, r0, pc, lsl r0
    1338:	70a47503 	adcvc	r7, r4, r3, lsl #10
    133c:	80000004 	andhi	r0, r0, r4
    1340:	0d8b0f13 	stceq	15, cr0, [fp, #76]	; 0x4c
    1344:	76030000 	strvc	r0, [r3], -r0
    1348:	000820a4 	andeq	r2, r8, r4, lsr #1
    134c:	0f13c000 	svceq	0x0013c000
    1350:	00000fe6 	andeq	r0, r0, r6, ror #31
    1354:	41a47703 			; <UNDEFINED> instruction: 0x41a47703
    1358:	00000008 	andeq	r0, r0, r8
    135c:	0efa0f14 	mrceq	15, 7, r0, cr10, cr4, {0}
    1360:	78030000 	stmdavc	r3, {}	; <UNPREDICTABLE>
    1364:	000846a4 	andeq	r4, r8, r4, lsr #13
    1368:	0f160000 	svceq	0x00160000
    136c:	00000f5d 	andeq	r0, r0, sp, asr pc
    1370:	41a47903 			; <UNDEFINED> instruction: 0x41a47903
    1374:	00000008 	andeq	r0, r0, r8
    1378:	0f750f18 	svceq	0x00750f18
    137c:	7a030000 	bvc	c1384 <shift+0xc1384>
    1380:	000846a4 	andeq	r4, r8, r4, lsr #13
    1384:	0f1a0000 	svceq	0x001a0000
    1388:	00000e9a 	muleq	r0, sl, lr
    138c:	5ba47b03 	blpl	fe91ffa0 <__bss_end+0x7e81e38c>
    1390:	00000004 	andeq	r0, r0, r4
    1394:	0f800f1c 	svceq	0x00800f1c
    1398:	7c030000 	stcvc	0, cr0, [r3], {-0}
    139c:	000856a4 	andeq	r5, r8, r4, lsr #13
    13a0:	0f1c8000 	svceq	0x001c8000
    13a4:	00000ef2 	strdeq	r0, [r0], -r2
    13a8:	92a47d03 	adcls	r7, r4, #3, 26	; 0xc0
    13ac:	00000000 	andeq	r0, r0, r0
    13b0:	0e920f1d 	mrceq	15, 4, r0, cr2, cr13, {0}
    13b4:	7e030000 	cdpvc	0, 0, cr0, cr3, cr0, {0}
    13b8:	00087ba4 	andeq	r7, r8, r4, lsr #23
    13bc:	0f1d0400 	svceq	0x001d0400
    13c0:	00000f8b 	andeq	r0, r0, fp, lsl #31
    13c4:	80a47f03 	adchi	r7, r4, r3, lsl #30
    13c8:	40000008 	andmi	r0, r0, r8
    13cc:	0e310f1d 	mrceq	15, 1, r0, cr1, cr13, {0}
    13d0:	80030000 	andhi	r0, r3, r0
    13d4:	00008da4 	andeq	r8, r0, r4, lsr #27
    13d8:	0f1f0000 	svceq	0x001f0000
    13dc:	00000f96 	muleq	r0, r6, pc	; <UNPREDICTABLE>
    13e0:	90a48103 	adcls	r8, r4, r3, lsl #2
    13e4:	04000008 	streq	r0, [r0], #-8
    13e8:	0f690f1f 	svceq	0x00690f1f
    13ec:	82030000 	andhi	r0, r3, #0
    13f0:	0008b0a4 	andeq	fp, r8, r4, lsr #1
    13f4:	0f1f1000 	svceq	0x001f1000
    13f8:	00000df1 	strdeq	r0, [r0], -r1
    13fc:	b0a48303 	adclt	r8, r4, r3, lsl #6
    1400:	20000008 	andcs	r0, r0, r8
    1404:	0fa10f1f 	svceq	0x00a10f1f
    1408:	84030000 	strhi	r0, [r3], #-0
    140c:	0008b5a4 	andeq	fp, r8, r4, lsr #11
    1410:	0f1f3000 	svceq	0x001f3000
    1414:	00000e64 	andeq	r0, r0, r4, ror #28
    1418:	92a48503 	adcls	r8, r4, #12582912	; 0xc00000
    141c:	d0000000 	andle	r0, r0, r0
    1420:	0e6c0f1f 	mcreq	15, 3, r0, cr12, cr15, {0}
    1424:	86030000 	strhi	r0, [r3], -r0
    1428:	000092a4 	andeq	r9, r0, r4, lsr #5
    142c:	0f1fd400 	svceq	0x001fd400
    1430:	00000e74 	andeq	r0, r0, r4, ror lr
    1434:	92a48703 	adcls	r8, r4, #786432	; 0xc0000
    1438:	d8000000 	stmdale	r0, {}	; <UNPREDICTABLE>
    143c:	0e7c0f1f 	mrceq	15, 3, r0, cr12, cr15, {0}
    1440:	88030000 	stmdahi	r3, {}	; <UNPREDICTABLE>
    1444:	000092a4 	andeq	r9, r0, r4, lsr #5
    1448:	0f1fdc00 	svceq	0x001fdc00
    144c:	00000e44 	andeq	r0, r0, r4, asr #28
    1450:	92a48903 	adcls	r8, r4, #49152	; 0xc000
    1454:	e0000000 	and	r0, r0, r0
    1458:	0e4c0f1f 	mcreq	15, 2, r0, cr12, cr15, {0}
    145c:	8a030000 	bhi	c1464 <shift+0xc1464>
    1460:	000092a4 	andeq	r9, r0, r4, lsr #5
    1464:	0f1fe400 	svceq	0x001fe400
    1468:	00000e54 	andeq	r0, r0, r4, asr lr
    146c:	92a48b03 	adcls	r8, r4, #3072	; 0xc00
    1470:	e8000000 	stmda	r0, {}	; <UNPREDICTABLE>
    1474:	0e5c0f1f 	mrceq	15, 2, r0, cr12, cr15, {0}
    1478:	8c030000 	stchi	0, cr0, [r3], {-0}
    147c:	000092a4 	andeq	r9, r0, r4, lsr #5
    1480:	0f1fec00 	svceq	0x001fec00
    1484:	00000d45 	andeq	r0, r0, r5, asr #26
    1488:	92a48d03 	adcls	r8, r4, #3, 26	; 0xc0
    148c:	f0000000 			; <UNDEFINED> instruction: 0xf0000000
    1490:	0d4d0f1f 	stcleq	15, cr0, [sp, #-124]	; 0xffffff84
    1494:	8e030000 	cdphi	0, 0, cr0, cr3, cr0, {0}
    1498:	000092a4 	andeq	r9, r0, r4, lsr #5
    149c:	0f1ff400 	svceq	0x001ff400
    14a0:	00000d55 	andeq	r0, r0, r5, asr sp
    14a4:	92a48f03 	adcls	r8, r4, #3, 30
    14a8:	f8000000 			; <UNDEFINED> instruction: 0xf8000000
    14ac:	0d5d0f1f 	ldcleq	15, cr0, [sp, #-124]	; 0xffffff84
    14b0:	90030000 	andls	r0, r3, r0
    14b4:	000092a4 	andeq	r9, r0, r4, lsr #5
    14b8:	0f1ffc00 	svceq	0x001ffc00
    14bc:	00001018 	andeq	r1, r0, r8, lsl r0
    14c0:	8da49203 	sfmhi	f1, 1, [r4, #12]!
    14c4:	00000000 	andeq	r0, r0, r0
    14c8:	0db20f20 	ldceq	15, cr0, [r2, #128]!	; 0x80
    14cc:	93030000 	movwls	r0, #12288	; 0x3000
    14d0:	00008da4 	andeq	r8, r0, r4, lsr #27
    14d4:	0f200400 	svceq	0x00200400
    14d8:	00000fe0 	andeq	r0, r0, r0, ror #31
    14dc:	8da49403 	cfstrshi	mvf9, [r4, #12]!
    14e0:	08000000 	stmdaeq	r0, {}	; <UNPREDICTABLE>
    14e4:	0f040f20 	svceq	0x00040f20
    14e8:	95030000 	strls	r0, [r3, #-0]
    14ec:	000092a4 	andeq	r9, r0, r4, lsr #5
    14f0:	0f200c00 	svceq	0x00200c00
    14f4:	00000ffa 	strdeq	r0, [r0], -sl
    14f8:	8da49603 	stchi	6, cr9, [r4, #12]!
    14fc:	10000000 	andne	r0, r0, r0
    1500:	0dac0f20 	stceq	15, cr0, [ip, #128]!	; 0x80
    1504:	97030000 	strls	r0, [r3, -r0]
    1508:	000092a4 	andeq	r9, r0, r4, lsr #5
    150c:	0f201400 	svceq	0x00201400
    1510:	00000d24 	andeq	r0, r0, r4, lsr #26
    1514:	92a49803 	adcls	r9, r4, #196608	; 0x30000
    1518:	18000000 	stmdane	r0, {}	; <UNPREDICTABLE>
    151c:	0ff30f20 	svceq	0x00f30f20
    1520:	99030000 	stmdbls	r3, {}	; <UNPREDICTABLE>
    1524:	00008da4 	andeq	r8, r0, r4, lsr #27
    1528:	0f201c00 	svceq	0x00201c00
    152c:	00000f33 	andeq	r0, r0, r3, lsr pc
    1530:	92a49a03 	adcls	r9, r4, #12288	; 0x3000
    1534:	20000000 	andcs	r0, r0, r0
    1538:	0f0a0f20 	svceq	0x000a0f20
    153c:	9b030000 	blls	c1544 <shift+0xc1544>
    1540:	00008da4 	andeq	r8, r0, r4, lsr #27
    1544:	0f202400 	svceq	0x00202400
    1548:	00000e07 	andeq	r0, r0, r7, lsl #28
    154c:	92a49c03 	adcls	r9, r4, #768	; 0x300
    1550:	28000000 	stmdacs	r0, {}	; <UNPREDICTABLE>
    1554:	0fac0f20 	svceq	0x00ac0f20
    1558:	9d030000 	stcls	0, cr0, [r3, #-0]
    155c:	0008c5a4 	andeq	ip, r8, r4, lsr #11
    1560:	0f202c00 	svceq	0x00202c00
    1564:	00000e8b 	andeq	r0, r0, fp, lsl #29
    1568:	8da49e03 	stchi	14, cr9, [r4, #12]!
    156c:	d0000000 	andle	r0, r0, r0
    1570:	0fb70f20 	svceq	0x00b70f20
    1574:	9f030000 	svcls	0x00030000
    1578:	000890a4 	andeq	r9, r8, r4, lsr #1
    157c:	0f20d400 	svceq	0x0020d400
    1580:	00000f12 	andeq	r0, r0, r2, lsl pc
    1584:	8da4a003 	stchi	0, cr10, [r4, #12]!
    1588:	e0000000 	and	r0, r0, r0
    158c:	0fc20f20 	svceq	0x00c20f20
    1590:	a1030000 	mrsge	r0, (UNDEF: 3)
    1594:	0008d5a4 	andeq	sp, r8, r4, lsr #11
    1598:	0f20e400 	svceq	0x0020e400
    159c:	00000e84 	andeq	r0, r0, r4, lsl #29
    15a0:	92a4a203 	adcls	sl, r4, #805306368	; 0x30000000
    15a4:	fc000000 	stc2	0, cr0, [r0], {-0}
    15a8:	0fcd0f20 	svceq	0x00cd0f20
    15ac:	a3030000 	movwge	r0, #12288	; 0x3000
    15b0:	0008e5a4 	andeq	lr, r8, r4, lsr #11
    15b4:	0f210000 	svceq	0x00210000
    15b8:	00000d72 	andeq	r0, r0, r2, ror sp
    15bc:	8da4a403 	cfstrshi	mvf10, [r4, #12]!
    15c0:	00000000 	andeq	r0, r0, r0
    15c4:	820b0030 	andhi	r0, fp, #48	; 0x30
    15c8:	10000000 	andne	r0, r0, r0
    15cc:	10000008 	andne	r0, r0, r8
    15d0:	00000444 	andeq	r0, r0, r4, asr #8
    15d4:	0b0003ff 	bleq	25d8 <shift+0x25d8>
    15d8:	00000082 	andeq	r0, r0, r2, lsl #1
    15dc:	00000820 	andeq	r0, r0, r0, lsr #16
    15e0:	0004440c 	andeq	r4, r4, ip, lsl #8
    15e4:	0b001c00 	bleq	85ec <shift+0x85ec>
    15e8:	00000082 	andeq	r0, r0, r2, lsl #1
    15ec:	00000830 	andeq	r0, r0, r0, lsr r8
    15f0:	0004440c 	andeq	r4, r4, ip, lsl #8
    15f4:	0b000f00 	bleq	51fc <shift+0x51fc>
    15f8:	0000007d 	andeq	r0, r0, sp, ror r0
    15fc:	00000841 	andeq	r0, r0, r1, asr #16
    1600:	00044410 	andeq	r4, r4, r0, lsl r4
    1604:	0001ff00 	andeq	pc, r1, r0, lsl #30
    1608:	00083006 	andeq	r3, r8, r6
    160c:	00820b00 	addeq	r0, r2, r0, lsl #22
    1610:	08560000 	ldmdaeq	r6, {}^	; <UNPREDICTABLE>
    1614:	440c0000 	strmi	r0, [ip], #-0
    1618:	7f000004 	svcvc	0x00000004
    161c:	00820b00 	addeq	r0, r2, r0, lsl #22
    1620:	08660000 	stmdaeq	r6!, {}^	; <UNPREDICTABLE>
    1624:	440c0000 	strmi	r0, [ip], #-0
    1628:	1f000004 	svcne	0x00000004
    162c:	00920b00 	addseq	r0, r2, r0, lsl #22
    1630:	08760000 	ldmdaeq	r6!, {}^	; <UNPREDICTABLE>
    1634:	440c0000 	strmi	r0, [ip], #-0
    1638:	0e000004 	cdpeq	0, 0, cr0, cr0, cr4, {0}
    163c:	08660700 	stmdaeq	r6!, {r8, r9, sl}^
    1640:	76060000 	strvc	r0, [r6], -r0
    1644:	0b000008 	bleq	166c <shift+0x166c>
    1648:	00000082 	andeq	r0, r0, r2, lsl #1
    164c:	00000890 	muleq	r0, r0, r8
    1650:	0004440c 	andeq	r4, r4, ip, lsl #8
    1654:	0b006f00 	bleq	1d25c <shift+0x1d25c>
    1658:	00000082 	andeq	r0, r0, r2, lsl #1
    165c:	000008a0 	andeq	r0, r0, r0, lsr #17
    1660:	0004440c 	andeq	r4, r4, ip, lsl #8
    1664:	0b000200 	bleq	1e6c <shift+0x1e6c>
    1668:	0000007d 	andeq	r0, r0, sp, ror r0
    166c:	000008b0 			; <UNDEFINED> instruction: 0x000008b0
    1670:	0004440c 	andeq	r4, r4, ip, lsl #8
    1674:	06000f00 	streq	r0, [r0], -r0, lsl #30
    1678:	000008a0 	andeq	r0, r0, r0, lsr #17
    167c:	0000820b 	andeq	r8, r0, fp, lsl #4
    1680:	0008c500 	andeq	ip, r8, r0, lsl #10
    1684:	04440c00 	strbeq	r0, [r4], #-3072	; 0xfffff400
    1688:	00270000 	eoreq	r0, r7, r0
    168c:	0000820b 	andeq	r8, r0, fp, lsl #4
    1690:	0008d500 	andeq	sp, r8, r0, lsl #10
    1694:	04440c00 	strbeq	r0, [r4], #-3072	; 0xfffff400
    1698:	00280000 	eoreq	r0, r8, r0
    169c:	0000820b 	andeq	r8, r0, fp, lsl #4
    16a0:	0008e500 	andeq	lr, r8, r0, lsl #10
    16a4:	04440c00 	strbeq	r0, [r4], #-3072	; 0xfffff400
    16a8:	00050000 	andeq	r0, r5, r0
    16ac:	0000820b 	andeq	r8, r0, fp, lsl #4
    16b0:	0008f600 	andeq	pc, r8, r0, lsl #12
    16b4:	04441000 	strbeq	r1, [r4], #-0
    16b8:	03bf0000 			; <UNDEFINED> instruction: 0x03bf0000
    16bc:	0de81100 	stfeqe	f1, [r8]
    16c0:	a5030000 	strge	r0, [r3, #-0]
    16c4:	000475a4 	andeq	r7, r4, r4, lsr #11
    16c8:	0f1b0500 	svceq	0x001b0500
    16cc:	08040000 	stmdaeq	r4, {}	; <UNPREDICTABLE>
    16d0:	0000090d 	andeq	r0, r0, sp, lsl #18
    16d4:	09130412 	ldmdbeq	r3, {r1, r4, sl}
    16d8:	23130000 	tstcs	r3, #0
    16dc:	14000009 	strne	r0, [r0], #-9
    16e0:	00000439 	andeq	r0, r0, r9, lsr r4
    16e4:	00092314 	andeq	r2, r9, r4, lsl r3
    16e8:	04150000 	ldreq	r0, [r5], #-0
    16ec:	000dc416 	andeq	ip, sp, r6, lsl r4
    16f0:	0a040800 	beq	1036f8 <shift+0x1036f8>
    16f4:	0000094a 	andeq	r0, r0, sl, asr #18
    16f8:	72736917 	rsbsvc	r6, r3, #376832	; 0x5c000
    16fc:	020b0400 	andeq	r0, fp, #0, 8
    1700:	00000009 	andeq	r0, r0, r9
    1704:	000b5318 	andeq	r5, fp, r8, lsl r3
    1708:	230c0400 	movwcs	r0, #50176	; 0xc400
    170c:	04000009 	streq	r0, [r0], #-9
    1710:	09250b00 	stmdbeq	r5!, {r8, r9, fp}
    1714:	095a0000 	ldmdbeq	sl, {}^	; <UNPREDICTABLE>
    1718:	440c0000 	strmi	r0, [ip], #-0
    171c:	9f000004 	svcls	0x00000004
    1720:	0ddf1900 	vldreq.16	s3, [pc]	; 1728 <shift+0x1728>	; <UNPREDICTABLE>
    1724:	0a010000 	beq	4172c <shift+0x4172c>
    1728:	0000094a 	andeq	r0, r0, sl, asr #18
    172c:	17140305 	ldrne	r0, [r4, -r5, lsl #6]
    1730:	501a8010 	andspl	r8, sl, r0, lsl r0
    1734:	0100000f 	tsteq	r0, pc
    1738:	10059077 	andne	r9, r5, r7, ror r0
    173c:	00003480 	andeq	r3, r0, r0, lsl #9
    1740:	db9c0100 	blle	fe701b48 <__bss_end+0x7e5fff34>
    1744:	1b000009 	blne	1770 <shift+0x1770>
    1748:	0100726e 	tsteq	r0, lr, ror #4
    174c:	0000257a 	andeq	r2, r0, sl, ror r5
    1750:	1c540100 	ldfnee	f0, [r4], {-0}
    1754:	00636967 	rsbeq	r6, r3, r7, ror #18
    1758:	09db7f01 	ldmibeq	fp, {r0, r8, r9, sl, fp, ip, sp, lr}^
    175c:	f61d0000 			; <UNDEFINED> instruction: 0xf61d0000
    1760:	9800000b 	stmdals	r0, {r0, r1, r3}
    1764:	04801005 	streq	r1, [r0], #5
    1768:	01000000 	mrseq	r0, (UNDEF: 0)
    176c:	0009ba7f 	andeq	fp, r9, pc, ror sl
    1770:	05981e00 	ldreq	r1, [r8, #3584]	; 0xe00
    1774:	00048010 	andeq	r8, r4, r0, lsl r0
    1778:	061f0000 	ldreq	r0, [pc], -r0
    177c:	0000000c 	andeq	r0, r0, ip
    1780:	05982000 	ldreq	r2, [r8]
    1784:	0c998010 	ldceq	0, cr8, [r9], {16}
    1788:	09ce0000 	stmibeq	lr, {}^	; <UNPREDICTABLE>
    178c:	01210000 			; <UNDEFINED> instruction: 0x01210000
    1790:	61080250 	tstvs	r8, r0, asr r2
    1794:	05bc2200 	ldreq	r2, [ip, #512]!	; 0x200
    1798:	01218010 			; <UNDEFINED> instruction: 0x01218010
    179c:	00740250 	rsbseq	r0, r4, r0, asr r2
    17a0:	04120000 	ldreq	r0, [r2], #-0
    17a4:	000008f6 	strdeq	r0, [r0], -r6
    17a8:	00000023 	andeq	r0, r0, r3, lsr #32
    17ac:	526d0100 	rsbpl	r0, sp, #0, 2
    17b0:	54000000 	strpl	r0, [r0], #-0
    17b4:	3c801005 	stccc	0, cr1, [r0], {5}
    17b8:	01000000 	mrseq	r0, (UNDEF: 0)
    17bc:	000aa59c 	muleq	sl, ip, r5
    17c0:	72692400 	rsbvc	r2, r9, #0, 8
    17c4:	6d010071 	stcvs	0, cr0, [r1, #-452]	; 0xfffffe3c
    17c8:	00000439 	andeq	r0, r0, r9, lsr r4
    17cc:	000002b2 			; <UNDEFINED> instruction: 0x000002b2
    17d0:	000d7f25 	andeq	r7, sp, r5, lsr #30
    17d4:	026d0100 	rsbeq	r0, sp, #0, 2
    17d8:	ec000009 	stc	0, cr0, [r0], {9}
    17dc:	25000002 	strcs	r0, [r0, #-2]
    17e0:	00000b53 	andeq	r0, r0, r3, asr fp
    17e4:	09236d01 	stmdbeq	r3!, {r0, r8, sl, fp, sp, lr}
    17e8:	03280000 			; <UNDEFINED> instruction: 0x03280000
    17ec:	721c0000 	andsvc	r0, ip, #0
    17f0:	01007465 	tsteq	r0, r5, ror #8
    17f4:	0000526f 	andeq	r5, r0, pc, ror #4
    17f8:	0aa52600 	beq	fe94b000 <__bss_end+0x7e8493ec>
    17fc:	05540000 	ldrbeq	r0, [r4, #-0]
    1800:	01008010 	tsteq	r0, r0, lsl r0
    1804:	70010000 	andvc	r0, r1, r0
    1808:	00000a61 	andeq	r0, r0, r1, ror #20
    180c:	000acb27 	andeq	ip, sl, r7, lsr #22
    1810:	00035c00 	andeq	r5, r3, r0, lsl #24
    1814:	0ac02700 	beq	ff00b41c <__bss_end+0x7ef09808>
    1818:	036f0000 	cmneq	pc, #0
    181c:	b5270000 	strlt	r0, [r7, #-0]!
    1820:	8200000a 	andhi	r0, r0, #10
    1824:	00000003 	andeq	r0, r0, r3
    1828:	000ba828 	andeq	sl, fp, r8, lsr #16
    182c:	10057200 	andne	r7, r5, r0, lsl #4
    1830:	00012080 	andeq	r2, r1, r0, lsl #1
    1834:	27730100 	ldrbcs	r0, [r3, -r0, lsl #2]!
    1838:	00000bb4 			; <UNDEFINED> instruction: 0x00000bb4
    183c:	000003ae 	andeq	r0, r0, lr, lsr #7
    1840:	00012029 	andeq	r2, r1, r9, lsr #32
    1844:	0c741f00 	ldcleq	15, cr1, [r4], #-0
    1848:	f62a0000 			; <UNDEFINED> instruction: 0xf62a0000
    184c:	7200000b 	andvc	r0, r0, #11
    1850:	04801005 	streq	r1, [r0], #5
    1854:	01000000 	mrseq	r0, (UNDEF: 0)
    1858:	05721e48 	ldrbeq	r1, [r2, #-3656]!	; 0xfffff1b8
    185c:	00048010 	andeq	r8, r4, r0, lsl r0
    1860:	061f0000 	ldreq	r0, [pc], -r0
    1864:	0000000c 	andeq	r0, r0, ip
    1868:	00000000 	andeq	r0, r0, r0
    186c:	000d652b 	andeq	r6, sp, fp, lsr #10
    1870:	52620100 	rsbpl	r0, r2, #0, 2
    1874:	01000000 	mrseq	r0, (UNDEF: 0)
    1878:	00000ad7 	ldrdeq	r0, [r0], -r7
    187c:	7172692c 	cmnvc	r2, ip, lsr #18
    1880:	39620100 	stmdbcc	r2!, {r8}^
    1884:	2d000004 	stccs	0, cr0, [r0, #-16]
    1888:	00000d7f 	andeq	r0, r0, pc, ror sp
    188c:	09026201 	stmdbeq	r2, {r0, r9, sp, lr}
    1890:	532d0000 			; <UNDEFINED> instruction: 0x532d0000
    1894:	0100000b 	tsteq	r0, fp
    1898:	00092362 	andeq	r2, r9, r2, ror #6
    189c:	5c1a0000 	ldcpl	0, cr0, [sl], {-0}
    18a0:	0100000a 	tsteq	r0, sl
    18a4:	1004e85b 	andne	lr, r4, fp, asr r8
    18a8:	00006c80 	andeq	r6, r0, r0, lsl #25
    18ac:	5a9c0100 	bpl	fe701cb4 <__bss_end+0x7e6000a0>
    18b0:	2600000b 	strcs	r0, [r0], -fp
    18b4:	00000bca 	andeq	r0, r0, sl, asr #23
    18b8:	801004ea 	andshi	r0, r0, sl, ror #9
    18bc:	000000d0 	ldrdeq	r0, [r0], -r0	; <UNPREDICTABLE>
    18c0:	0b3e5d01 	bleq	f98ccc <shift+0xf98ccc>
    18c4:	d0290000 	eorle	r0, r9, r0
    18c8:	2e000000 	cdpcs	0, 0, cr0, cr0, cr0, {0}
    18cc:	00000bd6 	ldrdeq	r0, [r0], -r6
    18d0:	000003cf 	andeq	r0, r0, pc, asr #7
    18d4:	000bdf2e 	andeq	sp, fp, lr, lsr #30
    18d8:	0003f000 	andeq	pc, r3, r0
    18dc:	0bea1f00 	bleq	ffa894e4 <__bss_end+0x7f9878d0>
    18e0:	f62a0000 			; <UNDEFINED> instruction: 0xf62a0000
    18e4:	ea00000b 	b	1918 <shift+0x1918>
    18e8:	04801004 	streq	r1, [r0], #4
    18ec:	01000000 	mrseq	r0, (UNDEF: 0)
    18f0:	04ea1e27 	strbteq	r1, [sl], #3623	; 0xe27
    18f4:	00048010 	andeq	r8, r4, r0, lsl r0
    18f8:	062f0000 	strteq	r0, [pc], -r0
    18fc:	0100000c 	tsteq	r0, ip
    1900:	00000054 	andeq	r0, r0, r4, asr r0
    1904:	0c122800 	ldceq	8, cr2, [r2], {-0}
    1908:	05300000 	ldreq	r0, [r0, #-0]!
    190c:	00e88010 	rsceq	r8, r8, r0, lsl r0
    1910:	5e010000 	cdppl	0, 0, cr0, cr1, cr0, {0}
    1914:	0000e829 	andeq	lr, r0, r9, lsr #16
    1918:	0c1e1f00 	ldceq	15, cr1, [lr], {-0}
    191c:	00000000 	andeq	r0, r0, r0
    1920:	10081a00 	andne	r1, r8, r0, lsl #20
    1924:	50010000 	andpl	r0, r1, r0
    1928:	801004cc 	andshi	r0, r0, ip, asr #9
    192c:	0000001a 	andeq	r0, r0, sl, lsl r0
    1930:	0ba89c01 	bleq	fea2893c <__bss_end+0x7e926d28>
    1934:	6e240000 	cdpvs	0, 2, cr0, cr4, cr0, {0}
    1938:	50010072 	andpl	r0, r1, r2, ror r0
    193c:	00000439 	andeq	r0, r0, r9, lsr r4
    1940:	00000403 	andeq	r0, r0, r3, lsl #8
    1944:	6369671c 	cmnvs	r9, #28, 14	; 0x700000
    1948:	db520100 	blle	1481d50 <shift+0x1481d50>
    194c:	2a000009 	bcs	1978 <shift+0x1978>
    1950:	00000bf6 	strdeq	r0, [r0], -r6
    1954:	801004cc 	andshi	r0, r0, ip, asr #9
    1958:	00000004 	andeq	r0, r0, r4
    195c:	cc1e5201 	lfmgt	f5, 4, [lr], {1}
    1960:	04801004 	streq	r1, [r0], #4
    1964:	1f000000 	svcne	0x00000000
    1968:	00000c06 	andeq	r0, r0, r6, lsl #24
    196c:	30000000 	andcc	r0, r0, r0
    1970:	00000d95 	muleq	r0, r5, sp
    1974:	ca014601 	bgt	53180 <shift+0x53180>
    1978:	2c00000b 	stccs	0, cr0, [r0], {11}
    197c:	0100726e 	tsteq	r0, lr, ror #4
    1980:	00043946 	andeq	r3, r4, r6, asr #18
    1984:	69671c00 	stmdbvs	r7!, {sl, fp, ip}^
    1988:	48010063 	stmdami	r1, {r0, r1, r5, r6}
    198c:	000009db 	ldrdeq	r0, [r0], -fp
    1990:	0e103100 	mufeqs	f3, f0, f0
    1994:	23010000 	movwcs	r0, #4096	; 0x1000
    1998:	000bf601 	andeq	pc, fp, r1, lsl #12
    199c:	00691c00 	rsbeq	r1, r9, r0, lsl #24
    19a0:	00592501 	subseq	r2, r9, r1, lsl #10
    19a4:	d8320000 	ldmdale	r2!, {}	; <UNPREDICTABLE>
    19a8:	0100000f 	tsteq	r0, pc
    19ac:	00005925 	andeq	r5, r0, r5, lsr #18
    19b0:	69671c00 	stmdbvs	r7!, {sl, fp, ip}^
    19b4:	27010063 	strcs	r0, [r1, -r3, rrx]
    19b8:	000009db 	ldrdeq	r0, [r0], -fp
    19bc:	0d2c2b00 	vstmdbeq	ip!, {d2-d1}
    19c0:	1a010000 	bne	419c8 <shift+0x419c8>
    19c4:	000009db 	ldrdeq	r0, [r0], -fp
    19c8:	000c1201 	andeq	r1, ip, r1, lsl #4
    19cc:	73641c00 	cmnvc	r4, #0, 24
    19d0:	1c010074 	stcne	0, cr0, [r1], {116}	; 0x74
    19d4:	000009db 	ldrdeq	r0, [r0], -fp
    19d8:	0e193100 	mufeqe	f3, f1, f0
    19dc:	10010000 	andne	r0, r1, r0
    19e0:	000c2801 	andeq	r2, ip, r1, lsl #16
    19e4:	00691c00 	rsbeq	r1, r9, r0, lsl #24
    19e8:	00521201 	subseq	r1, r2, r1, lsl #4
    19ec:	33000000 	movwcc	r0, #0
    19f0:	00000db8 			; <UNDEFINED> instruction: 0x00000db8
    19f4:	04ac0b01 	strteq	r0, [ip], #2817	; 0xb01
    19f8:	00028010 	andeq	r8, r2, r0, lsl r0
    19fc:	9c010000 	stcls	0, cr0, [r1], {-0}
    1a00:	00000c58 	andeq	r0, r0, r8, asr ip
    1a04:	000da434 	andeq	sl, sp, r4, lsr r4
    1a08:	390b0100 	stmdbcc	fp, {r8}
    1a0c:	01000004 	tsteq	r0, r4
    1a10:	0e273450 	mcreq	4, 1, r3, cr7, cr0, {2}
    1a14:	0b010000 	bleq	41a1c <shift+0x41a1c>
    1a18:	00000923 	andeq	r0, r0, r3, lsr #18
    1a1c:	35005101 	strcc	r5, [r0, #-257]	; 0xfffffeff
    1a20:	00000ba8 	andeq	r0, r0, r8, lsr #23
    1a24:	801004b0 			; <UNDEFINED> instruction: 0x801004b0
    1a28:	0000001a 	andeq	r0, r0, sl, lsl r0
    1a2c:	0c999c01 	ldceq	12, cr9, [r9], {1}
    1a30:	b4270000 	strtlt	r0, [r7], #-0
    1a34:	2400000b 	strcs	r0, [r0], #-11
    1a38:	1f000004 	svcne	0x00000004
    1a3c:	00000bbe 			; <UNDEFINED> instruction: 0x00000bbe
    1a40:	000bf62a 	andeq	pc, fp, sl, lsr #12
    1a44:	1004b000 	andne	fp, r4, r0
    1a48:	00000480 	andeq	r0, r0, r0, lsl #9
    1a4c:	1e480100 	dvfnee	f0, f0, f0
    1a50:	801004b0 			; <UNDEFINED> instruction: 0x801004b0
    1a54:	00000004 	andeq	r0, r0, r4
    1a58:	000c061f 	andeq	r0, ip, pc, lsl r6
    1a5c:	00000000 	andeq	r0, r0, r0
    1a60:	000ce736 	andeq	lr, ip, r6, lsr r7
    1a64:	000ce700 	andeq	lr, ip, r0, lsl #14
    1a68:	00220500 	eoreq	r0, r2, r0, lsl #10
    1a6c:	000005ff 	strdeq	r0, [r0], -pc	; <UNPREDICTABLE>
    1a70:	081a0004 	ldmdaeq	sl, {r2}
    1a74:	01040000 	mrseq	r0, (UNDEF: 4)
    1a78:	00000589 	andeq	r0, r0, r9, lsl #11
    1a7c:	0010400c 	andseq	r4, r0, ip
    1a80:	0000a500 	andeq	sl, r0, r0, lsl #10
    1a84:	1005c400 	andne	ip, r5, r0, lsl #8
    1a88:	0000ac80 	andeq	sl, r0, r0, lsl #25
    1a8c:	0004b100 	andeq	fp, r4, r0, lsl #2
    1a90:	02200200 	eoreq	r0, r0, #0, 4
    1a94:	00008e12 	andeq	r8, r0, r2, lsl lr
    1a98:	0b220300 	bleq	8826a0 <shift+0x8826a0>
    1a9c:	13020000 	movwne	r0, #8192	; 0x2000
    1aa0:	0000008e 	andeq	r0, r0, lr, lsl #1
    1aa4:	0b0f0300 	bleq	3c26ac <shift+0x3c26ac>
    1aa8:	14020000 	strne	r0, [r2], #-0
    1aac:	0000008e 	andeq	r0, r0, lr, lsl #1
    1ab0:	0b190304 	bleq	6426c8 <shift+0x6426c8>
    1ab4:	15020000 	strne	r0, [r2, #-0]
    1ab8:	0000008e 	andeq	r0, r0, lr, lsl #1
    1abc:	0a930308 	beq	fe4c26e4 <__bss_end+0x7e3c0ad0>
    1ac0:	16020000 	strne	r0, [r2], -r0
    1ac4:	0000008e 	andeq	r0, r0, lr, lsl #1
    1ac8:	0a9d030c 	beq	fe742700 <__bss_end+0x7e640aec>
    1acc:	17020000 	strne	r0, [r2, -r0]
    1ad0:	0000008e 	andeq	r0, r0, lr, lsl #1
    1ad4:	0aa70310 	beq	fe9c271c <__bss_end+0x7e8c0b08>
    1ad8:	18020000 	stmdane	r2, {}	; <UNPREDICTABLE>
    1adc:	0000008e 	andeq	r0, r0, lr, lsl #1
    1ae0:	0ac80314 	beq	ff202738 <__bss_end+0x7f100b24>
    1ae4:	19020000 	stmdbne	r2, {}	; <UNPREDICTABLE>
    1ae8:	0000008e 	andeq	r0, r0, lr, lsl #1
    1aec:	0ad70318 	beq	ff5c2754 <__bss_end+0x7f4c0b40>
    1af0:	1a020000 	bne	81af8 <shift+0x81af8>
    1af4:	0000008e 	andeq	r0, r0, lr, lsl #1
    1af8:	0404001c 	streq	r0, [r4], #-28	; 0xffffffe4
    1afc:	00008a07 	andeq	r8, r0, r7, lsl #20
    1b00:	0b020500 	bleq	82f08 <shift+0x82f08>
    1b04:	1b020000 	blne	81b0c <shift+0x81b0c>
    1b08:	00000025 	andeq	r0, r0, r5, lsr #32
    1b0c:	000ae506 	andeq	lr, sl, r6, lsl #10
    1b10:	008e0400 	addeq	r0, lr, r0, lsl #8
    1b14:	07030000 	streq	r0, [r3, -r0]
    1b18:	000000c3 	andeq	r0, r0, r3, asr #1
    1b1c:	000ad107 	andeq	sp, sl, r7, lsl #2
    1b20:	2a070000 	bcs	1c1b28 <shift+0x1c1b28>
    1b24:	0100000b 	tsteq	r0, fp
    1b28:	000ab007 	andeq	fp, sl, r7
    1b2c:	06000200 	streq	r0, [r0], -r0, lsl #4
    1b30:	00000bc5 	andeq	r0, r0, r5, asr #23
    1b34:	00008e04 	andeq	r8, r0, r4, lsl #28
    1b38:	ec0d0300 	stc	3, cr0, [sp], {-0}
    1b3c:	07000000 	streq	r0, [r0, -r0]
    1b40:	00000b49 	andeq	r0, r0, r9, asr #22
    1b44:	0b810700 	bleq	fe04374c <__bss_end+0x7df41b38>
    1b48:	07010000 	streq	r0, [r1, -r0]
    1b4c:	00000b58 	andeq	r0, r0, r8, asr fp
    1b50:	0b6b0702 	bleq	1ac3760 <shift+0x1ac3760>
    1b54:	00030000 	andeq	r0, r3, r0
    1b58:	31060104 	tstcc	r6, r4, lsl #2
    1b5c:	04000007 	streq	r0, [r0], #-7
    1b60:	072f0801 	streq	r0, [pc, -r1, lsl #16]!
    1b64:	02040000 	andeq	r0, r4, #0
    1b68:	00043f05 	andeq	r3, r4, r5, lsl #30
    1b6c:	07020400 	streq	r0, [r2, -r0, lsl #8]
    1b70:	00000386 	andeq	r0, r0, r6, lsl #7
    1b74:	69050408 	stmdbvs	r5, {r3, sl}
    1b78:	0900746e 	stmdbeq	r0, {r1, r2, r3, r5, r6, sl, ip, sp, lr}
    1b7c:	00000108 	andeq	r0, r0, r8, lsl #2
    1b80:	4f050804 	svcmi	0x00050804
    1b84:	04000001 	streq	r0, [r0], #-1
    1b88:	00800708 	addeq	r0, r0, r8, lsl #14
    1b8c:	ae060000 	cdpge	0, 0, cr0, cr6, cr0, {0}
    1b90:	04000003 	streq	r0, [r0], #-3
    1b94:	00000108 	andeq	r0, r0, r8, lsl #2
    1b98:	04c45c04 	strbeq	r5, [r4], #3076	; 0xc04
    1b9c:	6b0a0000 	blvs	281ba4 <shift+0x281ba4>
    1ba0:	80000004 	andhi	r0, r0, r4
    1ba4:	0967077f 	stmdbeq	r7!, {r0, r1, r2, r3, r4, r5, r6, r8, r9, sl}^
    1ba8:	07000000 	streq	r0, [r0, -r0]
    1bac:	000002c1 	andeq	r0, r0, r1, asr #5
    1bb0:	04300701 	ldrteq	r0, [r0], #-1793	; 0xfffff8ff
    1bb4:	07020000 	streq	r0, [r2, -r0]
    1bb8:	00000666 	andeq	r0, r0, r6, ror #12
    1bbc:	0a3d0703 	beq	f437d0 <shift+0xf437d0>
    1bc0:	07040000 	streq	r0, [r4, -r0]
    1bc4:	000000ec 	andeq	r0, r0, ip, ror #1
    1bc8:	01f40705 	mvnseq	r0, r5, lsl #14
    1bcc:	07060000 	streq	r0, [r6, -r0]
    1bd0:	0000073d 	andeq	r0, r0, sp, lsr r7
    1bd4:	083d0707 	ldmdaeq	sp!, {r0, r1, r2, r8, r9, sl}
    1bd8:	07080000 	streq	r0, [r8, -r0]
    1bdc:	0000078a 	andeq	r0, r0, sl, lsl #15
    1be0:	02870709 	addeq	r0, r7, #2359296	; 0x240000
    1be4:	070a0000 	streq	r0, [sl, -r0]
    1be8:	000000cc 	andeq	r0, r0, ip, asr #1
    1bec:	01e4070b 	mvneq	r0, fp, lsl #14
    1bf0:	070c0000 	streq	r0, [ip, -r0]
    1bf4:	00000312 	andeq	r0, r0, r2, lsl r3
    1bf8:	082d070d 	stmdaeq	sp!, {r0, r2, r3, r8, r9, sl}
    1bfc:	070e0000 	streq	r0, [lr, -r0]
    1c00:	00000a4c 	andeq	r0, r0, ip, asr #20
    1c04:	0112070f 	tsteq	r2, pc, lsl #14
    1c08:	07190000 	ldreq	r0, [r9, -r0]
    1c0c:	00000651 	andeq	r0, r0, r1, asr r6
    1c10:	06b3071a 	ssateq	r0, #20, sl, lsl #14
    1c14:	071b0000 	ldreq	r0, [fp, -r0]
    1c18:	00000554 	andeq	r0, r0, r4, asr r5
    1c1c:	0979071c 	ldmdbeq	r9!, {r2, r3, r4, r8, r9, sl}^
    1c20:	071d0000 	ldreq	r0, [sp, -r0]
    1c24:	00000976 	andeq	r0, r0, r6, ror r9
    1c28:	03d8071e 	bicseq	r0, r8, #7864320	; 0x780000
    1c2c:	071f0000 	ldreq	r0, [pc, -r0]
    1c30:	000007c7 	andeq	r0, r0, r7, asr #15
    1c34:	08d30720 	ldmeq	r3, {r5, r8, r9, sl}^
    1c38:	07210000 	streq	r0, [r1, -r0]!
    1c3c:	0000025a 	andeq	r0, r0, sl, asr r2
    1c40:	015d0722 	cmpeq	sp, r2, lsr #14
    1c44:	07230000 	streq	r0, [r3, -r0]!
    1c48:	000001b1 			; <UNDEFINED> instruction: 0x000001b1
    1c4c:	04dd0724 	ldrbeq	r0, [sp], #1828	; 0x724
    1c50:	07250000 	streq	r0, [r5, -r0]!
    1c54:	00000189 	andeq	r0, r0, r9, lsl #3
    1c58:	002c0726 	eoreq	r0, ip, r6, lsr #14
    1c5c:	07270000 	streq	r0, [r7, -r0]!
    1c60:	000006d2 	ldrdeq	r0, [r0], -r2
    1c64:	02f90728 	rscseq	r0, r9, #40, 14	; 0xa00000
    1c68:	07290000 	streq	r0, [r9, -r0]!
    1c6c:	00000484 	andeq	r0, r0, r4, lsl #9
    1c70:	04e8072a 	strbteq	r0, [r8], #1834	; 0x72a
    1c74:	072b0000 	streq	r0, [fp, -r0]!
    1c78:	000000dc 	ldrdeq	r0, [r0], -ip
    1c7c:	0040072c 	subeq	r0, r0, ip, lsr #14
    1c80:	072d0000 	streq	r0, [sp, -r0]!
    1c84:	00000929 	andeq	r0, r0, r9, lsr #18
    1c88:	06e9072e 	strbteq	r0, [r9], lr, lsr #14
    1c8c:	072f0000 	streq	r0, [pc, -r0]!
    1c90:	000009f0 	strdeq	r0, [r0], -r0	; <UNPREDICTABLE>
    1c94:	08820730 	stmeq	r2, {r4, r5, r8, r9, sl}
    1c98:	07310000 	ldreq	r0, [r1, -r0]!
    1c9c:	000007e4 	andeq	r0, r0, r4, ror #15
    1ca0:	062a0732 			; <UNDEFINED> instruction: 0x062a0732
    1ca4:	07330000 	ldreq	r0, [r3, -r0]!
    1ca8:	00000264 	andeq	r0, r0, r4, ror #4
    1cac:	03990734 	orrseq	r0, r9, #52, 14	; 0xd00000
    1cb0:	07350000 	ldreq	r0, [r5, -r0]!
    1cb4:	00000424 	andeq	r0, r0, r4, lsr #8
    1cb8:	08fa0736 	ldmeq	sl!, {r1, r2, r4, r5, r8, r9, sl}^
    1cbc:	07370000 	ldreq	r0, [r7, -r0]!
    1cc0:	00000692 	muleq	r0, r2, r6
    1cc4:	06c50738 			; <UNDEFINED> instruction: 0x06c50738
    1cc8:	07390000 	ldreq	r0, [r9, -r0]!
    1ccc:	00000687 	andeq	r0, r0, r7, lsl #13
    1cd0:	0016073a 	andseq	r0, r6, sl, lsr r7
    1cd4:	073b0000 	ldreq	r0, [fp, -r0]!
    1cd8:	00000144 	andeq	r0, r0, r4, asr #2
    1cdc:	022f073c 	eoreq	r0, pc, #60, 14	; 0xf00000
    1ce0:	073d0000 	ldreq	r0, [sp, -r0]!
    1ce4:	00000771 	andeq	r0, r0, r1, ror r7
    1ce8:	090d073e 	stmdbeq	sp, {r1, r2, r3, r4, r5, r8, r9, sl}
    1cec:	073f0000 	ldreq	r0, [pc, -r0]!
    1cf0:	00000a31 	andeq	r0, r0, r1, lsr sl
    1cf4:	03e70740 	mvneq	r0, #64, 14	; 0x1000000
    1cf8:	07410000 	strbeq	r0, [r1, -r0]
    1cfc:	0000053b 	andeq	r0, r0, fp, lsr r5
    1d00:	03510742 	cmpeq	r1, #17301504	; 0x1080000
    1d04:	07430000 	strbeq	r0, [r3, -r0]
    1d08:	00000799 	muleq	r0, r9, r7
    1d0c:	08c90744 	stmiaeq	r9, {r2, r6, r8, r9, sl}^
    1d10:	07450000 	strbeq	r0, [r5, -r0]
    1d14:	00000225 	andeq	r0, r0, r5, lsr #4
    1d18:	00c10746 	sbceq	r0, r1, r6, asr #14
    1d1c:	07470000 	strbeq	r0, [r7, -r0]
    1d20:	00000035 	andeq	r0, r0, r5, lsr r0
    1d24:	052b0748 	streq	r0, [fp, #-1864]!	; 0xfffff8b8
    1d28:	07490000 	strbeq	r0, [r9, -r0]
    1d2c:	000008ec 	andeq	r0, r0, ip, ror #17
    1d30:	03fd074a 	mvnseq	r0, #19398656	; 0x1280000
    1d34:	074b0000 	strbeq	r0, [fp, -r0]
    1d38:	00000493 	muleq	r0, r3, r4
    1d3c:	0097074c 	addseq	r0, r7, ip, asr #14
    1d40:	074d0000 	strbeq	r0, [sp, -r0]
    1d44:	00000875 	andeq	r0, r0, r5, ror r8
    1d48:	060f074e 	streq	r0, [pc], -lr, asr #14
    1d4c:	074f0000 	strbeq	r0, [pc, -r0]
    1d50:	00000567 	andeq	r0, r0, r7, ror #10
    1d54:	024d0750 	subeq	r0, sp, #80, 14	; 0x1400000
    1d58:	07510000 	ldrbeq	r0, [r1, -r0]
    1d5c:	00000823 	andeq	r0, r0, r3, lsr #16
    1d60:	03080752 	movweq	r0, #34642	; 0x8752
    1d64:	07530000 	ldrbeq	r0, [r3, -r0]
    1d68:	00000479 	andeq	r0, r0, r9, ror r4
    1d6c:	02770754 	rsbseq	r0, r7, #84, 14	; 0x1500000
    1d70:	07550000 	ldrbeq	r0, [r5, -r0]
    1d74:	00000193 	muleq	r0, r3, r1
    1d78:	069f0756 			; <UNDEFINED> instruction: 0x069f0756
    1d7c:	07570000 	ldrbeq	r0, [r7, -r0]
    1d80:	0000086a 	andeq	r0, r0, sl, ror #16
    1d84:	09b00758 	ldmibeq	r0!, {r3, r4, r6, r8, r9, sl}
    1d88:	07590000 	ldrbeq	r0, [r9, -r0]
    1d8c:	00000919 	andeq	r0, r0, r9, lsl r9
    1d90:	06fa075a 	usateq	r0, #26, sl, asr #14
    1d94:	075b0000 	ldrbeq	r0, [fp, -r0]
    1d98:	000004f3 	strdeq	r0, [r0], -r3
    1d9c:	0070075c 	rsbseq	r0, r0, ip, asr r7
    1da0:	075d0000 	ldrbeq	r0, [sp, -r0]
    1da4:	00000a1c 	andeq	r0, r0, ip, lsl sl
    1da8:	08dc075e 	ldmeq	ip, {r1, r2, r3, r4, r6, r8, r9, sl}^
    1dac:	075f0000 	ldrbeq	r0, [pc, -r0]
    1db0:	0000032c 	andeq	r0, r0, ip, lsr #6
    1db4:	02970760 	addseq	r0, r7, #96, 14	; 0x1800000
    1db8:	07610000 	strbeq	r0, [r1, -r0]!
    1dbc:	000004ab 	andeq	r0, r0, fp, lsr #9
    1dc0:	07a30762 	streq	r0, [r3, r2, ror #14]!
    1dc4:	07630000 	strbeq	r0, [r3, -r0]!
    1dc8:	0000088d 	andeq	r0, r0, sp, lsl #17
    1dcc:	012a0764 			; <UNDEFINED> instruction: 0x012a0764
    1dd0:	07650000 	strbeq	r0, [r5, -r0]!
    1dd4:	00000166 	andeq	r0, r0, r6, ror #2
    1dd8:	03b30766 			; <UNDEFINED> instruction: 0x03b30766
    1ddc:	07670000 	strbeq	r0, [r7, -r0]!
    1de0:	000004c4 	andeq	r0, r0, r4, asr #9
    1de4:	0a020768 	beq	83b8c <shift+0x83b8c>
    1de8:	07690000 	strbeq	r0, [r9, -r0]!
    1dec:	000008b0 			; <UNDEFINED> instruction: 0x000008b0
    1df0:	035b076a 	cmpeq	fp, #27787264	; 0x1a80000
    1df4:	076b0000 	strbeq	r0, [fp, -r0]!
    1df8:	0000045a 	andeq	r0, r0, sl, asr r4
    1dfc:	0933076c 	ldmdbeq	r3!, {r2, r3, r5, r6, r8, r9, sl}
    1e00:	076d0000 	strbeq	r0, [sp, -r0]!
    1e04:	000003a2 	andeq	r0, r0, r2, lsr #7
    1e08:	0203076e 	andeq	r0, r3, #28835840	; 0x1b80000
    1e0c:	076f0000 	strbeq	r0, [pc, -r0]!
    1e10:	000009e5 	andeq	r0, r0, r5, ror #19
    1e14:	00650770 	rsbeq	r0, r5, r0, ror r7
    1e18:	07710000 	ldrbeq	r0, [r1, -r0]!
    1e1c:	0000067e 	andeq	r0, r0, lr, ror r6
    1e20:	01da0772 	bicseq	r0, sl, r2, ror r7
    1e24:	07730000 	ldrbeq	r0, [r3, -r0]!
    1e28:	000002ef 	andeq	r0, r0, pc, ror #5
    1e2c:	08190774 	ldmdaeq	r9, {r2, r4, r5, r6, r8, r9, sl}
    1e30:	07750000 	ldrbeq	r0, [r5, -r0]!
    1e34:	00000944 	andeq	r0, r0, r4, asr #18
    1e38:	01bb0776 			; <UNDEFINED> instruction: 0x01bb0776
    1e3c:	07770000 	ldrbeq	r0, [r7, -r0]!
    1e40:	000002d0 	ldrdeq	r0, [r0], -r0	; <UNPREDICTABLE>
    1e44:	09dc0778 	ldmibeq	ip, {r3, r4, r5, r6, r8, r9, sl}^
    1e48:	07790000 	ldrbeq	r0, [r9, -r0]!
    1e4c:	00000449 	andeq	r0, r0, r9, asr #8
    1e50:	0824077a 	stmdaeq	r4!, {r1, r3, r4, r5, r6, r8, r9, sl}
    1e54:	077b0000 	ldrbeq	r0, [fp, -r0]!
    1e58:	00000214 	andeq	r0, r0, r4, lsl r2
    1e5c:	0101077c 	tsteq	r1, ip, ror r7
    1e60:	077d0000 	ldrbeq	r0, [sp, -r0]!
    1e64:	000007f2 	strdeq	r0, [r0], -r2
    1e68:	033c077e 	teqeq	ip, #33030144	; 0x1f80000
    1e6c:	077f0000 	ldrbeq	r0, [pc, -r0]!
    1e70:	0000098d 	andeq	r0, r0, sp, lsl #19
    1e74:	03220780 			; <UNDEFINED> instruction: 0x03220780
    1e78:	07810000 	streq	r0, [r1, r0]
    1e7c:	000004a1 	andeq	r0, r0, r1, lsr #9
    1e80:	03750782 	cmneq	r5, #34078720	; 0x2080000
    1e84:	07830000 	streq	r0, [r3, r0]
    1e88:	0000075d 	andeq	r0, r0, sp, asr r7
    1e8c:	084c0784 	stmdaeq	ip, {r2, r7, r8, r9, sl}^
    1e90:	07850000 	streq	r0, [r5, r0]
    1e94:	000001c9 	andeq	r0, r0, r9, asr #3
    1e98:	071e0786 	ldreq	r0, [lr, -r6, lsl #15]
    1e9c:	07870000 	streq	r0, [r7, r0]
    1ea0:	00000517 	andeq	r0, r0, r7, lsl r5
    1ea4:	05030788 	streq	r0, [r3, #-1928]	; 0xfffff878
    1ea8:	07890000 	streq	r0, [r9, r0]
    1eac:	0000070a 	andeq	r0, r0, sl, lsl #14
    1eb0:	017f078a 	cmneq	pc, sl, lsl #15
    1eb4:	078b0000 	streq	r0, [fp, r0]
    1eb8:	00000021 	andeq	r0, r0, r1, lsr #32
    1ebc:	07bd078c 	ldreq	r0, [sp, ip, lsl #15]!
    1ec0:	078d0000 	streq	r0, [sp, r0]
    1ec4:	000003f3 	strdeq	r0, [r0], -r3
    1ec8:	06a9078e 	strteq	r0, [r9], lr, lsl #15
    1ecc:	078f0000 	streq	r0, [pc, r0]
    1ed0:	000007d3 	ldrdeq	r0, [r0], -r3
    1ed4:	094e0790 	stmdbeq	lr, {r4, r7, r8, r9, sl}^
    1ed8:	07910000 	ldreq	r0, [r1, r0]
    1edc:	0000000c 	andeq	r0, r0, ip
    1ee0:	041a0792 	ldreq	r0, [sl], #-1938	; 0xfffff86e
    1ee4:	07930000 	ldreq	r0, [r3, r0]
    1ee8:	00000620 	andeq	r0, r0, r0, lsr #12
    1eec:	07670794 			; <UNDEFINED> instruction: 0x07670794
    1ef0:	07950000 	ldreq	r0, [r5, r0]
    1ef4:	000003cd 	andeq	r0, r0, sp, asr #7
    1ef8:	01a10796 			; <UNDEFINED> instruction: 0x01a10796
    1efc:	07970000 	ldreq	r0, [r7, r0]
    1f00:	00000520 	andeq	r0, r0, r0, lsr #10
    1f04:	09cc0798 	stmibeq	ip, {r3, r4, r7, r8, r9, sl}^
    1f08:	07990000 	ldreq	r0, [r9, r0]
    1f0c:	00000578 	andeq	r0, r0, r8, ror r5
    1f10:	074c079a 			; <UNDEFINED> instruction: 0x074c079a
    1f14:	079b0000 	ldreq	r0, [fp, r0]
    1f18:	00000859 	andeq	r0, r0, r9, asr r8
    1f1c:	099f079c 	ldmibeq	pc, {r2, r3, r4, r7, r8, r9, sl}	; <UNPREDICTABLE>
    1f20:	079d0000 	ldreq	r0, [sp, r0]
    1f24:	000002de 	ldrdeq	r0, [r0], -lr
    1f28:	0057079e 			; <UNDEFINED> instruction: 0x0057079e
    1f2c:	009f0000 	addseq	r0, pc, r0
    1f30:	000dcd05 	andeq	ip, sp, r5, lsl #26
    1f34:	22fa0400 	rscscs	r0, sl, #0, 8
    1f38:	04000001 	streq	r0, [r0], #-1
    1f3c:	09bb0704 	ldmibeq	fp!, {r2, r8, r9, sl}
    1f40:	040b0000 	streq	r0, [fp], #-0
    1f44:	0010310c 	andseq	r3, r0, ip, lsl #2
    1f48:	08140100 	ldmdaeq	r4, {r8}
    1f4c:	68801006 	stmvs	r0, {r1, r2, ip}
    1f50:	01000000 	mrseq	r0, (UNDEF: 0)
    1f54:	00056e9c 	muleq	r5, ip, lr
    1f58:	72690d00 	rsbvc	r0, r9, #0, 26
    1f5c:	14010071 	strne	r0, [r1], #-113	; 0xffffff8f
    1f60:	000004c4 	andeq	r0, r0, r4, asr #9
    1f64:	00000445 	andeq	r0, r0, r5, asr #8
    1f68:	000e270e 	andeq	r2, lr, lr, lsl #14
    1f6c:	d6140100 	ldrle	r0, [r4], -r0, lsl #2
    1f70:	66000004 	strvs	r0, [r0], -r4
    1f74:	0f000004 	svceq	0x00000004
    1f78:	00001050 	andeq	r1, r0, r0, asr r0
    1f7c:	056e1701 	strbeq	r1, [lr, #-1793]!	; 0xfffff8ff
    1f80:	c0000000 	andgt	r0, r0, r0
    1f84:	6910020a 	ldmdbvs	r0, {r1, r3, r9}
    1f88:	0f180100 	svceq	0x00180100
    1f8c:	02000001 	andeq	r0, r0, #1
    1f90:	2b116c91 	blcs	45d1dc <shift+0x45d1dc>
    1f94:	01000010 	tsteq	r0, r0, lsl r0
    1f98:	00010819 	andeq	r0, r1, r9, lsl r8
    1f9c:	10030500 	andne	r0, r3, r0, lsl #10
    1fa0:	12801017 	addne	r1, r0, #23
    1fa4:	80100612 	andshi	r0, r0, r2, lsl r6
    1fa8:	000005cb 	andeq	r0, r0, fp, asr #11
    1fac:	0000054b 	andeq	r0, r0, fp, asr #10
    1fb0:	02500113 	subseq	r0, r0, #-1073741820	; 0xc0000004
    1fb4:	12006c08 	andne	r6, r0, #8, 24	; 0x800
    1fb8:	8010063c 	andshi	r0, r0, ip, lsr r6
    1fbc:	000005d6 	ldrdeq	r0, [r0], -r6
    1fc0:	00000564 	andeq	r0, r0, r4, ror #10
    1fc4:	02500113 	subseq	r0, r0, #-1073741820	; 0xc0000004
    1fc8:	01130074 	tsteq	r3, r4, ror r0
    1fcc:	00310151 	eorseq	r0, r1, r1, asr r1
    1fd0:	10065614 	andne	r5, r6, r4, lsl r6
    1fd4:	0005e180 	andeq	lr, r5, r0, lsl #3
    1fd8:	04150000 	ldreq	r0, [r5], #-0
    1fdc:	00000095 	muleq	r0, r5, r0
    1fe0:	0002a70c 	andeq	sl, r2, ip, lsl #14
    1fe4:	c4090100 	strgt	r0, [r9], #-256	; 0xffffff00
    1fe8:	42801005 	addmi	r1, r0, #5
    1fec:	01000000 	mrseq	r0, (UNDEF: 0)
    1ff0:	0005cb9c 	muleq	r5, ip, fp
    1ff4:	10500f00 	subsne	r0, r0, r0, lsl #30
    1ff8:	0b010000 	bleq	42000 <shift+0x42000>
    1ffc:	0000056e 	andeq	r0, r0, lr, ror #10
    2000:	020ac000 	andeq	ip, sl, #0
    2004:	1005f812 	andne	pc, r5, r2, lsl r8	; <UNPREDICTABLE>
    2008:	0005ec80 	andeq	lr, r5, r0, lsl #25
    200c:	0005b600 	andeq	fp, r5, r0, lsl #12
    2010:	50011300 	andpl	r1, r1, r0, lsl #6
    2014:	13007402 	movwne	r7, #1026	; 0x402
    2018:	31015101 	tstcc	r1, r1, lsl #2
    201c:	01520113 	cmpeq	r2, r3, lsl r1
    2020:	06160032 			; <UNDEFINED> instruction: 0x06160032
    2024:	f7801006 			; <UNDEFINED> instruction: 0xf7801006
    2028:	13000005 	movwne	r0, #5
    202c:	31015101 	tstcc	r1, r1, lsl #2
    2030:	01520113 	cmpeq	r2, r3, lsl r1
    2034:	17000033 	smladxne	r0, r3, r0, r0
    2038:	00000ce7 	andeq	r0, r0, r7, ror #25
    203c:	00000ce7 	andeq	r0, r0, r7, ror #25
    2040:	b2172205 	andslt	r2, r7, #1342177280	; 0x50000000
    2044:	b200000b 	andlt	r0, r0, #11
    2048:	0300000b 	movweq	r0, #11
    204c:	0aba171a 	beq	fee87cbc <__bss_end+0x7ed860a8>
    2050:	0aba0000 	beq	fee82058 <__bss_end+0x7ed80444>
    2054:	07060000 	streq	r0, [r6, -r0]
    2058:	000af017 	andeq	pc, sl, r7, lsl r0	; <UNPREDICTABLE>
    205c:	000af000 	andeq	pc, sl, r0
    2060:	17170300 	ldrne	r0, [r7, -r0, lsl #6]
    2064:	00000ba1 	andeq	r0, r0, r1, lsr #23
    2068:	00000ba1 	andeq	r0, r0, r1, lsr #23
    206c:	d7001803 	strle	r1, [r0, -r3, lsl #16]
    2070:	04000008 	streq	r0, [r0], #-8
    2074:	00094f00 	andeq	r4, r9, r0, lsl #30
    2078:	89010400 	stmdbhi	r1, {sl}
    207c:	0c000005 	stceq	0, cr0, [r0], {5}
    2080:	00001060 	andeq	r1, r0, r0, rrx
    2084:	000000a5 	andeq	r0, r0, r5, lsr #1
    2088:	80100670 	andshi	r0, r0, r0, ror r6
    208c:	000003d8 	ldrdeq	r0, [r0], -r8
    2090:	0000055c 	andeq	r0, r0, ip, asr r5
    2094:	31060102 	tstcc	r6, r2, lsl #2
    2098:	03000007 	movweq	r0, #7
    209c:	03003875 	movweq	r3, #2165	; 0x875
    20a0:	0000360f 	andeq	r3, r0, pc, lsl #12
    20a4:	08010200 	stmdaeq	r1, {r9}
    20a8:	0000072f 	andeq	r0, r0, pc, lsr #14
    20ac:	3f050202 	svccc	0x00050202
    20b0:	03000004 	movweq	r0, #4
    20b4:	00363175 	eorseq	r3, r6, r5, ror r1
    20b8:	004f1203 	subeq	r1, pc, r3, lsl #4
    20bc:	02020000 	andeq	r0, r2, #0
    20c0:	00038607 	andeq	r8, r3, r7, lsl #12
    20c4:	05040400 	streq	r0, [r4, #-1024]	; 0xfffffc00
    20c8:	00746e69 	rsbseq	r6, r4, r9, ror #28
    20cc:	32337503 	eorscc	r7, r3, #12582912	; 0xc00000
    20d0:	68150300 	ldmdavs	r5, {r8, r9}
    20d4:	02000000 	andeq	r0, r0, #0
    20d8:	008a0704 	addeq	r0, sl, r4, lsl #14
    20dc:	08020000 	stmdaeq	r2, {}	; <UNPREDICTABLE>
    20e0:	00014f05 	andeq	r4, r1, r5, lsl #30
    20e4:	07080200 	streq	r0, [r8, -r0, lsl #4]
    20e8:	00000080 	andeq	r0, r0, r0, lsl #1
    20ec:	000cac05 	andeq	sl, ip, r5, lsl #24
    20f0:	2c1a0300 	ldccs	3, cr0, [sl], {-0}
    20f4:	05000000 	streq	r0, [r0, #-0]
    20f8:	00001120 	andeq	r1, r0, r0, lsr #2
    20fc:	00441c03 	subeq	r1, r4, r3, lsl #24
    2100:	88060000 	stmdahi	r6, {}	; <UNPREDICTABLE>
    2104:	05000000 	streq	r0, [r0, #-0]
    2108:	00000cef 	andeq	r0, r0, pc, ror #25
    210c:	005d1e03 	subseq	r1, sp, r3, lsl #28
    2110:	04020000 	streq	r0, [r2], #-0
    2114:	0009bb07 	andeq	fp, r9, r7, lsl #22
    2118:	04120700 	ldreq	r0, [r2], #-1792	; 0xfffff900
    211c:	01293a24 			; <UNDEFINED> instruction: 0x01293a24
    2120:	1b080000 	blne	202128 <shift+0x202128>
    2124:	04000011 	streq	r0, [r0], #-17	; 0xffffffef
    2128:	00933a25 	addseq	r3, r3, r5, lsr #20
    212c:	08000000 	stmdaeq	r0, {}	; <UNPREDICTABLE>
    2130:	00000d08 	andeq	r0, r0, r8, lsl #26
    2134:	293a2604 	ldmdbcs	sl!, {r2, r9, sl, sp}
    2138:	02000001 	andeq	r0, r0, #1
    213c:	00117208 	andseq	r7, r1, r8, lsl #4
    2140:	3a270400 	bcc	9c3148 <shift+0x9c3148>
    2144:	00000093 	muleq	r0, r3, r0
    2148:	0d130804 	ldceq	8, cr0, [r3, #-16]
    214c:	28040000 	stmdacs	r4, {}	; <UNPREDICTABLE>
    2150:	0001293a 	andeq	r2, r1, sl, lsr r9
    2154:	5b080600 	blpl	20395c <shift+0x20395c>
    2158:	04000010 	streq	r0, [r0], #-16
    215c:	00933a29 	addseq	r3, r3, r9, lsr #20
    2160:	08080000 	stmdaeq	r8, {}	; <UNPREDICTABLE>
    2164:	00001150 	andeq	r1, r0, r0, asr r1
    2168:	293a2a04 	ldmdbcs	sl!, {r2, r9, fp, sp}
    216c:	0a000001 	beq	2178 <shift+0x2178>
    2170:	0010b108 	andseq	fp, r0, r8, lsl #2
    2174:	3a2b0400 	bcc	ac317c <shift+0xac317c>
    2178:	00000093 	muleq	r0, r3, r0
    217c:	115b080c 	cmpne	fp, ip, lsl #16
    2180:	2c040000 	stccs	0, cr0, [r4], {-0}
    2184:	0001293a 	andeq	r2, r1, sl, lsr r9
    2188:	ac080e00 	stcge	14, cr0, [r8], {-0}
    218c:	04000010 	streq	r0, [r0], #-16
    2190:	00933a2d 	addseq	r3, r3, sp, lsr #20
    2194:	00100000 	andseq	r0, r0, r0
    2198:	00007d09 	andeq	r7, r0, r9, lsl #26
    219c:	00013900 	andeq	r3, r1, r0, lsl #18
    21a0:	00a30a00 	adceq	r0, r3, r0, lsl #20
    21a4:	00010000 	andeq	r0, r1, r0
    21a8:	0010c20b 	andseq	ip, r0, fp, lsl #4
    21ac:	3a2e0400 	bcc	b831b4 <shift+0xb831b4>
    21b0:	000000aa 	andeq	r0, r0, sl, lsr #1
    21b4:	0068040c 	rsbeq	r0, r8, ip, lsl #8
    21b8:	0d050000 	stceq	0, cr0, [r5, #-0]
    21bc:	0000015e 	andeq	r0, r0, lr, asr r1
    21c0:	0010660d 	andseq	r6, r0, sp, lsl #12
    21c4:	700d0000 	andvc	r0, sp, r0
    21c8:	01000010 	tsteq	r0, r0, lsl r0
    21cc:	11c70e00 	bicne	r0, r7, r0, lsl #28
    21d0:	05180000 	ldreq	r0, [r8, #-0]
    21d4:	0001b30b 	andeq	fp, r1, fp, lsl #6
    21d8:	11080f00 	tstne	r8, r0, lsl #30
    21dc:	0c050000 	stceq	0, cr0, [r5], {-0}
    21e0:	00000068 	andeq	r0, r0, r8, rrx
    21e4:	69641000 	stmdbvs	r4!, {ip}^
    21e8:	10050072 	andne	r0, r5, r2, ror r0
    21ec:	00000145 	andeq	r0, r0, r5, asr #2
    21f0:	0b530f04 	bleq	14c5e08 <shift+0x14c5e08>
    21f4:	11050000 	mrsne	r0, (UNDEF: 5)
    21f8:	000001b3 			; <UNDEFINED> instruction: 0x000001b3
    21fc:	656c1008 	strbvs	r1, [ip, #-8]!
    2200:	1205006e 	andne	r0, r5, #110	; 0x6e
    2204:	00000068 	andeq	r0, r0, r8, rrx
    2208:	11410f0c 	cmpne	r1, ip, lsl #30
    220c:	13050000 	movwne	r0, #20480	; 0x5000
    2210:	00000068 	andeq	r0, r0, r8, rrx
    2214:	11490f10 	cmpne	r9, r0, lsl pc
    2218:	14050000 	strne	r0, [r5], #-0
    221c:	00000068 	andeq	r0, r0, r8, rrx
    2220:	04110014 	ldreq	r0, [r1], #-20	; 0xffffffec
    2224:	00000036 	andeq	r0, r0, r6, lsr r0
    2228:	00117705 	andseq	r7, r1, r5, lsl #14
    222c:	5e150500 	cfmul32pl	mvfx0, mvfx5, mvfx0
    2230:	12000001 	andne	r0, r0, #1
    2234:	000011a7 	andeq	r1, r0, r7, lsr #3
    2238:	68010e01 	stmdavs	r1, {r0, r9, sl, fp}
    223c:	2c000000 	stccs	0, cr0, [r0], {-0}
    2240:	1c80100a 	stcne	0, cr1, [r0], {10}
    2244:	01000000 	mrseq	r0, (UNDEF: 0)
    2248:	0002539c 	muleq	r2, ip, r3
    224c:	0d341300 	ldceq	3, cr1, [r4, #-0]
    2250:	0e010000 	cdpeq	0, 0, cr0, cr1, cr0, {0}
    2254:	00025301 	andeq	r5, r2, r1, lsl #6
    2258:	00048700 	andeq	r8, r4, r0, lsl #14
    225c:	11081300 	mrsne	r1, (UNDEF: 56)
    2260:	0e010000 	cdpeq	0, 0, cr0, cr1, cr0, {0}
    2264:	00003601 	andeq	r3, r0, r1, lsl #12
    2268:	0004a800 	andeq	sl, r4, r0, lsl #16
    226c:	65721400 	ldrbvs	r1, [r2, #-1024]!	; 0xfffffc00
    2270:	0e010067 	cdpeq	0, 0, cr0, cr1, cr7, {3}
    2274:	00006801 	andeq	r6, r0, r1, lsl #16
    2278:	0004c900 	andeq	ip, r4, r0, lsl #18
    227c:	0b531300 	bleq	14c6e84 <shift+0x14c6e84>
    2280:	0e010000 	cdpeq	0, 0, cr0, cr1, cr0, {0}
    2284:	0001b301 	andeq	fp, r1, r1, lsl #6
    2288:	0004ea00 	andeq	lr, r4, r0, lsl #20
    228c:	65721500 	ldrbvs	r1, [r2, #-1280]!	; 0xfffffb00
    2290:	10010074 	andne	r0, r1, r4, ror r0
    2294:	00006801 	andeq	r6, r0, r1, lsl #16
    2298:	15500100 	ldrbne	r0, [r0, #-256]	; 0xffffff00
    229c:	0067736d 	rsbeq	r7, r7, sp, ror #6
    22a0:	b9011101 	stmdblt	r1, {r0, r8, ip}
    22a4:	02000001 	andeq	r0, r0, #1
    22a8:	44166091 	ldrmi	r6, [r6], #-145	; 0xffffff6f
    22ac:	f280100a 	vaddl.s8	<illegal reg q0.5>, d0, d10
    22b0:	17000002 	strne	r0, [r0, -r2]
    22b4:	f3035001 	vhadd.u8	d5, d3, d1
    22b8:	01175001 	tsteq	r7, r1
    22bc:	007d0251 	rsbseq	r0, sp, r1, asr r2
    22c0:	04110000 	ldreq	r0, [r1], #-0
    22c4:	00000139 	andeq	r0, r0, r9, lsr r1
    22c8:	0010e718 	andseq	lr, r0, r8, lsl r7
    22cc:	68ff0100 	ldmvs	pc!, {r8}^	; <UNPREDICTABLE>
    22d0:	08000000 	stmdaeq	r0, {}	; <UNPREDICTABLE>
    22d4:	2480100a 	strcs	r1, [r0], #10
    22d8:	01000000 	mrseq	r0, (UNDEF: 0)
    22dc:	0002f29c 	muleq	r2, ip, r2
    22e0:	0d341900 			; <UNDEFINED> instruction: 0x0d341900
    22e4:	ff010000 			; <UNDEFINED> instruction: 0xff010000
    22e8:	00000253 	andeq	r0, r0, r3, asr r2
    22ec:	0000050b 	andeq	r0, r0, fp, lsl #10
    22f0:	00110819 	andseq	r0, r1, r9, lsl r8
    22f4:	36ff0100 	ldrbtcc	r0, [pc], r0, lsl #2
    22f8:	2c000000 	stccs	0, cr0, [r0], {-0}
    22fc:	1a000005 	bne	2318 <shift+0x2318>
    2300:	00676572 	rsbeq	r6, r7, r2, ror r5
    2304:	0068ff01 	rsbeq	pc, r8, r1, lsl #30
    2308:	054d0000 	strbeq	r0, [sp, #-0]
    230c:	53190000 	tstpl	r9, #0
    2310:	0100000b 	tsteq	r0, fp
    2314:	000036ff 	strdeq	r3, [r0], -pc	; <UNPREDICTABLE>
    2318:	00056e00 	andeq	r6, r5, r0, lsl #28
    231c:	65721500 	ldrbvs	r1, [r2, #-1280]!	; 0xfffffb00
    2320:	01010074 	tsteq	r1, r4, ror r0
    2324:	00006801 	andeq	r6, r0, r1, lsl #16
    2328:	1b500100 	blne	1402730 <shift+0x1402730>
    232c:	000011b0 			; <UNDEFINED> instruction: 0x000011b0
    2330:	36010201 	strcc	r0, [r1], -r1, lsl #4
    2334:	02000000 	andeq	r0, r0, #0
    2338:	6d155791 	ldcvs	7, cr5, [r5, #-580]	; 0xfffffdbc
    233c:	01006773 	tsteq	r0, r3, ror r7
    2340:	01b90103 			; <UNDEFINED> instruction: 0x01b90103
    2344:	91020000 	mrsls	r0, (UNDEF: 2)
    2348:	0a281658 	beq	a07cb0 <shift+0xa07cb0>
    234c:	02f28010 	rscseq	r8, r2, #16
    2350:	01170000 	tsteq	r7, r0
    2354:	01f30350 	mvnseq	r0, r0, asr r3
    2358:	51011750 	tstpl	r1, r0, asr r7
    235c:	00589102 	subseq	r9, r8, r2, lsl #2
    2360:	11c81800 	bicne	r1, r8, r0, lsl #16
    2364:	c0010000 	andgt	r0, r1, r0
    2368:	00000068 	andeq	r0, r0, r8, rrx
    236c:	80100938 	andshi	r0, r0, r8, lsr r9
    2370:	000000d0 	ldrdeq	r0, [r0], -r0	; <UNPREDICTABLE>
    2374:	04159c01 	ldreq	r9, [r5], #-3073	; 0xfffff3ff
    2378:	34190000 	ldrcc	r0, [r9], #-0
    237c:	0100000d 	tsteq	r0, sp
    2380:	000253c0 	andeq	r5, r2, r0, asr #7
    2384:	00058f00 	andeq	r8, r5, r0, lsl #30
    2388:	736d1a00 	cmnvc	sp, #0, 20
    238c:	c0010067 	andgt	r0, r1, r7, rrx
    2390:	00000415 	andeq	r0, r0, r5, lsl r4
    2394:	000005ea 	andeq	r0, r0, sl, ror #11
    2398:	7465721c 	strbtvc	r7, [r5], #-540	; 0xfffffde4
    239c:	68c20100 	stmiavs	r2, {r8}^
    23a0:	37000000 	strcc	r0, [r0, -r0]
    23a4:	1c000006 	stcne	0, cr0, [r0], {6}
    23a8:	006e656c 	rsbeq	r6, lr, ip, ror #10
    23ac:	0068c301 	rsbeq	ip, r8, r1, lsl #6
    23b0:	069b0000 	ldreq	r0, [fp], r0
    23b4:	a21d0000 	andsge	r0, sp, #0
    23b8:	6a000005 	bvs	23d4 <shift+0x23d4>
    23bc:	1e801009 	cdpne	0, 8, cr1, cr0, cr9, {0}
    23c0:	01000000 	mrseq	r0, (UNDEF: 0)
    23c4:	000373d7 	ldrdeq	r7, [r3], -r7	; <UNPREDICTABLE>
    23c8:	05b21e00 	ldreq	r1, [r2, #3584]!	; 0xe00
    23cc:	06f80000 	ldrbteq	r0, [r8], r0
    23d0:	6a1f0000 	bvs	7c23d8 <shift+0x7c23d8>
    23d4:	1e801009 	cdpne	0, 8, cr1, cr0, cr9, {0}
    23d8:	20000000 	andcs	r0, r0, r0
    23dc:	00000874 	andeq	r0, r0, r4, ror r8
    23e0:	a21d0000 	andsge	r0, sp, #0
    23e4:	be000005 	cdplt	0, 0, cr0, cr0, cr5, {0}
    23e8:	1e801009 	cdpne	0, 8, cr1, cr0, cr9, {0}
    23ec:	01000000 	mrseq	r0, (UNDEF: 0)
    23f0:	00039fe9 	andeq	r9, r3, r9, ror #31
    23f4:	05b21e00 	ldreq	r1, [r2, #3584]!	; 0xe00
    23f8:	070b0000 	streq	r0, [fp, -r0]
    23fc:	be1f0000 	cdplt	0, 1, cr0, cr15, cr0, {0}
    2400:	1e801009 	cdpne	0, 8, cr1, cr0, cr9, {0}
    2404:	20000000 	andcs	r0, r0, r0
    2408:	00000874 	andeq	r0, r0, r4, ror r8
    240c:	5a210000 	bpl	842414 <shift+0x842414>
    2410:	c9801009 	stmibgt	r0, {r0, r3, ip}
    2414:	b9000005 	stmdblt	r0, {r0, r2}
    2418:	17000003 	strne	r0, [r0, -r3]
    241c:	74025001 	strvc	r5, [r2], #-1
    2420:	51011700 	tstpl	r1, r0, lsl #14
    2424:	00007602 	andeq	r7, r0, r2, lsl #12
    2428:	10096821 	andne	r6, r9, r1, lsr #16
    242c:	00056a80 	andeq	r6, r5, r0, lsl #21
    2430:	0003cd00 	andeq	ip, r3, r0, lsl #26
    2434:	50011700 	andpl	r1, r1, r0, lsl #14
    2438:	00007402 	andeq	r7, r0, r2, lsl #8
    243c:	1009ba21 	andne	fp, r9, r1, lsr #20
    2440:	00056a80 	andeq	r6, r5, r0, lsl #21
    2444:	0003e100 	andeq	lr, r3, r0, lsl #2
    2448:	50011700 	andpl	r1, r1, r0, lsl #14
    244c:	00007402 	andeq	r7, r0, r2, lsl #8
    2450:	1009f222 	andne	pc, r9, r2, lsr #4
    2454:	0004eb80 	andeq	lr, r4, r0, lsl #23
    2458:	0003fc00 	andeq	pc, r3, r0, lsl #24
    245c:	50011700 	andpl	r1, r1, r0, lsl #14
    2460:	5001f303 	andpl	pc, r1, r3, lsl #6
    2464:	02510117 	subseq	r0, r1, #-1073741819	; 0xc0000005
    2468:	23000071 	movwcs	r0, #113	; 0x71
    246c:	80100a08 	andshi	r0, r0, r8, lsl #20
    2470:	0000041b 	andeq	r0, r0, fp, lsl r4
    2474:	03500117 	cmpeq	r0, #-1073741819	; 0xc0000005
    2478:	175001f3 	smmlsrne	r0, r3, r1, r0
    247c:	f3035101 	vrhadd.u8	d5, d3, d1
    2480:	00005101 	andeq	r5, r0, r1, lsl #2
    2484:	01b90411 			; <UNDEFINED> instruction: 0x01b90411
    2488:	e8180000 	ldmda	r8, {}	; <UNPREDICTABLE>
    248c:	01000011 	tsteq	r0, r1, lsl r0
    2490:	00006879 	andeq	r6, r0, r9, ror r8
    2494:	10083c00 	andne	r3, r8, r0, lsl #24
    2498:	0000fc80 	andeq	pc, r0, r0, lsl #25
    249c:	eb9c0100 	bl	fe7028a4 <__bss_end+0x7e600c90>
    24a0:	19000004 	stmdbne	r0, {r2}
    24a4:	00000d34 	andeq	r0, r0, r4, lsr sp
    24a8:	02537901 	subseq	r7, r3, #16384	; 0x4000
    24ac:	071e0000 	ldreq	r0, [lr, -r0]
    24b0:	6d1a0000 	ldcvs	0, cr0, [sl, #-0]
    24b4:	01006773 	tsteq	r0, r3, ror r7
    24b8:	00041579 	andeq	r1, r4, r9, ror r5
    24bc:	00075200 	andeq	r5, r7, r0, lsl #4
    24c0:	65721c00 	ldrbvs	r1, [r2, #-3072]!	; 0xfffff400
    24c4:	7b010074 	blvc	4269c <shift+0x4269c>
    24c8:	00000068 	andeq	r0, r0, r8, rrx
    24cc:	000007ad 	andeq	r0, r0, sp, lsr #15
    24d0:	0010f924 	andseq	pc, r0, r4, lsr #18
    24d4:	687b0100 	ldmdavs	fp!, {r8}^
    24d8:	d6000000 	strle	r0, [r0], -r0
    24dc:	1d000007 	stcne	0, cr0, [r0, #-28]	; 0xffffffe4
    24e0:	000005a2 	andeq	r0, r0, r2, lsr #11
    24e4:	80100892 	mulshi	r0, r2, r8
    24e8:	0000001c 	andeq	r0, r0, ip, lsl r0
    24ec:	049cb101 	ldreq	fp, [ip], #257	; 0x101
    24f0:	b21e0000 	andslt	r0, lr, #0
    24f4:	f6000005 			; <UNDEFINED> instruction: 0xf6000005
    24f8:	1f000007 	svcne	0x00000007
    24fc:	80100892 	mulshi	r0, r2, r8
    2500:	0000001c 	andeq	r0, r0, ip, lsl r0
    2504:	00087420 	andeq	r7, r8, r0, lsr #8
    2508:	1d000000 	stcne	0, cr0, [r0, #-0]
    250c:	000005a2 	andeq	r0, r0, r2, lsr #11
    2510:	8010091a 	andshi	r0, r0, sl, lsl r9
    2514:	0000001e 	andeq	r0, r0, lr, lsl r0
    2518:	04c69801 	strbeq	r9, [r6], #2049	; 0x801
    251c:	b2250000 	eorlt	r0, r5, #0
    2520:	01000005 	tsteq	r0, r5
    2524:	091a1f54 	ldmdbeq	sl, {r2, r4, r6, r8, r9, sl, fp, ip}
    2528:	001e8010 	andseq	r8, lr, r0, lsl r0
    252c:	74200000 	strtvc	r0, [r0], #-0
    2530:	00000008 	andeq	r0, r0, r8
    2534:	08d62100 	ldmeq	r6, {r8, sp}^
    2538:	05868010 	streq	r8, [r6, #16]
    253c:	04da0000 	ldrbeq	r0, [sl], #0
    2540:	01170000 	tsteq	r7, r0
    2544:	00740250 	rsbseq	r0, r4, r0, asr r2
    2548:	09161600 	ldmdbeq	r6, {r9, sl, ip}
    254c:	056a8010 	strbeq	r8, [sl, #-16]!
    2550:	01170000 	tsteq	r7, r0
    2554:	00740250 	rsbseq	r0, r4, r0, asr r2
    2558:	11180000 	tstne	r8, r0
    255c:	01000011 	tsteq	r0, r1, lsl r0
    2560:	0000685f 	andeq	r6, r0, pc, asr r8
    2564:	1007d000 	andne	sp, r7, r0
    2568:	00006c80 	andeq	r6, r0, r0, lsl #25
    256c:	6a9c0100 	bvs	fe702974 <__bss_end+0x7e600d60>
    2570:	19000005 	stmdbne	r0, {r0, r2}
    2574:	00000d34 	andeq	r0, r0, r4, lsr sp
    2578:	02535f01 	subseq	r5, r3, #1, 30
    257c:	08090000 	stmdaeq	r9, {}	; <UNPREDICTABLE>
    2580:	6d260000 	stcvs	0, cr0, [r6, #-0]
    2584:	01006773 	tsteq	r0, r3, ror r7
    2588:	0004155f 	andeq	r1, r4, pc, asr r5
    258c:	1c510100 	ldfnee	f0, [r1], {-0}
    2590:	00746572 	rsbseq	r6, r4, r2, ror r5
    2594:	00686101 	rsbeq	r6, r8, r1, lsl #2
    2598:	08270000 	stmdaeq	r7!, {}	; <UNPREDICTABLE>
    259c:	a21d0000 	andsge	r0, sp, #0
    25a0:	1e000005 	cdpne	0, 0, cr0, cr0, cr5, {0}
    25a4:	1c801008 	stcne	0, cr1, [r0], {8}
    25a8:	01000000 	mrseq	r0, (UNDEF: 0)
    25ac:	00055975 	andeq	r5, r5, r5, ror r9
    25b0:	05b22500 	ldreq	r2, [r2, #1280]!	; 0x500
    25b4:	54010000 	strpl	r0, [r1], #-0
    25b8:	10081e1f 	andne	r1, r8, pc, lsl lr
    25bc:	00001c80 	andeq	r1, r0, r0, lsl #25
    25c0:	08742000 	ldmdaeq	r4!, {sp}^
    25c4:	00000000 	andeq	r0, r0, r0
    25c8:	10081a16 	andne	r1, r8, r6, lsl sl
    25cc:	00056a80 	andeq	r6, r5, r0, lsl #21
    25d0:	50011700 	andpl	r1, r1, r0, lsl #14
    25d4:	00007402 	andeq	r7, r0, r2, lsl #8
    25d8:	10a02700 	adcne	r2, r0, r0, lsl #14
    25dc:	4d010000 	stcmi	0, cr0, [r1, #-0]
    25e0:	00000068 	andeq	r0, r0, r8, rrx
    25e4:	00058601 	andeq	r8, r5, r1, lsl #12
    25e8:	0d342800 	ldceq	8, cr2, [r4, #-0]
    25ec:	4d010000 	stcmi	0, cr0, [r1, #-0]
    25f0:	00000253 	andeq	r0, r0, r3, asr r2
    25f4:	10d72700 	sbcsne	r2, r7, r0, lsl #14
    25f8:	3f010000 	svccc	0x00010000
    25fc:	00000068 	andeq	r0, r0, r8, rrx
    2600:	0005a201 	andeq	sl, r5, r1, lsl #4
    2604:	0d342800 	ldceq	8, cr2, [r4, #-0]
    2608:	3f010000 	svccc	0x00010000
    260c:	00000253 	andeq	r0, r0, r3, asr r2
    2610:	10ff2700 	rscsne	r2, pc, r0, lsl #14
    2614:	31010000 	mrscc	r0, (UNDEF: 1)
    2618:	00000068 	andeq	r0, r0, r8, rrx
    261c:	0005c901 	andeq	ip, r5, r1, lsl #18
    2620:	0d342800 	ldceq	8, cr2, [r4, #-0]
    2624:	31010000 	mrscc	r0, (UNDEF: 1)
    2628:	00000253 	andeq	r0, r0, r3, asr r2
    262c:	0011e029 	andseq	lr, r1, r9, lsr #32
    2630:	56330100 	ldrtpl	r0, [r3], -r0, lsl #2
    2634:	00000000 	andeq	r0, r0, r0
    2638:	00113727 	andseq	r3, r1, r7, lsr #14
    263c:	681f0100 	ldmdavs	pc, {r8}	; <UNPREDICTABLE>
    2640:	01000000 	mrseq	r0, (UNDEF: 0)
    2644:	000005f0 	strdeq	r0, [r0], -r0	; <UNPREDICTABLE>
    2648:	000d3428 	andeq	r3, sp, r8, lsr #8
    264c:	531f0100 	tstpl	pc, #0, 2
    2650:	2a000002 	bcs	2660 <shift+0x2660>
    2654:	0067736d 	rsbeq	r7, r7, sp, ror #6
    2658:	04151f01 	ldreq	r1, [r5], #-3841	; 0xfffff0ff
    265c:	2b000000 	blcs	2664 <shift+0x2664>
    2660:	000002b8 			; <UNDEFINED> instruction: 0x000002b8
    2664:	06701801 	ldrbteq	r1, [r0], -r1, lsl #16
    2668:	006a8010 	rsbeq	r8, sl, r0, lsl r0
    266c:	9c010000 	stcls	0, cr0, [r1], {-0}
    2670:	0000074e 	andeq	r0, r0, lr, asr #14
    2674:	00074e2c 	andeq	r4, r7, ip, lsr #28
    2678:	10067200 	andne	r7, r6, r0, lsl #4
    267c:	00014080 	andeq	r4, r1, r0, lsl #1
    2680:	341a0100 	ldrcc	r0, [sl], #-256	; 0xffffff00
    2684:	2c000007 	stccs	0, cr0, [r0], {7}
    2688:	000007c4 	andeq	r0, r0, r4, asr #15
    268c:	80100672 	andshi	r0, r0, r2, ror r6
    2690:	00000168 	andeq	r0, r0, r8, ror #2
    2694:	06621201 	strbteq	r1, [r2], -r1, lsl #4
    2698:	011e0000 	tsteq	lr, r0
    269c:	46000008 	strmi	r0, [r0], -r8
    26a0:	1e000008 	cdpne	0, 0, cr0, cr0, cr8, {0}
    26a4:	0000080d 	andeq	r0, r0, sp, lsl #16
    26a8:	0000086e 	andeq	r0, r0, lr, ror #16
    26ac:	0007f51e 	andeq	pc, r7, lr, lsl r5	; <UNPREDICTABLE>
    26b0:	00088200 	andeq	r8, r8, r0, lsl #4
    26b4:	07e91e00 	strbeq	r1, [r9, r0, lsl #28]!
    26b8:	08960000 	ldmeq	r6, {}	; <UNPREDICTABLE>
    26bc:	dd1e0000 	ldcle	0, cr0, [lr, #-0]
    26c0:	82000007 	andhi	r0, r0, #7
    26c4:	1e000008 	cdpne	0, 0, cr0, cr0, cr8, {0}
    26c8:	000007d1 	ldrdeq	r0, [r0], -r1
    26cc:	000008ae 	andeq	r0, r0, lr, lsr #17
    26d0:	07c42c00 	strbeq	r2, [r4, r0, lsl #24]
    26d4:	06820000 	streq	r0, [r2], r0
    26d8:	01888010 	orreq	r8, r8, r0, lsl r0
    26dc:	13010000 	movwne	r0, #4096	; 0x1000
    26e0:	000006ac 	andeq	r0, r0, ip, lsr #13
    26e4:	0008012d 	andeq	r0, r8, sp, lsr #2
    26e8:	0e034000 	cdpeq	0, 0, cr4, cr3, cr0, {0}
    26ec:	080d1e02 	stmdaeq	sp, {r1, r9, sl, fp, ip}
    26f0:	08c60000 	stmiaeq	r6, {}^	; <UNPREDICTABLE>
    26f4:	f51e0000 			; <UNDEFINED> instruction: 0xf51e0000
    26f8:	c6000007 	strgt	r0, [r0], -r7
    26fc:	1e000008 	cdpne	0, 0, cr0, cr0, cr8, {0}
    2700:	000007e9 	andeq	r0, r0, r9, ror #15
    2704:	000008da 	ldrdeq	r0, [r0], -sl
    2708:	0007dd1e 	andeq	sp, r7, lr, lsl sp
    270c:	0008f200 	andeq	pc, r8, r0, lsl #4
    2710:	07d11e00 	ldrbeq	r1, [r1, r0, lsl #28]
    2714:	09060000 	stmdbeq	r6, {}	; <UNPREDICTABLE>
    2718:	2c000000 	stccs	0, cr0, [r0], {-0}
    271c:	0000076e 	andeq	r0, r0, lr, ror #14
    2720:	80100688 	andshi	r0, r0, r8, lsl #13
    2724:	000001b0 			; <UNDEFINED> instruction: 0x000001b0
    2728:	06f31401 	ldrbteq	r1, [r3], r1, lsl #8
    272c:	7b1e0000 	blvc	782734 <shift+0x782734>
    2730:	1e000007 	cdpne	0, 0, cr0, cr0, cr7, {0}
    2734:	2e000009 	cdpcs	0, 0, cr0, cr0, cr9, {0}
    2738:	00000787 	andeq	r0, r0, r7, lsl #15
    273c:	07931e02 	ldreq	r1, [r3, r2, lsl #28]
    2740:	09460000 	stmdbeq	r6, {}^	; <UNPREDICTABLE>
    2744:	9f1e0000 	svcls	0x001e0000
    2748:	6e000007 	cdpvs	0, 0, cr0, cr0, cr7, {0}
    274c:	1e000009 	cdpne	0, 0, cr0, cr0, cr9, {0}
    2750:	000007b7 			; <UNDEFINED> instruction: 0x000007b7
    2754:	0000098e 	andeq	r0, r0, lr, lsl #19
    2758:	0007ab1e 	andeq	sl, r7, lr, lsl fp
    275c:	0009a400 	andeq	sl, r9, r0, lsl #8
    2760:	6e2f0000 	cdpvs	0, 2, cr0, cr15, cr0, {0}
    2764:	8c000007 	stchi	0, cr0, [r0], {7}
    2768:	d8801006 	stmle	r0, {r1, r2, ip}
    276c:	01000001 	tsteq	r0, r1
    2770:	077b2d15 			; <UNDEFINED> instruction: 0x077b2d15
    2774:	00b80000 	adcseq	r0, r8, r0
    2778:	872e020e 	strhi	r0, [lr, -lr, lsl #4]!
    277c:	02000007 	andeq	r0, r0, #7
    2780:	0007932d 	andeq	r9, r7, sp, lsr #6
    2784:	0e05a800 	cdpeq	8, 0, cr10, cr5, cr0, {0}
    2788:	079f2e02 	ldreq	r2, [pc, r2, lsl #28]
    278c:	1e020000 	cdpne	0, 0, cr0, cr2, cr0, {0}
    2790:	000007b7 			; <UNDEFINED> instruction: 0x000007b7
    2794:	000009bc 			; <UNDEFINED> instruction: 0x000009bc
    2798:	0007ab1e 	andeq	sl, r7, lr, lsl fp
    279c:	0009d200 	andeq	sp, r9, r0, lsl #4
    27a0:	2f000000 	svccs	0x00000000
    27a4:	00000756 	andeq	r0, r0, r6, asr r7
    27a8:	80100690 	mulshi	r0, r0, r6
    27ac:	000001f8 	strdeq	r0, [r0], -r8
    27b0:	621e1b01 	andsvs	r1, lr, #1024	; 0x400
    27b4:	ea000007 	b	27d8 <shift+0x27d8>
    27b8:	00000009 	andeq	r0, r0, r9
    27bc:	11663000 	cmnne	r6, r0
    27c0:	10010000 	andne	r0, r1, r0
    27c4:	11293101 			; <UNDEFINED> instruction: 0x11293101
    27c8:	08010000 	stmdaeq	r1, {}	; <UNPREDICTABLE>
    27cc:	00076e01 	andeq	r6, r7, r1, lsl #28
    27d0:	0d342800 	ldceq	8, cr2, [r4, #-0]
    27d4:	08010000 	stmdaeq	r1, {}	; <UNPREDICTABLE>
    27d8:	00000253 	andeq	r0, r0, r3, asr r2
    27dc:	11863200 	orrne	r3, r6, r0, lsl #4
    27e0:	6c020000 	stcvs	0, cr0, [r2], {-0}
    27e4:	07c40304 	strbeq	r0, [r4, r4, lsl #6]
    27e8:	b6330000 	ldrtlt	r0, [r3], -r0
    27ec:	02000010 	andeq	r0, r0, #16
    27f0:	0098046c 	addseq	r0, r8, ip, ror #8
    27f4:	87330000 	ldrhi	r0, [r3, -r0]!
    27f8:	02000010 	andeq	r0, r0, #16
    27fc:	0098046d 	addseq	r0, r8, sp, ror #8
    2800:	79330000 	ldmdbvc	r3!, {}	; <UNPREDICTABLE>
    2804:	02000010 	andeq	r0, r0, #16
    2808:	0098046e 	addseq	r0, r8, lr, ror #8
    280c:	d5330000 	ldrle	r0, [r3, #-0]!
    2810:	02000011 	andeq	r0, r0, #17
    2814:	0098046f 	addseq	r0, r8, pc, ror #8
    2818:	b8330000 	ldmdalt	r3!, {}	; <UNPREDICTABLE>
    281c:	02000011 	andeq	r0, r0, #17
    2820:	00980470 	addseq	r0, r8, r0, ror r4
    2824:	cb330000 	blgt	cc282c <shift+0xcc282c>
    2828:	02000010 	andeq	r0, r0, #16
    282c:	00980471 	addseq	r0, r8, r1, ror r4
    2830:	32000000 	andcc	r0, r0, #0
    2834:	0000108f 	andeq	r1, r0, pc, lsl #1
    2838:	03044c02 	movweq	r4, #19458	; 0x4c02
    283c:	0000081a 	andeq	r0, r0, sl, lsl r8
    2840:	0010b633 	andseq	fp, r0, r3, lsr r6
    2844:	044c0200 	strbeq	r0, [ip], #-512	; 0xfffffe00
    2848:	00000098 	muleq	r0, r8, r0
    284c:	00108733 	andseq	r8, r0, r3, lsr r7
    2850:	044d0200 	strbeq	r0, [sp], #-512	; 0xfffffe00
    2854:	00000098 	muleq	r0, r8, r0
    2858:	00107933 	andseq	r7, r0, r3, lsr r9
    285c:	044e0200 	strbeq	r0, [lr], #-512	; 0xfffffe00
    2860:	00000098 	muleq	r0, r8, r0
    2864:	0011d533 	andseq	sp, r1, r3, lsr r5
    2868:	044f0200 	strbeq	r0, [pc], #-512	; 2870 <shift+0x2870>
    286c:	00000098 	muleq	r0, r8, r0
    2870:	0011b833 	andseq	fp, r1, r3, lsr r8
    2874:	04500200 	ldrbeq	r0, [r0], #-512	; 0xfffffe00
    2878:	00000098 	muleq	r0, r8, r0
    287c:	00119a33 	andseq	r9, r1, r3, lsr sl
    2880:	04510200 	ldrbeq	r0, [r1], #-512	; 0xfffffe00
    2884:	00000098 	muleq	r0, r8, r0
    2888:	05c93400 	strbeq	r3, [r9, #1024]	; 0x400
    288c:	06dc0000 	ldrbeq	r0, [ip], r0
    2890:	00568010 	subseq	r8, r6, r0, lsl r0
    2894:	9c010000 	stcls	0, cr0, [r1], {-0}
    2898:	00000858 	andeq	r0, r0, r8, asr r8
    289c:	0005d91e 	andeq	sp, r5, lr, lsl r9
    28a0:	000a0200 	andeq	r0, sl, r0, lsl #4
    28a4:	05e41e00 	strbeq	r1, [r4, #3584]!	; 0xe00
    28a8:	0a550000 	beq	15428b0 <shift+0x15428b0>
    28ac:	20350000 	eorscs	r0, r5, r0
    28b0:	1e000002 	cdpne	0, 0, cr0, cr0, cr2, {0}
    28b4:	000005e4 	andeq	r0, r0, r4, ror #11
    28b8:	00000a81 	andeq	r0, r0, r1, lsl #21
    28bc:	0005d91e 	andeq	sp, r5, lr, lsl r9
    28c0:	000aa200 	andeq	sl, sl, r0, lsl #4
    28c4:	34000000 	strcc	r0, [r0], #-0
    28c8:	000005a2 	andeq	r0, r0, r2, lsr #11
    28cc:	80100734 	andshi	r0, r0, r4, lsr r7
    28d0:	00000026 	andeq	r0, r0, r6, lsr #32
    28d4:	087e9c01 	ldmdaeq	lr!, {r0, sl, fp, ip, pc}^
    28d8:	b21e0000 	andslt	r0, lr, #0
    28dc:	b5000005 	strlt	r0, [r0, #-5]
    28e0:	3600000a 	strcc	r0, [r0], -sl
    28e4:	000005bd 			; <UNDEFINED> instruction: 0x000005bd
    28e8:	00000aef 	andeq	r0, r0, pc, ror #21
    28ec:	05863400 	streq	r3, [r6, #1024]	; 0x400
    28f0:	075c0000 	ldrbeq	r0, [ip, -r0]
    28f4:	00388010 	eorseq	r8, r8, r0, lsl r0
    28f8:	9c010000 	stcls	0, cr0, [r1], {-0}
    28fc:	000008ae 	andeq	r0, r0, lr, lsr #17
    2900:	0005961e 	andeq	r9, r5, lr, lsl r6
    2904:	000b3500 	andeq	r3, fp, r0, lsl #10
    2908:	077a1f00 	ldrbeq	r1, [sl, -r0, lsl #30]!
    290c:	00188010 	andseq	r8, r8, r0, lsl r0
    2910:	961e0000 	ldrls	r0, [lr], -r0
    2914:	69000005 	stmdbvs	r0, {r0, r2}
    2918:	0000000b 	andeq	r0, r0, fp
    291c:	056a3700 	strbeq	r3, [sl, #-1792]!	; 0xfffff900
    2920:	07940000 	ldreq	r0, [r4, r0]
    2924:	003c8010 	eorseq	r8, ip, r0, lsl r0
    2928:	9c010000 	stcls	0, cr0, [r1], {-0}
    292c:	00057a1e 	andeq	r7, r5, lr, lsl sl
    2930:	000b8700 	andeq	r8, fp, r0, lsl #14
    2934:	07c21f00 	strbeq	r1, [r2, r0, lsl #30]
    2938:	000c8010 	andeq	r8, ip, r0, lsl r0
    293c:	7a1e0000 	bvc	782944 <shift+0x782944>
    2940:	be000005 	cdplt	0, 0, cr0, cr0, cr5, {0}
    2944:	0000000b 	andeq	r0, r0, fp
    2948:	06ec0000 	strbteq	r0, [ip], r0
    294c:	00040000 	andeq	r0, r4, r0
    2950:	00000c4f 	andeq	r0, r0, pc, asr #24
    2954:	05890104 	streq	r0, [r9, #260]	; 0x104
    2958:	1f0c0000 	svcne	0x000c0000
    295c:	a5000012 	strge	r0, [r0, #-18]	; 0xffffffee
    2960:	48000000 	stmdami	r0, {}	; <UNPREDICTABLE>
    2964:	9e80100a 	cdpls	0, 8, cr1, cr0, cr10, {0}
    2968:	36000002 	strcc	r0, [r0], -r2
    296c:	02000007 	andeq	r0, r0, #7
    2970:	07310601 	ldreq	r0, [r1, -r1, lsl #12]!
    2974:	01020000 	mrseq	r0, (UNDEF: 2)
    2978:	00072f08 	andeq	r2, r7, r8, lsl #30
    297c:	05020200 	streq	r0, [r2, #-512]	; 0xfffffe00
    2980:	0000043f 	andeq	r0, r0, pc, lsr r4
    2984:	86070202 	strhi	r0, [r7], -r2, lsl #4
    2988:	03000003 	movweq	r0, #3
    298c:	6e690504 	cdpvs	5, 6, cr0, cr9, cr4, {0}
    2990:	04020074 	streq	r0, [r2], #-116	; 0xffffff8c
    2994:	00008a07 	andeq	r8, r0, r7, lsl #20
    2998:	05080200 	streq	r0, [r8, #-512]	; 0xfffffe00
    299c:	0000014f 	andeq	r0, r0, pc, asr #2
    29a0:	80070802 	andhi	r0, r7, r2, lsl #16
    29a4:	02000000 	andeq	r0, r0, #0
    29a8:	09bb0704 	ldmibeq	fp!, {r2, r8, r9, sl}
    29ac:	04040000 	streq	r0, [r4], #-0
    29b0:	01000012 	tsteq	r0, r2, lsl r0
    29b4:	00006f06 	andeq	r6, r0, r6, lsl #30
    29b8:	75040500 	strvc	r0, [r4, #-1280]	; 0xfffffb00
    29bc:	02000000 	andeq	r0, r0, #0
    29c0:	07380801 	ldreq	r0, [r8, -r1, lsl #16]!
    29c4:	75060000 	strvc	r0, [r6, #-0]
    29c8:	07000000 	streq	r0, [r0, -r0]
    29cc:	0000002c 	andeq	r0, r0, ip, lsr #32
    29d0:	00000091 	muleq	r0, r1, r0
    29d4:	00005d08 	andeq	r5, r0, r8, lsl #26
    29d8:	09000f00 	stmdbeq	r0, {r8, r9, sl, fp}
    29dc:	00001230 	andeq	r1, r0, r0, lsr r2
    29e0:	00811101 	addeq	r1, r1, r1, lsl #2
    29e4:	03050000 	movweq	r0, #20480	; 0x5000
    29e8:	80101600 	andshi	r1, r0, r0, lsl #12
    29ec:	0012380a 	andseq	r3, r2, sl, lsl #16
    29f0:	41920100 	orrsmi	r0, r2, r0, lsl #2
    29f4:	b0000000 	andlt	r0, r0, r0
    29f8:	3680100b 	strcc	r1, [r0], fp
    29fc:	01000001 	tsteq	r0, r1
    2a00:	0004789c 	muleq	r4, ip, r8
    2a04:	04780b00 	ldrbteq	r0, [r8], #-2816	; 0xfffff500
    2a08:	0bc00000 	bleq	ff002a10 <__bss_end+0x7ef00dfc>
    2a0c:	001c8010 	andseq	r8, ip, r0, lsl r0
    2a10:	94010000 	strls	r0, [r1], #-0
    2a14:	00000100 	andeq	r0, r0, r0, lsl #2
    2a18:	0004880c 	andeq	r8, r4, ip, lsl #16
    2a1c:	000bdf00 	andeq	sp, fp, r0, lsl #30
    2a20:	0bc00d00 	bleq	ff005e28 <__bss_end+0x7ef04214>
    2a24:	001c8010 	andseq	r8, ip, r0, lsl r0
    2a28:	ca0e0000 	bgt	382a30 <shift+0x382a30>
    2a2c:	0f000006 	svceq	0x00000006
    2a30:	80100bcc 	andshi	r0, r0, ip, asr #23
    2a34:	000004a5 	andeq	r0, r0, r5, lsr #9
    2a38:	05500110 	ldrbeq	r0, [r0, #-272]	; 0xfffffef0
    2a3c:	10147803 	andsne	r7, r4, r3, lsl #16
    2a40:	51011080 	smlabbpl	r1, r0, r0, r1
    2a44:	00047502 	andeq	r7, r4, r2, lsl #10
    2a48:	780b0000 	stmdavc	fp, {}	; <UNPREDICTABLE>
    2a4c:	dc000004 	stcle	0, cr0, [r0], {4}
    2a50:	1280100b 	addne	r1, r0, #11
    2a54:	01000000 	mrseq	r0, (UNDEF: 0)
    2a58:	00014595 	muleq	r1, r5, r5
    2a5c:	04880c00 	streq	r0, [r8], #3072	; 0xc00
    2a60:	0bf30000 	bleq	ffcc2a68 <__bss_end+0x7fbc0e54>
    2a64:	dc0d0000 	stcle	0, cr0, [sp], {-0}
    2a68:	1280100b 	addne	r1, r0, #11
    2a6c:	0e000000 	cdpeq	0, 0, cr0, cr0, cr0, {0}
    2a70:	000006ca 	andeq	r0, r0, sl, asr #13
    2a74:	100bee0f 	andne	lr, fp, pc, lsl #28
    2a78:	0004a580 	andeq	sl, r4, r0, lsl #11
    2a7c:	50011000 	andpl	r1, r1, r0
    2a80:	14a40305 	strtne	r0, [r4], #773	; 0x305
    2a84:	01108010 	tsteq	r0, r0, lsl r0
    2a88:	7c760251 	lfmvc	f0, 2, [r6], #-324	; 0xfffffebc
    2a8c:	0b000000 	bleq	2a94 <shift+0x2a94>
    2a90:	00000478 	andeq	r0, r0, r8, ror r4
    2a94:	80100bee 	andshi	r0, r0, lr, ror #23
    2a98:	0000000e 	andeq	r0, r0, lr
    2a9c:	01879601 	orreq	r9, r7, r1, lsl #12
    2aa0:	880c0000 	stmdahi	ip, {}	; <UNPREDICTABLE>
    2aa4:	07000004 	streq	r0, [r0, -r4]
    2aa8:	0d00000c 	stceq	0, cr0, [r0, #-48]	; 0xffffffd0
    2aac:	80100bee 	andshi	r0, r0, lr, ror #23
    2ab0:	0000000e 	andeq	r0, r0, lr
    2ab4:	0006ca0e 	andeq	ip, r6, lr, lsl #20
    2ab8:	0bfc0f00 	bleq	fff066c0 <__bss_end+0x7fe04aac>
    2abc:	04a58010 	strteq	r8, [r5], #16
    2ac0:	01100000 	tsteq	r0, r0
    2ac4:	00740250 	rsbseq	r0, r4, r0, asr r2
    2ac8:	02510110 	subseq	r0, r1, #16, 2
    2acc:	00007875 	andeq	r7, r0, r5, ror r8
    2ad0:	04780b00 	ldrbteq	r0, [r8], #-2816	; 0xfffff500
    2ad4:	0bfc0000 	bleq	fff02adc <__bss_end+0x7fe00ec8>
    2ad8:	00128010 	andseq	r8, r2, r0, lsl r0
    2adc:	97010000 	strls	r0, [r1, -r0]
    2ae0:	000001c9 	andeq	r0, r0, r9, asr #3
    2ae4:	0004880c 	andeq	r8, r4, ip, lsl #16
    2ae8:	000c1b00 	andeq	r1, ip, r0, lsl #22
    2aec:	0bfc0d00 	bleq	fff05ef4 <__bss_end+0x7fe042e0>
    2af0:	00128010 	andseq	r8, r2, r0, lsl r0
    2af4:	ca0e0000 	bgt	382afc <shift+0x382afc>
    2af8:	0f000006 	svceq	0x00000006
    2afc:	80100c0a 	andshi	r0, r0, sl, lsl #24
    2b00:	000004a5 	andeq	r0, r0, r5, lsr #9
    2b04:	02500110 	subseq	r0, r0, #16, 2
    2b08:	01100074 	tsteq	r0, r4, ror r0
    2b0c:	00760251 	rsbseq	r0, r6, r1, asr r2
    2b10:	0b000000 	bleq	2b18 <shift+0x2b18>
    2b14:	00000478 	andeq	r0, r0, r8, ror r4
    2b18:	80100c0e 	andshi	r0, r0, lr, lsl #24
    2b1c:	00000016 	andeq	r0, r0, r6, lsl r0
    2b20:	020e9801 	andeq	r9, lr, #65536	; 0x10000
    2b24:	880c0000 	stmdahi	ip, {}	; <UNPREDICTABLE>
    2b28:	2f000004 	svccs	0x00000004
    2b2c:	0d00000c 	stceq	0, cr0, [r0, #-48]	; 0xffffffd0
    2b30:	80100c0e 	andshi	r0, r0, lr, lsl #24
    2b34:	00000016 	andeq	r0, r0, r6, lsl r0
    2b38:	0006ca0e 	andeq	ip, r6, lr, lsl #20
    2b3c:	0c200f00 	stceq	15, cr0, [r0], #-0
    2b40:	04a58010 	strteq	r8, [r5], #16
    2b44:	01100000 	tsteq	r0, r0
    2b48:	e0030550 	and	r0, r3, r0, asr r5
    2b4c:	10801014 	addne	r1, r0, r4, lsl r0
    2b50:	75025101 	strvc	r5, [r2, #-257]	; 0xfffffeff
    2b54:	00000000 	andeq	r0, r0, r0
    2b58:	0004780b 	andeq	r7, r4, fp, lsl #16
    2b5c:	100c2400 	andne	r2, ip, r0, lsl #8
    2b60:	00001680 	andeq	r1, r0, r0, lsl #13
    2b64:	53990100 	orrspl	r0, r9, #0, 2
    2b68:	0c000002 	stceq	0, cr0, [r0], {2}
    2b6c:	00000488 	andeq	r0, r0, r8, lsl #9
    2b70:	00000c43 	andeq	r0, r0, r3, asr #24
    2b74:	100c240d 	andne	r2, ip, sp, lsl #8
    2b78:	00001680 	andeq	r1, r0, r0, lsl #13
    2b7c:	06ca0e00 	strbeq	r0, [sl], r0, lsl #28
    2b80:	360f0000 	strcc	r0, [pc], -r0
    2b84:	a580100c 	strge	r1, [r0, #12]
    2b88:	10000004 	andne	r0, r0, r4
    2b8c:	03055001 	movweq	r5, #20481	; 0x5001
    2b90:	801014fc 			; <UNDEFINED> instruction: 0x801014fc
    2b94:	02510110 	subseq	r0, r1, #16, 2
    2b98:	00000078 	andeq	r0, r0, r8, ror r0
    2b9c:	04780b00 	ldrbteq	r0, [r8], #-2816	; 0xfffff500
    2ba0:	0c3a0000 	ldceq	0, cr0, [sl], #-0
    2ba4:	00168010 	andseq	r8, r6, r0, lsl r0
    2ba8:	9a010000 	bls	42bb0 <shift+0x42bb0>
    2bac:	00000298 	muleq	r0, r8, r2
    2bb0:	0004880c 	andeq	r8, r4, ip, lsl #16
    2bb4:	000c5700 	andeq	r5, ip, r0, lsl #14
    2bb8:	0c3a0d00 	ldceq	13, cr0, [sl], #-0
    2bbc:	00168010 	andseq	r8, r6, r0, lsl r0
    2bc0:	ca0e0000 	bgt	382bc8 <shift+0x382bc8>
    2bc4:	0f000006 	svceq	0x00000006
    2bc8:	80100c4c 	andshi	r0, r0, ip, asr #24
    2bcc:	000004a5 	andeq	r0, r0, r5, lsr #9
    2bd0:	05500110 	ldrbeq	r0, [r0, #-272]	; 0xfffffef0
    2bd4:	10151803 	andsne	r1, r5, r3, lsl #16
    2bd8:	51011080 	smlabbpl	r1, r0, r0, r1
    2bdc:	00007702 	andeq	r7, r0, r2, lsl #14
    2be0:	780b0000 	stmdavc	fp, {}	; <UNPREDICTABLE>
    2be4:	50000004 	andpl	r0, r0, r4
    2be8:	1680100c 	strne	r1, [r0], ip
    2bec:	01000000 	mrseq	r0, (UNDEF: 0)
    2bf0:	0002dd9b 	muleq	r2, fp, sp
    2bf4:	04880c00 	streq	r0, [r8], #3072	; 0xc00
    2bf8:	0c6b0000 	stcleq	0, cr0, [fp], #-0
    2bfc:	500d0000 	andpl	r0, sp, r0
    2c00:	1680100c 	strne	r1, [r0], ip
    2c04:	0e000000 	cdpeq	0, 0, cr0, cr0, cr0, {0}
    2c08:	000006ca 	andeq	r0, r0, sl, asr #13
    2c0c:	100c620f 	andne	r6, ip, pc, lsl #4
    2c10:	0004a580 	andeq	sl, r4, r0, lsl #11
    2c14:	50011000 	andpl	r1, r1, r0
    2c18:	15240305 	strne	r0, [r4, #-773]!	; 0xfffffcfb
    2c1c:	01108010 	tsteq	r0, r0, lsl r0
    2c20:	00760251 	rsbseq	r0, r6, r1, asr r2
    2c24:	0b000000 	bleq	2c2c <shift+0x2c2c>
    2c28:	00000478 	andeq	r0, r0, r8, ror r4
    2c2c:	80100c66 	andshi	r0, r0, r6, ror #24
    2c30:	00000016 	andeq	r0, r0, r6, lsl r0
    2c34:	03229c01 			; <UNDEFINED> instruction: 0x03229c01
    2c38:	880c0000 	stmdahi	ip, {}	; <UNPREDICTABLE>
    2c3c:	7f000004 	svcvc	0x00000004
    2c40:	0d00000c 	stceq	0, cr0, [r0, #-48]	; 0xffffffd0
    2c44:	80100c66 	andshi	r0, r0, r6, ror #24
    2c48:	00000016 	andeq	r0, r0, r6, lsl r0
    2c4c:	0006ca0e 	andeq	ip, r6, lr, lsl #20
    2c50:	0c780f00 	ldcleq	15, cr0, [r8], #-0
    2c54:	04a58010 	strteq	r8, [r5], #16
    2c58:	01100000 	tsteq	r0, r0
    2c5c:	30030550 	andcc	r0, r3, r0, asr r5
    2c60:	10801015 	addne	r1, r0, r5, lsl r0
    2c64:	75025101 	strvc	r5, [r2, #-257]	; 0xfffffeff
    2c68:	00000000 	andeq	r0, r0, r0
    2c6c:	0004780b 	andeq	r7, r4, fp, lsl #16
    2c70:	100c7c00 	andne	r7, ip, r0, lsl #24
    2c74:	00001680 	andeq	r1, r0, r0, lsl #13
    2c78:	679d0100 	ldrvs	r0, [sp, r0, lsl #2]
    2c7c:	0c000003 	stceq	0, cr0, [r0], {3}
    2c80:	00000488 	andeq	r0, r0, r8, lsl #9
    2c84:	00000c93 	muleq	r0, r3, ip
    2c88:	100c7c0d 	andne	r7, ip, sp, lsl #24
    2c8c:	00001680 	andeq	r1, r0, r0, lsl #13
    2c90:	06ca0e00 	strbeq	r0, [sl], r0, lsl #28
    2c94:	8e0f0000 	cdphi	0, 0, cr0, cr15, cr0, {0}
    2c98:	a580100c 	strge	r1, [r0, #12]
    2c9c:	10000004 	andne	r0, r0, r4
    2ca0:	03055001 	movweq	r5, #20481	; 0x5001
    2ca4:	80101540 	andshi	r1, r0, r0, asr #10
    2ca8:	02510110 	subseq	r0, r1, #16, 2
    2cac:	00000074 	andeq	r0, r0, r4, ror r0
    2cb0:	04780b00 	ldrbteq	r0, [r8], #-2816	; 0xfffff500
    2cb4:	0c920000 	ldceq	0, cr0, [r2], {0}
    2cb8:	00168010 	andseq	r8, r6, r0, lsl r0
    2cbc:	9e010000 	cdpls	0, 0, cr0, cr1, cr0, {0}
    2cc0:	000003ac 	andeq	r0, r0, ip, lsr #7
    2cc4:	0004880c 	andeq	r8, r4, ip, lsl #16
    2cc8:	000ca700 	andeq	sl, ip, r0, lsl #14
    2ccc:	0c920d00 	ldceq	13, cr0, [r2], {0}
    2cd0:	00168010 	andseq	r8, r6, r0, lsl r0
    2cd4:	ca0e0000 	bgt	382cdc <shift+0x382cdc>
    2cd8:	0f000006 	svceq	0x00000006
    2cdc:	80100ca4 	andshi	r0, r0, r4, lsr #25
    2ce0:	000004a5 	andeq	r0, r0, r5, lsr #9
    2ce4:	05500110 	ldrbeq	r0, [r0, #-272]	; 0xfffffef0
    2ce8:	10154c03 	andsne	r4, r5, r3, lsl #24
    2cec:	51011080 	smlabbpl	r1, r0, r0, r1
    2cf0:	00007702 	andeq	r7, r0, r2, lsl #14
    2cf4:	780b0000 	stmdavc	fp, {}	; <UNPREDICTABLE>
    2cf8:	a8000004 	stmdage	r0, {r2}
    2cfc:	1480100c 	strne	r1, [r0], #12
    2d00:	01000000 	mrseq	r0, (UNDEF: 0)
    2d04:	0003f19f 	muleq	r3, pc, r1	; <UNPREDICTABLE>
    2d08:	04880c00 	streq	r0, [r8], #3072	; 0xc00
    2d0c:	0cbc0000 	ldceq	0, cr0, [ip]
    2d10:	a80d0000 	stmdage	sp, {}	; <UNPREDICTABLE>
    2d14:	1480100c 	strne	r1, [r0], #12
    2d18:	0e000000 	cdpeq	0, 0, cr0, cr0, cr0, {0}
    2d1c:	000006ca 	andeq	r0, r0, sl, asr #13
    2d20:	100cb80f 	andne	fp, ip, pc, lsl #16
    2d24:	0004a580 	andeq	sl, r4, r0, lsl #11
    2d28:	50011000 	andpl	r1, r1, r0
    2d2c:	155c0305 	ldrbne	r0, [ip, #-773]	; 0xfffffcfb
    2d30:	01108010 	tsteq	r0, r0, lsl r0
    2d34:	00760251 	rsbseq	r0, r6, r1, asr r2
    2d38:	0b000000 	bleq	2d40 <shift+0x2d40>
    2d3c:	00000478 	andeq	r0, r0, r8, ror r4
    2d40:	80100cbc 			; <UNDEFINED> instruction: 0x80100cbc
    2d44:	00000014 	andeq	r0, r0, r4, lsl r0
    2d48:	0436a101 	ldrteq	sl, [r6], #-257	; 0xfffffeff
    2d4c:	880c0000 	stmdahi	ip, {}	; <UNPREDICTABLE>
    2d50:	d1000004 	tstle	r0, r4
    2d54:	0d00000c 	stceq	0, cr0, [r0, #-48]	; 0xffffffd0
    2d58:	80100cbc 			; <UNDEFINED> instruction: 0x80100cbc
    2d5c:	00000014 	andeq	r0, r0, r4, lsl r0
    2d60:	0006ca0e 	andeq	ip, r6, lr, lsl #20
    2d64:	0ccc0f00 	stcleq	15, cr0, [ip], {0}
    2d68:	04a58010 	strteq	r8, [r5], #16
    2d6c:	01100000 	tsteq	r0, r0
    2d70:	68030550 	stmdavs	r3, {r4, r6, r8, sl}
    2d74:	10801015 	addne	r1, r0, r5, lsl r0
    2d78:	75025101 	strvc	r5, [r2, #-257]	; 0xfffffeff
    2d7c:	00000000 	andeq	r0, r0, r0
    2d80:	00047811 	andeq	r7, r4, r1, lsl r8
    2d84:	100cd000 	andne	sp, ip, r0
    2d88:	00000e80 	andeq	r0, r0, r0, lsl #29
    2d8c:	0ca20100 	stfeqs	f0, [r2]
    2d90:	00000488 	andeq	r0, r0, r8, lsl #9
    2d94:	00000ce6 	andeq	r0, r0, r6, ror #25
    2d98:	100cd00d 	andne	sp, ip, sp
    2d9c:	00000e80 	andeq	r0, r0, r0, lsl #29
    2da0:	06ca0e00 	strbeq	r0, [sl], r0, lsl #28
    2da4:	de0f0000 	cdple	0, 0, cr0, cr15, cr0, {0}
    2da8:	a580100c 	strge	r1, [r0, #12]
    2dac:	10000004 	andne	r0, r0, r4
    2db0:	03055001 	movweq	r5, #20481	; 0x5001
    2db4:	80101574 	andshi	r1, r0, r4, ror r5
    2db8:	02510110 	subseq	r0, r1, #16, 2
    2dbc:	00000074 	andeq	r0, r0, r4, ror r0
    2dc0:	fd120000 	ldc2	0, cr0, [r2, #-0]
    2dc4:	01000011 	tsteq	r0, r1, lsl r0
    2dc8:	0000417d 	andeq	r4, r0, sp, ror r1
    2dcc:	049f0100 	ldreq	r0, [pc], #256	; 2dd4 <shift+0x2dd4>
    2dd0:	66130000 	ldrvs	r0, [r3], -r0
    2dd4:	0100746d 	tsteq	r0, sp, ror #8
    2dd8:	00049f7d 	andeq	r9, r4, sp, ror pc
    2ddc:	61151400 	tstvs	r5, r0, lsl #8
    2de0:	7f010070 	svcvc	0x00010070
    2de4:	00000064 	andeq	r0, r0, r4, rrx
    2de8:	7c040500 	cfstr32vc	mvfx0, [r4], {-0}
    2dec:	16000000 	strne	r0, [r0], -r0
    2df0:	000011f9 	strdeq	r1, [r0], -r9
    2df4:	00414401 	subeq	r4, r1, r1, lsl #8
    2df8:	0ad80000 	beq	ff602e00 <__bss_end+0x7f5011ec>
    2dfc:	00c08010 	sbceq	r8, r0, r0, lsl r0
    2e00:	9c010000 	stcls	0, cr0, [r1], {-0}
    2e04:	000005a1 	andeq	r0, r0, r1, lsr #11
    2e08:	746d6617 	strbtvc	r6, [sp], #-1559	; 0xfffff9e9
    2e0c:	9f440100 	svcls	0x00440100
    2e10:	f9000004 			; <UNDEFINED> instruction: 0xf9000004
    2e14:	1700000c 	strne	r0, [r0, -ip]
    2e18:	01007061 	tsteq	r0, r1, rrx
    2e1c:	00006444 	andeq	r6, r0, r4, asr #8
    2e20:	000d4700 	andeq	r4, sp, r0, lsl #14
    2e24:	120c1800 	andne	r1, ip, #0, 16
    2e28:	46010000 	strmi	r0, [r1], -r0
    2e2c:	00000075 	andeq	r0, r0, r5, ror r0
    2e30:	00000d86 	andeq	r0, r0, r6, lsl #27
    2e34:	00121118 	andseq	r1, r2, r8, lsl r1
    2e38:	41470100 	mrsmi	r0, (UNDEF: 87)
    2e3c:	c0000000 	andgt	r0, r0, r0
    2e40:	0b00000d 	bleq	2e7c <shift+0x2e7c>
    2e44:	0000067a 	andeq	r0, r0, sl, ror r6
    2e48:	80100b5a 	andshi	r0, r0, sl, asr fp
    2e4c:	00000014 	andeq	r0, r0, r4, lsl r0
    2e50:	051f6701 	ldreq	r6, [pc, #-1793]	; 2757 <shift+0x2757>
    2e54:	8a0c0000 	bhi	302e5c <shift+0x302e5c>
    2e58:	05000006 	streq	r0, [r0, #-6]
    2e5c:	1900000e 	stmdbne	r0, {r1, r2, r3}
    2e60:	80100b64 	andshi	r0, r0, r4, ror #22
    2e64:	000006e4 	andeq	r0, r0, r4, ror #13
    2e68:	06941a00 	ldreq	r1, [r4], r0, lsl #20
    2e6c:	0b860000 	bleq	fe182e74 <__bss_end+0x7e081260>
    2e70:	02388010 	eorseq	r8, r8, #16
    2e74:	66010000 	strvs	r0, [r1], -r0
    2e78:	00000545 	andeq	r0, r0, r5, asr #10
    2e7c:	0006a40c 	andeq	sl, r6, ip, lsl #8
    2e80:	000e2500 	andeq	r2, lr, r0, lsl #10
    2e84:	0b8e1900 	bleq	fe38928c <__bss_end+0x7e287678>
    2e88:	06e48010 	usateq	r8, #4, r0
    2e8c:	0b000000 	bleq	2e94 <shift+0x2e94>
    2e90:	00000694 	muleq	r0, r4, r6
    2e94:	80100b92 	mulshi	r0, r2, fp
    2e98:	00000006 	andeq	r0, r0, r6
    2e9c:	056b6a01 	strbeq	r6, [fp, #-2561]!	; 0xfffff5ff
    2ea0:	a40c0000 	strge	r0, [ip], #-0
    2ea4:	38000006 	stmdacc	r0, {r1, r2}
    2ea8:	1900000e 	stmdbne	r0, {r1, r2, r3}
    2eac:	80100b96 	mulshi	r0, r6, fp
    2eb0:	000006e4 	andeq	r0, r0, r4, ror #13
    2eb4:	0b4a1b00 	bleq	1289abc <shift+0x1289abc>
    2eb8:	05a18010 	streq	r8, [r1, #16]!
    2ebc:	057e0000 	ldrbeq	r0, [lr, #-0]!
    2ec0:	01100000 	tsteq	r0, r0
    2ec4:	003a0151 	eorseq	r0, sl, r1, asr r1
    2ec8:	100b781b 	andne	r7, fp, fp, lsl r8
    2ecc:	0005a180 	andeq	sl, r5, r0, lsl #3
    2ed0:	00059100 	andeq	r9, r5, r0, lsl #2
    2ed4:	51011000 	mrspl	r1, (UNDEF: 1)
    2ed8:	0f003801 	svceq	0x00003801
    2edc:	80100b84 	andshi	r0, r0, r4, lsl #23
    2ee0:	000005a1 	andeq	r0, r0, r1, lsr #11
    2ee4:	01510110 	cmpeq	r1, r0, lsl r1
    2ee8:	1c000040 	stcne	0, cr0, [r0], {64}	; 0x40
    2eec:	000011f1 	strdeq	r1, [r0], -r1	; <UNPREDICTABLE>
    2ef0:	00412201 	subeq	r2, r1, r1, lsl #4
    2ef4:	0a480000 	beq	1202efc <shift+0x1202efc>
    2ef8:	00908010 	addseq	r8, r0, r0, lsl r0
    2efc:	9c010000 	stcls	0, cr0, [r1], {-0}
    2f00:	0000065c 	andeq	r0, r0, ip, asr r6
    2f04:	01006e17 	tsteq	r0, r7, lsl lr
    2f08:	00065c22 	andeq	r5, r6, r2, lsr #24
    2f0c:	000e5000 	andeq	r5, lr, r0
    2f10:	0d341d00 	ldceq	13, cr1, [r4, #-0]
    2f14:	22010000 	andcs	r0, r1, #0
    2f18:	00000041 	andeq	r0, r0, r1, asr #32
    2f1c:	00000e6e 	andeq	r0, r0, lr, ror #28
    2f20:	00120c1d 	andseq	r0, r2, sp, lsl ip
    2f24:	75220100 	strvc	r0, [r2, #-256]!	; 0xffffff00
    2f28:	8c000000 	stchi	0, cr0, [r0], {-0}
    2f2c:	1d00000e 	stcne	0, cr0, [r0, #-56]	; 0xffffffc8
    2f30:	00001211 	andeq	r1, r0, r1, lsl r2
    2f34:	00412201 	subeq	r2, r1, r1, lsl #4
    2f38:	0ead0000 	cdpeq	0, 10, cr0, cr13, cr0, {0}
    2f3c:	6d1e0000 	ldcvs	0, cr0, [lr, #-0]
    2f40:	63240100 			; <UNDEFINED> instruction: 0x63240100
    2f44:	cb000006 	blgt	2f64 <shift+0x2f64>
    2f48:	1f00000e 	svcne	0x0000000e
    2f4c:	00667562 	rsbeq	r7, r6, r2, ror #10
    2f50:	066a2501 	strbteq	r2, [sl], -r1, lsl #10
    2f54:	91030000 	mrsls	r0, (UNDEF: 3)
    2f58:	731e7f98 	tstvc	lr, #152, 30	; 0x260
    2f5c:	6f250100 	svcvs	0x00250100
    2f60:	f5000000 			; <UNDEFINED> instruction: 0xf5000000
    2f64:	1800000e 	stmdane	r0, {r1, r2, r3}
    2f68:	0000102b 	andeq	r1, r0, fp, lsr #32
    2f6c:	00412601 	subeq	r2, r1, r1, lsl #12
    2f70:	0f450000 	svceq	0x00450000
    2f74:	691e0000 	ldmdbvs	lr, {}	; <UNPREDICTABLE>
    2f78:	41260100 			; <UNDEFINED> instruction: 0x41260100
    2f7c:	64000000 	strvs	r0, [r0], #-0
    2f80:	1100000f 	tstne	r0, pc
    2f84:	0000067a 	andeq	r0, r0, sl, ror r6
    2f88:	80100ac0 	andshi	r0, r0, r0, asr #21
    2f8c:	00000010 	andeq	r0, r0, r0, lsl r0
    2f90:	8a0c3f01 	bhi	312b9c <shift+0x312b9c>
    2f94:	93000006 	movwls	r0, #6
    2f98:	1900000f 	stmdbne	r0, {r0, r1, r2, r3}
    2f9c:	80100ac8 	andshi	r0, r0, r8, asr #21
    2fa0:	000006e4 	andeq	r0, r0, r4, ror #13
    2fa4:	04020000 	streq	r0, [r2], #-0
    2fa8:	00015405 	andeq	r5, r1, r5, lsl #8
    2fac:	07040200 	streq	r0, [r4, -r0, lsl #4]
    2fb0:	00000085 	andeq	r0, r0, r5, lsl #1
    2fb4:	00007507 	andeq	r7, r0, r7, lsl #10
    2fb8:	00067a00 	andeq	r7, r6, r0, lsl #20
    2fbc:	005d0800 	subseq	r0, sp, r0, lsl #16
    2fc0:	003f0000 	eorseq	r0, pc, r0
    2fc4:	00122b20 	andseq	r2, r2, r0, lsr #22
    2fc8:	411b0100 	tstmi	fp, r0, lsl #2
    2fcc:	01000000 	mrseq	r0, (UNDEF: 0)
    2fd0:	00000694 	muleq	r0, r4, r6
    2fd4:	01007313 	tsteq	r0, r3, lsl r3
    2fd8:	00049f1b 	andeq	r9, r4, fp, lsl pc
    2fdc:	1a200000 	bne	802fe4 <shift+0x802fe4>
    2fe0:	01000012 	tsteq	r0, r2, lsl r0
    2fe4:	00004115 	andeq	r4, r0, r5, lsl r1
    2fe8:	06ae0100 	strteq	r0, [lr], r0, lsl #2
    2fec:	63130000 	tstvs	r3, #0
    2ff0:	41150100 	tstmi	r5, r0, lsl #2
    2ff4:	00000000 	andeq	r0, r0, r0
    2ff8:	00047821 	andeq	r7, r4, r1, lsr #16
    2ffc:	100b9800 	andne	r9, fp, r0, lsl #16
    3000:	00001680 	andeq	r1, r0, r0, lsl #13
    3004:	e49c0100 	ldr	r0, [ip], #256	; 0x100
    3008:	0c000006 	stceq	0, cr0, [r0], {6}
    300c:	00000488 	andeq	r0, r0, r8, lsl #9
    3010:	00000fb3 			; <UNDEFINED> instruction: 0x00000fb3
    3014:	00049422 	andeq	r9, r4, r2, lsr #8
    3018:	000fc700 	andeq	ip, pc, r0, lsl #14
    301c:	0ba40f00 	bleq	fe906c24 <__bss_end+0x7e805010>
    3020:	04a58010 	strteq	r8, [r5], #16
    3024:	01100000 	tsteq	r0, r0
    3028:	54910251 	ldrpl	r0, [r1], #593	; 0x251
    302c:	e7230000 	str	r0, [r3, -r0]!
    3030:	e700000c 	str	r0, [r0, -ip]
    3034:	0200000c 	andeq	r0, r0, #12
    3038:	03740022 	cmneq	r4, #34	; 0x22
    303c:	00040000 	andeq	r0, r4, r0
    3040:	00000e40 	andeq	r0, r0, r0, asr #28
    3044:	05890104 	streq	r0, [r9, #260]	; 0x104
    3048:	770c0000 	strvc	r0, [ip, -r0]
    304c:	a5000012 	strge	r0, [r0, #-18]	; 0xffffffee
    3050:	e8000000 	stmda	r0, {}	; <UNPREDICTABLE>
    3054:	4880100c 	stmmi	r0, {r2, r3, ip}
    3058:	11000001 	tstne	r0, r1
    305c:	02000008 	andeq	r0, r0, #8
    3060:	07310601 	ldreq	r0, [r1, -r1, lsl #12]!
    3064:	01020000 	mrseq	r0, (UNDEF: 2)
    3068:	00072f08 	andeq	r2, r7, r8, lsl #30
    306c:	05020200 	streq	r0, [r2, #-512]	; 0xfffffe00
    3070:	0000043f 	andeq	r0, r0, pc, lsr r4
    3074:	86070202 	strhi	r0, [r7], -r2, lsl #4
    3078:	03000003 	movweq	r0, #3
    307c:	6e690504 	cdpvs	5, 6, cr0, cr9, cr4, {0}
    3080:	04020074 	streq	r0, [r2], #-116	; 0xffffff8c
    3084:	00008a07 	andeq	r8, r0, r7, lsl #20
    3088:	05080200 	streq	r0, [r8, #-512]	; 0xfffffe00
    308c:	0000014f 	andeq	r0, r0, pc, asr #2
    3090:	80070802 	andhi	r0, r7, r2, lsl #16
    3094:	02000000 	andeq	r0, r0, #0
    3098:	09bb0704 	ldmibeq	fp!, {r2, r8, r9, sl}
    309c:	2c040000 	stccs	0, cr0, [r4], {-0}
    30a0:	74000000 	strvc	r0, [r0], #-0
    30a4:	05000000 	streq	r0, [r0, #-0]
    30a8:	0000005d 	andeq	r0, r0, sp, asr r0
    30ac:	a50600ff 	strge	r0, [r6, #-255]	; 0xffffff01
    30b0:	01000012 	tsteq	r0, r2, lsl r0
    30b4:	00006415 	andeq	r6, r0, r5, lsl r4
    30b8:	10030500 	andne	r0, r3, r0, lsl #10
    30bc:	07801016 	usada8eq	r0, r6, r0, r1
    30c0:	0000124f 	andeq	r1, r0, pc, asr #4
    30c4:	0041e101 	subeq	lr, r1, r1, lsl #2
    30c8:	0e2c0000 	cdpeq	0, 2, cr0, cr12, cr0, {0}
    30cc:	00048010 	andeq	r8, r4, r0, lsl r0
    30d0:	9c010000 	stcls	0, cr0, [r1], {-0}
    30d4:	000000ae 	andeq	r0, r0, lr, lsr #1
    30d8:	0012ac08 	andseq	sl, r2, r8, lsl #24
    30dc:	41e10100 	mvnmi	r0, r0, lsl #2
    30e0:	00000000 	andeq	r0, r0, r0
    30e4:	00000010 	andeq	r0, r0, r0, lsl r0
    30e8:	00125507 	andseq	r5, r2, r7, lsl #10
    30ec:	48d80100 	ldmmi	r8, {r8}^
    30f0:	10000000 	andne	r0, r0, r0
    30f4:	1a80100e 	bne	fe007134 <__bss_end+0x7df05520>
    30f8:	01000000 	mrseq	r0, (UNDEF: 0)
    30fc:	0001099c 	muleq	r1, ip, r9
    3100:	74730900 	ldrbtvc	r0, [r3], #-2304	; 0xfffff700
    3104:	da010072 	ble	432d4 <shift+0x432d4>
    3108:	00000109 	andeq	r0, r0, r9, lsl #2
    310c:	7f949103 	svcvc	0x00949103
    3110:	100e1a0a 	andne	r1, lr, sl, lsl #20
    3114:	00018080 	andeq	r8, r1, r0, lsl #1
    3118:	0000eb00 	andeq	lr, r0, r0, lsl #22
    311c:	50010b00 	andpl	r0, r1, r0, lsl #22
    3120:	7f949103 	svcvc	0x00949103
    3124:	0e240c00 	cdpeq	12, 2, cr0, cr4, cr0, {0}
    3128:	024a8010 	subeq	r8, sl, #16
    312c:	010b0000 	mrseq	r0, (UNDEF: 11)
    3130:	94910350 	ldrls	r0, [r1], #848	; 0x350
    3134:	51010b7f 	tstpl	r1, pc, ror fp
    3138:	0b007102 	bleq	1f548 <shift+0x1f548>
    313c:	71025201 	tstvc	r2, r1, lsl #4
    3140:	04000000 	streq	r0, [r0], #-0
    3144:	00000119 	andeq	r0, r0, r9, lsl r1
    3148:	00000119 	andeq	r0, r0, r9, lsl r1
    314c:	00005d05 	andeq	r5, r0, r5, lsl #26
    3150:	02006300 	andeq	r6, r0, #0, 6
    3154:	07380801 	ldreq	r0, [r8, -r1, lsl #16]!
    3158:	190d0000 	stmdbne	sp, {}	; <UNPREDICTABLE>
    315c:	07000001 	streq	r0, [r0, -r1]
    3160:	00001247 	andeq	r1, r0, r7, asr #4
    3164:	0041c701 	subeq	ip, r1, r1, lsl #14
    3168:	0df40000 	ldcleq	0, cr0, [r4]
    316c:	001a8010 	andseq	r8, sl, r0, lsl r0
    3170:	9c010000 	stcls	0, cr0, [r1], {-0}
    3174:	00000180 	andeq	r0, r0, r0, lsl #3
    3178:	72747309 	rsbsvc	r7, r4, #603979776	; 0x24000000
    317c:	09c90100 	stmibeq	r9, {r8}^
    3180:	03000001 	movweq	r0, #1
    3184:	0a7f9491 	beq	1fe83d0 <shift+0x1fe83d0>
    3188:	80100dfe 			; <UNDEFINED> instruction: 0x80100dfe
    318c:	00000180 	andeq	r0, r0, r0, lsl #3
    3190:	00000162 	andeq	r0, r0, r2, ror #2
    3194:	0350010b 	cmpeq	r0, #-1073741822	; 0xc0000002
    3198:	007f9491 			; <UNDEFINED> instruction: 0x007f9491
    319c:	100e080c 	andne	r0, lr, ip, lsl #16
    31a0:	00020680 	andeq	r0, r2, r0, lsl #13
    31a4:	50010b00 	andpl	r0, r1, r0, lsl #22
    31a8:	7f949103 	svcvc	0x00949103
    31ac:	0251010b 	subseq	r0, r1, #-1073741822	; 0xc0000002
    31b0:	010b0071 	tsteq	fp, r1, ror r0
    31b4:	00710252 	rsbseq	r0, r1, r2, asr r2
    31b8:	86070000 	strhi	r0, [r7], -r0
    31bc:	01000012 	tsteq	r0, r2, lsl r0
    31c0:	0002009f 	muleq	r2, pc, r0	; <UNPREDICTABLE>
    31c4:	100db400 	andne	fp, sp, r0, lsl #8
    31c8:	00003e80 	andeq	r3, r0, r0, lsl #29
    31cc:	009c0100 	addseq	r0, ip, r0, lsl #2
    31d0:	0e000002 	cdpeq	0, 0, cr0, cr0, cr2, {0}
    31d4:	9f010073 	svcls	0x00010073
    31d8:	00000200 	andeq	r0, r0, r0, lsl #4
    31dc:	00001021 	andeq	r1, r0, r1, lsr #32
    31e0:	0100690f 	tsteq	r0, pc, lsl #18
    31e4:	000041a1 	andeq	r4, r0, r1, lsr #3
    31e8:	00103f00 	andseq	r3, r0, r0, lsl #30
    31ec:	00630f00 	rsbeq	r0, r3, r0, lsl #30
    31f0:	0119a201 	tsteq	r9, r1, lsl #4
    31f4:	105e0000 	subsne	r0, lr, r0
    31f8:	cc100000 	ldcgt	0, cr0, [r0], {-0}
    31fc:	6180100d 	orrvs	r1, r0, sp
    3200:	0a000003 	beq	3214 <shift+0x3214>
    3204:	80100dd2 			; <UNDEFINED> instruction: 0x80100dd2
    3208:	0000036c 	andeq	r0, r0, ip, ror #6
    320c:	000001dd 	ldrdeq	r0, [r0], -sp
    3210:	0250010b 	subseq	r0, r0, #-1073741822	; 0xc0000002
    3214:	0a000074 	beq	33ec <shift+0x33ec>
    3218:	80100ddc 			; <UNDEFINED> instruction: 0x80100ddc
    321c:	0000036c 	andeq	r0, r0, ip, ror #6
    3220:	000001f0 	strdeq	r0, [r0], -r0	; <UNPREDICTABLE>
    3224:	0150010b 	cmpeq	r0, fp, lsl #2
    3228:	ea0c003d 	b	303324 <shift+0x303324>
    322c:	6c80100d 	stcvs	0, cr1, [r0], {13}
    3230:	0b000003 	bleq	3244 <shift+0x3244>
    3234:	3a015001 	bcc	57240 <shift+0x57240>
    3238:	04110000 	ldreq	r0, [r1], #-0
    323c:	00000119 	andeq	r0, r0, r9, lsl r1
    3240:	00128b12 	andseq	r8, r2, r2, lsl fp
    3244:	378d0100 	strcc	r0, [sp, r0, lsl #2]
    3248:	01000002 	tsteq	r0, r2
    324c:	00000237 	andeq	r0, r0, r7, lsr r2
    3250:	00706313 	rsbseq	r6, r0, r3, lsl r3
    3254:	023e8d01 	eorseq	r8, lr, #1, 26	; 0x40
    3258:	a0140000 	andsge	r0, r4, r0
    325c:	01000012 	tsteq	r0, r2, lsl r0
    3260:	0002448d 	andeq	r4, r2, sp, lsl #9
    3264:	0d341400 	cfldrseq	mvf1, [r4, #-0]
    3268:	8d010000 	stchi	0, cr0, [r1, #-0]
    326c:	00000048 	andeq	r0, r0, r8, asr #32
    3270:	05040200 	streq	r0, [r4, #-512]	; 0xfffffe00
    3274:	00000154 	andeq	r0, r0, r4, asr r1
    3278:	01200411 			; <UNDEFINED> instruction: 0x01200411
    327c:	04110000 	ldreq	r0, [r1], #-0
    3280:	00000200 	andeq	r0, r0, r0, lsl #4
    3284:	00125e07 	andseq	r5, r2, r7, lsl #28
    3288:	c1650100 	cmngt	r5, r0, lsl #2
    328c:	e8000002 	stmda	r0, {r1}
    3290:	b080100c 	addlt	r1, r0, ip
    3294:	01000000 	mrseq	r0, (UNDEF: 0)
    3298:	0002c19c 	muleq	r2, ip, r1
    329c:	70630e00 	rsbvc	r0, r3, r0, lsl #28
    32a0:	3e650100 	powccs	f0, f5, f0
    32a4:	7c000002 	stcvc	0, cr0, [r0], {2}
    32a8:	15000010 	strne	r0, [r0, #-16]
    32ac:	000012a0 	andeq	r1, r0, r0, lsr #5
    32b0:	02446501 	subeq	r6, r4, #4194304	; 0x400000
    32b4:	51010000 	mrspl	r0, (UNDEF: 1)
    32b8:	000d3408 	andeq	r3, sp, r8, lsl #8
    32bc:	48650100 	stmdami	r5!, {r8}^
    32c0:	de000000 	cdple	0, 0, cr0, cr0, cr0, {0}
    32c4:	16000010 			; <UNDEFINED> instruction: 0x16000010
    32c8:	00001299 	muleq	r0, r9, r2
    32cc:	02c16701 	sbceq	r6, r1, #262144	; 0x40000
    32d0:	11500000 	cmpne	r0, r0
    32d4:	bf160000 	svclt	0x00160000
    32d8:	0100000b 	tsteq	r0, fp
    32dc:	0002c167 	andeq	ip, r2, r7, ror #2
    32e0:	00117b00 	andseq	r7, r1, r0, lsl #22
    32e4:	02c81700 	sbceq	r1, r8, #0, 14
    32e8:	0d2c0000 	stceq	0, cr0, [ip, #-0]
    32ec:	00028010 	andeq	r8, r2, r0, lsl r0
    32f0:	77010000 	strvc	r0, [r1, -r0]
    32f4:	0002d818 	andeq	sp, r2, r8, lsl r8
    32f8:	02000000 	andeq	r0, r0, #0
    32fc:	00850704 	addeq	r0, r5, r4, lsl #14
    3300:	6d190000 	ldcvs	0, cr0, [r9, #-0]
    3304:	01000012 	tsteq	r0, r2, lsl r0
    3308:	00002c4e 	andeq	r2, r0, lr, asr #24
    330c:	02e20300 	rsceq	r0, r2, #0, 6
    3310:	63130000 	tstvs	r3, #0
    3314:	2c4e0100 	stfcse	f0, [lr], {-0}
    3318:	00000000 	andeq	r0, r0, r0
    331c:	0002061a 	andeq	r0, r2, sl, lsl r6
    3320:	100d9800 	andne	r9, sp, r0, lsl #16
    3324:	00001a80 	andeq	r1, r0, r0, lsl #21
    3328:	619c0100 	orrsvs	r0, ip, r0, lsl #2
    332c:	1b000003 	blne	3340 <shift+0x3340>
    3330:	00000216 	andeq	r0, r0, r6, lsl r2
    3334:	00001199 	muleq	r0, r9, r1
    3338:	0002201c 	andeq	r2, r2, ip, lsl r0
    333c:	1b510100 	blne	1443744 <shift+0x1443744>
    3340:	0000022b 	andeq	r0, r0, fp, lsr #4
    3344:	000011d3 	ldrdeq	r1, [r0], -r3
    3348:	100da81d 	andne	sl, sp, sp, lsl r8
    334c:	00000880 	andeq	r0, r0, r0, lsl #17
    3350:	00034200 	andeq	r4, r3, r0, lsl #4
    3354:	022b1800 	eoreq	r1, fp, #0, 16
    3358:	20180000 	andscs	r0, r8, r0
    335c:	1b000002 	blne	336c <shift+0x336c>
    3360:	00000216 	andeq	r0, r0, r6, lsl r2
    3364:	0000120d 	andeq	r1, r0, sp, lsl #4
    3368:	100dae0c 	andne	sl, sp, ip, lsl #28
    336c:	00024a80 	andeq	r4, r2, r0, lsl #21
    3370:	50010b00 	andpl	r0, r1, r0, lsl #22
    3374:	5001f305 	andpl	pc, r1, r5, lsl #6
    3378:	00000123 	andeq	r0, r0, r3, lsr #2
    337c:	100da81e 	andne	sl, sp, lr, lsl r8
    3380:	00024a80 	andeq	r4, r2, r0, lsl #21
    3384:	50010b00 	andpl	r0, r1, r0, lsl #22
    3388:	5001f303 	andpl	pc, r1, r3, lsl #6
    338c:	0251010b 	subseq	r0, r1, #-1073741822	; 0xc0000002
    3390:	010b0071 	tsteq	fp, r1, ror r0
    3394:	01f30352 	mvnseq	r0, r2, asr r3
    3398:	1f000052 	svcne	0x00000052
    339c:	00000c75 	andeq	r0, r0, r5, ror ip
    33a0:	00000c75 	andeq	r0, r0, r5, ror ip
    33a4:	e71f2d02 	ldr	r2, [pc, -r2, lsl #26]
    33a8:	e700000c 	str	r0, [r0, -ip]
    33ac:	0200000c 	andeq	r0, r0, #12
    33b0:	0c780022 	ldcleq	0, cr0, [r8], #-136	; 0xffffff78
    33b4:	00040000 	andeq	r0, r4, r0
    33b8:	00000fe8 	andeq	r0, r0, r8, ror #31
    33bc:	05890104 	streq	r0, [r9, #260]	; 0x104
    33c0:	3a0c0000 	bcc	3033c8 <shift+0x3033c8>
    33c4:	a5000013 	strge	r0, [r0, #-19]	; 0xffffffed
    33c8:	30000000 	andcc	r0, r0, r0
    33cc:	8280100e 	addhi	r1, r0, #14
    33d0:	e6000002 	str	r0, [r0], -r2
    33d4:	02000008 	andeq	r0, r0, #8
    33d8:	07310601 	ldreq	r0, [r1, -r1, lsl #12]!
    33dc:	75030000 	strvc	r0, [r3, #-0]
    33e0:	0f030038 	svceq	0x00030038
    33e4:	00000036 	andeq	r0, r0, r6, lsr r0
    33e8:	2f080102 	svccs	0x00080102
    33ec:	02000007 	andeq	r0, r0, #7
    33f0:	043f0502 	ldrteq	r0, [pc], #-1282	; 33f8 <shift+0x33f8>
    33f4:	75030000 	strvc	r0, [r3, #-0]
    33f8:	03003631 	movweq	r3, #1585	; 0x631
    33fc:	00004f12 	andeq	r4, r0, r2, lsl pc
    3400:	07020200 	streq	r0, [r2, -r0, lsl #4]
    3404:	00000386 	andeq	r0, r0, r6, lsl #7
    3408:	69050404 	stmdbvs	r5, {r2, sl}
    340c:	0300746e 	movweq	r7, #1134	; 0x46e
    3410:	00323375 	eorseq	r3, r2, r5, ror r3
    3414:	00681503 	rsbeq	r1, r8, r3, lsl #10
    3418:	04020000 	streq	r0, [r2], #-0
    341c:	00008a07 	andeq	r8, r0, r7, lsl #20
    3420:	05080200 	streq	r0, [r8, #-512]	; 0xfffffe00
    3424:	0000014f 	andeq	r0, r0, pc, asr #2
    3428:	80070802 	andhi	r0, r7, r2, lsl #16
    342c:	05000000 	streq	r0, [r0, #-0]
    3430:	00000cac 	andeq	r0, r0, ip, lsr #25
    3434:	002c1a03 	eoreq	r1, ip, r3, lsl #20
    3438:	20050000 	andcs	r0, r5, r0
    343c:	03000011 	movweq	r0, #17
    3440:	0000441c 	andeq	r4, r0, ip, lsl r4
    3444:	00880600 	addeq	r0, r8, r0, lsl #12
    3448:	ef050000 	svc	0x00050000
    344c:	0300000c 	movweq	r0, #12
    3450:	00005d1e 	andeq	r5, r0, lr, lsl sp
    3454:	00980600 	addseq	r0, r8, r0, lsl #12
    3458:	a3070000 	movwge	r0, #28672	; 0x7000
    345c:	08000000 	stmdaeq	r0, {}	; <UNPREDICTABLE>
    3460:	000003ae 	andeq	r0, r0, lr, lsr #7
    3464:	00005604 	andeq	r5, r0, r4, lsl #12
    3468:	4f5c0400 	svcmi	0x005c0400
    346c:	09000004 	stmdbeq	r0, {r2}
    3470:	0000046b 	andeq	r0, r0, fp, ror #8
    3474:	670a7f80 	strvs	r7, [sl, -r0, lsl #31]
    3478:	00000009 	andeq	r0, r0, r9
    347c:	0002c10a 	andeq	ip, r2, sl, lsl #2
    3480:	300a0100 	andcc	r0, sl, r0, lsl #2
    3484:	02000004 	andeq	r0, r0, #4
    3488:	0006660a 	andeq	r6, r6, sl, lsl #12
    348c:	3d0a0300 	stccc	3, cr0, [sl, #-0]
    3490:	0400000a 	streq	r0, [r0], #-10
    3494:	0000ec0a 	andeq	lr, r0, sl, lsl #24
    3498:	f40a0500 	vst3.8	{d0,d2,d4}, [sl], r0
    349c:	06000001 	streq	r0, [r0], -r1
    34a0:	00073d0a 	andeq	r3, r7, sl, lsl #26
    34a4:	3d0a0700 	stccc	7, cr0, [sl, #-0]
    34a8:	08000008 	stmdaeq	r0, {r3}
    34ac:	00078a0a 	andeq	r8, r7, sl, lsl #20
    34b0:	870a0900 	strhi	r0, [sl, -r0, lsl #18]
    34b4:	0a000002 	beq	34c4 <shift+0x34c4>
    34b8:	0000cc0a 	andeq	ip, r0, sl, lsl #24
    34bc:	e40a0b00 	str	r0, [sl], #-2816	; 0xfffff500
    34c0:	0c000001 	stceq	0, cr0, [r0], {1}
    34c4:	0003120a 	andeq	r1, r3, sl, lsl #4
    34c8:	2d0a0d00 	stccs	13, cr0, [sl, #-0]
    34cc:	0e000008 	cdpeq	0, 0, cr0, cr0, cr8, {0}
    34d0:	000a4c0a 	andeq	r4, sl, sl, lsl #24
    34d4:	120a0f00 	andne	r0, sl, #0, 30
    34d8:	19000001 	stmdbne	r0, {r0}
    34dc:	0006510a 	andeq	r5, r6, sl, lsl #2
    34e0:	b30a1a00 	movwlt	r1, #43520	; 0xaa00
    34e4:	1b000006 	blne	3504 <shift+0x3504>
    34e8:	0005540a 	andeq	r5, r5, sl, lsl #8
    34ec:	790a1c00 	stmdbvc	sl, {sl, fp, ip}
    34f0:	1d000009 	stcne	0, cr0, [r0, #-36]	; 0xffffffdc
    34f4:	0009760a 	andeq	r7, r9, sl, lsl #12
    34f8:	d80a1e00 	stmdale	sl, {r9, sl, fp, ip}
    34fc:	1f000003 	svcne	0x00000003
    3500:	0007c70a 	andeq	ip, r7, sl, lsl #14
    3504:	d30a2000 	movwle	r2, #40960	; 0xa000
    3508:	21000008 	tstcs	r0, r8
    350c:	00025a0a 	andeq	r5, r2, sl, lsl #20
    3510:	5d0a2200 	sfmpl	f2, 4, [sl, #-0]
    3514:	23000001 	movwcs	r0, #1
    3518:	0001b10a 	andeq	fp, r1, sl, lsl #2
    351c:	dd0a2400 	cfstrsle	mvf2, [sl, #-0]
    3520:	25000004 	strcs	r0, [r0, #-4]
    3524:	0001890a 	andeq	r8, r1, sl, lsl #18
    3528:	2c0a2600 	stccs	6, cr2, [sl], {-0}
    352c:	27000000 	strcs	r0, [r0, -r0]
    3530:	0006d20a 	andeq	sp, r6, sl, lsl #4
    3534:	f90a2800 			; <UNDEFINED> instruction: 0xf90a2800
    3538:	29000002 	stmdbcs	r0, {r1}
    353c:	0004840a 	andeq	r8, r4, sl, lsl #8
    3540:	e80a2a00 	stmda	sl, {r9, fp, sp}
    3544:	2b000004 	blcs	355c <shift+0x355c>
    3548:	0000dc0a 	andeq	sp, r0, sl, lsl #24
    354c:	400a2c00 	andmi	r2, sl, r0, lsl #24
    3550:	2d000000 	stccs	0, cr0, [r0, #-0]
    3554:	0009290a 	andeq	r2, r9, sl, lsl #18
    3558:	e90a2e00 	stmdb	sl, {r9, sl, fp, sp}
    355c:	2f000006 	svccs	0x00000006
    3560:	0009f00a 	andeq	pc, r9, sl
    3564:	820a3000 	andhi	r3, sl, #0
    3568:	31000008 	tstcc	r0, r8
    356c:	0007e40a 	andeq	lr, r7, sl, lsl #8
    3570:	2a0a3200 	bcs	28fd78 <shift+0x28fd78>
    3574:	33000006 	movwcc	r0, #6
    3578:	0002640a 	andeq	r6, r2, sl, lsl #8
    357c:	990a3400 	stmdbls	sl, {sl, ip, sp}
    3580:	35000003 	strcc	r0, [r0, #-3]
    3584:	0004240a 	andeq	r2, r4, sl, lsl #8
    3588:	fa0a3600 	blx	290d90 <shift+0x290d90>
    358c:	37000008 	strcc	r0, [r0, -r8]
    3590:	0006920a 	andeq	r9, r6, sl, lsl #4
    3594:	c50a3800 	strgt	r3, [sl, #-2048]	; 0xfffff800
    3598:	39000006 	stmdbcc	r0, {r1, r2}
    359c:	0006870a 	andeq	r8, r6, sl, lsl #14
    35a0:	160a3a00 	strne	r3, [sl], -r0, lsl #20
    35a4:	3b000000 	blcc	35ac <shift+0x35ac>
    35a8:	0001440a 	andeq	r4, r1, sl, lsl #8
    35ac:	2f0a3c00 	svccs	0x000a3c00
    35b0:	3d000002 	stccc	0, cr0, [r0, #-8]
    35b4:	0007710a 	andeq	r7, r7, sl, lsl #2
    35b8:	0d0a3e00 	stceq	14, cr3, [sl, #-0]
    35bc:	3f000009 	svccc	0x00000009
    35c0:	000a310a 	andeq	r3, sl, sl, lsl #2
    35c4:	e70a4000 	str	r4, [sl, -r0]
    35c8:	41000003 	tstmi	r0, r3
    35cc:	00053b0a 	andeq	r3, r5, sl, lsl #22
    35d0:	510a4200 	mrspl	r4, R10_fiq
    35d4:	43000003 	movwmi	r0, #3
    35d8:	0007990a 	andeq	r9, r7, sl, lsl #18
    35dc:	c90a4400 	stmdbgt	sl, {sl, lr}
    35e0:	45000008 	strmi	r0, [r0, #-8]
    35e4:	0002250a 	andeq	r2, r2, sl, lsl #10
    35e8:	c10a4600 	tstgt	sl, r0, lsl #12
    35ec:	47000000 	strmi	r0, [r0, -r0]
    35f0:	0000350a 	andeq	r3, r0, sl, lsl #10
    35f4:	2b0a4800 	blcs	2955fc <shift+0x2955fc>
    35f8:	49000005 	stmdbmi	r0, {r0, r2}
    35fc:	0008ec0a 	andeq	lr, r8, sl, lsl #24
    3600:	fd0a4a00 	stc2	10, cr4, [sl, #-0]	; <UNPREDICTABLE>
    3604:	4b000003 	blmi	3618 <shift+0x3618>
    3608:	0004930a 	andeq	r9, r4, sl, lsl #6
    360c:	970a4c00 	strls	r4, [sl, -r0, lsl #24]
    3610:	4d000000 	stcmi	0, cr0, [r0, #-0]
    3614:	0008750a 	andeq	r7, r8, sl, lsl #10
    3618:	0f0a4e00 	svceq	0x000a4e00
    361c:	4f000006 	svcmi	0x00000006
    3620:	0005670a 	andeq	r6, r5, sl, lsl #14
    3624:	4d0a5000 	stcmi	0, cr5, [sl, #-0]
    3628:	51000002 	tstpl	r0, r2
    362c:	0008230a 	andeq	r2, r8, sl, lsl #6
    3630:	080a5200 	stmdaeq	sl, {r9, ip, lr}
    3634:	53000003 	movwpl	r0, #3
    3638:	0004790a 	andeq	r7, r4, sl, lsl #18
    363c:	770a5400 	strvc	r5, [sl, -r0, lsl #8]
    3640:	55000002 	strpl	r0, [r0, #-2]
    3644:	0001930a 	andeq	r9, r1, sl, lsl #6
    3648:	9f0a5600 	svcls	0x000a5600
    364c:	57000006 	strpl	r0, [r0, -r6]
    3650:	00086a0a 	andeq	r6, r8, sl, lsl #20
    3654:	b00a5800 	andlt	r5, sl, r0, lsl #16
    3658:	59000009 	stmdbpl	r0, {r0, r3}
    365c:	0009190a 	andeq	r1, r9, sl, lsl #18
    3660:	fa0a5a00 	blx	299e68 <shift+0x299e68>
    3664:	5b000006 	blpl	3684 <shift+0x3684>
    3668:	0004f30a 	andeq	pc, r4, sl, lsl #6
    366c:	700a5c00 	andvc	r5, sl, r0, lsl #24
    3670:	5d000000 	stcpl	0, cr0, [r0, #-0]
    3674:	000a1c0a 	andeq	r1, sl, sl, lsl #24
    3678:	dc0a5e00 	stcle	14, cr5, [sl], {-0}
    367c:	5f000008 	svcpl	0x00000008
    3680:	00032c0a 	andeq	r2, r3, sl, lsl #24
    3684:	970a6000 	strls	r6, [sl, -r0]
    3688:	61000002 	tstvs	r0, r2
    368c:	0004ab0a 	andeq	sl, r4, sl, lsl #22
    3690:	a30a6200 	movwge	r6, #41472	; 0xa200
    3694:	63000007 	movwvs	r0, #7
    3698:	00088d0a 	andeq	r8, r8, sl, lsl #26
    369c:	2a0a6400 	bcs	29c6a4 <shift+0x29c6a4>
    36a0:	65000001 	strvs	r0, [r0, #-1]
    36a4:	0001660a 	andeq	r6, r1, sl, lsl #12
    36a8:	b30a6600 	movwlt	r6, #42496	; 0xa600
    36ac:	67000003 	strvs	r0, [r0, -r3]
    36b0:	0004c40a 	andeq	ip, r4, sl, lsl #8
    36b4:	020a6800 	andeq	r6, sl, #0, 16
    36b8:	6900000a 	stmdbvs	r0, {r1, r3}
    36bc:	0008b00a 	andeq	fp, r8, sl
    36c0:	5b0a6a00 	blpl	29dec8 <shift+0x29dec8>
    36c4:	6b000003 	blvs	36d8 <shift+0x36d8>
    36c8:	00045a0a 	andeq	r5, r4, sl, lsl #20
    36cc:	330a6c00 	movwcc	r6, #44032	; 0xac00
    36d0:	6d000009 	stcvs	0, cr0, [r0, #-36]	; 0xffffffdc
    36d4:	0003a20a 	andeq	sl, r3, sl, lsl #4
    36d8:	030a6e00 	movweq	r6, #44544	; 0xae00
    36dc:	6f000002 	svcvs	0x00000002
    36e0:	0009e50a 	andeq	lr, r9, sl, lsl #10
    36e4:	650a7000 	strvs	r7, [sl, #-0]
    36e8:	71000000 	mrsvc	r0, (UNDEF: 0)
    36ec:	00067e0a 	andeq	r7, r6, sl, lsl #28
    36f0:	da0a7200 	ble	29fef8 <shift+0x29fef8>
    36f4:	73000001 	movwvc	r0, #1
    36f8:	0002ef0a 	andeq	lr, r2, sl, lsl #30
    36fc:	190a7400 	stmdbne	sl, {sl, ip, sp, lr}
    3700:	75000008 	strvc	r0, [r0, #-8]
    3704:	0009440a 	andeq	r4, r9, sl, lsl #8
    3708:	bb0a7600 	bllt	2a0f10 <shift+0x2a0f10>
    370c:	77000001 	strvc	r0, [r0, -r1]
    3710:	0002d00a 	andeq	sp, r2, sl
    3714:	dc0a7800 	stcle	8, cr7, [sl], {-0}
    3718:	79000009 	stmdbvc	r0, {r0, r3}
    371c:	0004490a 	andeq	r4, r4, sl, lsl #18
    3720:	240a7a00 	strcs	r7, [sl], #-2560	; 0xfffff600
    3724:	7b000008 	blvc	374c <shift+0x374c>
    3728:	0002140a 	andeq	r1, r2, sl, lsl #8
    372c:	010a7c00 	tsteq	sl, r0, lsl #24
    3730:	7d000001 	stcvc	0, cr0, [r0, #-4]
    3734:	0007f20a 	andeq	pc, r7, sl, lsl #4
    3738:	3c0a7e00 	stccc	14, cr7, [sl], {-0}
    373c:	7f000003 	svcvc	0x00000003
    3740:	00098d0a 	andeq	r8, r9, sl, lsl #26
    3744:	220a8000 	andcs	r8, sl, #0
    3748:	81000003 	tsthi	r0, r3
    374c:	0004a10a 	andeq	sl, r4, sl, lsl #2
    3750:	750a8200 	strvc	r8, [sl, #-512]	; 0xfffffe00
    3754:	83000003 	movwhi	r0, #3
    3758:	00075d0a 	andeq	r5, r7, sl, lsl #26
    375c:	4c0a8400 	cfstrsmi	mvf8, [sl], {-0}
    3760:	85000008 	strhi	r0, [r0, #-8]
    3764:	0001c90a 	andeq	ip, r1, sl, lsl #18
    3768:	1e0a8600 	cfmadd32ne	mvax0, mvfx8, mvfx10, mvfx0
    376c:	87000007 	strhi	r0, [r0, -r7]
    3770:	0005170a 	andeq	r1, r5, sl, lsl #14
    3774:	030a8800 	movweq	r8, #43008	; 0xa800
    3778:	89000005 	stmdbhi	r0, {r0, r2}
    377c:	00070a0a 	andeq	r0, r7, sl, lsl #20
    3780:	7f0a8a00 	svcvc	0x000a8a00
    3784:	8b000001 	blhi	3790 <shift+0x3790>
    3788:	0000210a 	andeq	r2, r0, sl, lsl #2
    378c:	bd0a8c00 	stclt	12, cr8, [sl, #-0]
    3790:	8d000007 	stchi	0, cr0, [r0, #-28]	; 0xffffffe4
    3794:	0003f30a 	andeq	pc, r3, sl, lsl #6
    3798:	a90a8e00 	stmdbge	sl, {r9, sl, fp, pc}
    379c:	8f000006 	svchi	0x00000006
    37a0:	0007d30a 	andeq	sp, r7, sl, lsl #6
    37a4:	4e0a9000 	cdpmi	0, 0, cr9, cr10, cr0, {0}
    37a8:	91000009 	tstls	r0, r9
    37ac:	00000c0a 	andeq	r0, r0, sl, lsl #24
    37b0:	1a0a9200 	bne	2a7fb8 <shift+0x2a7fb8>
    37b4:	93000004 	movwls	r0, #4
    37b8:	0006200a 	andeq	r2, r6, sl
    37bc:	670a9400 	strvs	r9, [sl, -r0, lsl #8]
    37c0:	95000007 	strls	r0, [r0, #-7]
    37c4:	0003cd0a 	andeq	ip, r3, sl, lsl #26
    37c8:	a10a9600 	tstge	sl, r0, lsl #12
    37cc:	97000001 	strls	r0, [r0, -r1]
    37d0:	0005200a 	andeq	r2, r5, sl
    37d4:	cc0a9800 	stcgt	8, cr9, [sl], {-0}
    37d8:	99000009 	stmdbls	r0, {r0, r3}
    37dc:	0005780a 	andeq	r7, r5, sl, lsl #16
    37e0:	4c0a9a00 			; <UNDEFINED> instruction: 0x4c0a9a00
    37e4:	9b000007 	blls	3808 <shift+0x3808>
    37e8:	0008590a 	andeq	r5, r8, sl, lsl #18
    37ec:	9f0a9c00 	svcls	0x000a9c00
    37f0:	9d000009 	stcls	0, cr0, [r0, #-36]	; 0xffffffdc
    37f4:	0002de0a 	andeq	sp, r2, sl, lsl #28
    37f8:	570a9e00 	strpl	r9, [sl, -r0, lsl #28]
    37fc:	9f000000 	svcls	0x00000000
    3800:	0dcd0500 	cfstr64eq	mvdx0, [sp]
    3804:	fa040000 	blx	10380c <shift+0x10380c>
    3808:	000000ad 	andeq	r0, r0, sp, lsr #1
    380c:	bb070402 	bllt	1c481c <shift+0x1c481c>
    3810:	0b000009 	bleq	383c <shift+0x383c>
    3814:	34e30420 	strbtcc	r0, [r3], #1056	; 0x420
    3818:	000004d2 	ldrdeq	r0, [r0], -r2
    381c:	0052440c 	subseq	r4, r2, ip, lsl #8
    3820:	a334e404 	teqge	r4, #4, 8	; 0x4000000
    3824:	00000000 	andeq	r0, r0, r0
    3828:	000b140d 	andeq	r1, fp, sp, lsl #8
    382c:	34e50400 	strbtcc	r0, [r5], #1024	; 0x400
    3830:	000000a3 	andeq	r0, r0, r3, lsr #1
    3834:	53500c04 	cmppl	r0, #4, 24	; 0x400
    3838:	e6040052 			; <UNDEFINED> instruction: 0xe6040052
    383c:	0000a834 	andeq	sl, r0, r4, lsr r8
    3840:	980d0800 	stmdals	sp, {fp}
    3844:	0400000a 	streq	r0, [r0], #-10
    3848:	00a334e7 	adceq	r3, r3, r7, ror #9
    384c:	0d0c0000 	stceq	0, cr0, [ip, #-0]
    3850:	00000aa2 	andeq	r0, r0, r2, lsr #21
    3854:	a334e804 	teqge	r4, #4, 16	; 0x40000
    3858:	10000000 	andne	r0, r0, r0
    385c:	524d490c 	subpl	r4, sp, #12, 18	; 0x30000
    3860:	34e90400 	strbtcc	r0, [r9], #1024	; 0x400
    3864:	000000a3 	andeq	r0, r0, r3, lsr #1
    3868:	53490c14 	movtpl	r0, #39956	; 0x9c14
    386c:	ea040052 	b	1039bc <shift+0x1039bc>
    3870:	0000a334 	andeq	sl, r0, r4, lsr r3
    3874:	dc0d1800 	stcle	8, cr1, [sp], {-0}
    3878:	0400000a 	streq	r0, [r0], #-10
    387c:	00a334eb 	adceq	r3, r3, fp, ror #9
    3880:	001c0000 	andseq	r0, ip, r0
    3884:	00134f0e 	andseq	r4, r3, lr, lsl #30
    3888:	34ec0400 	strbtcc	r0, [ip], #1024	; 0x400
    388c:	00000461 	andeq	r0, r0, r1, ror #8
    3890:	2404120b 	strcs	r1, [r4], #-523	; 0xfffffdf5
    3894:	00055d3a 	andeq	r5, r5, sl, lsr sp
    3898:	111b0d00 	tstne	fp, r0, lsl #26
    389c:	25040000 	strcs	r0, [r4, #-0]
    38a0:	0000933a 	andeq	r9, r0, sl, lsr r3
    38a4:	080d0000 	stmdaeq	sp, {}	; <UNPREDICTABLE>
    38a8:	0400000d 	streq	r0, [r0], #-13
    38ac:	055d3a26 	ldrbeq	r3, [sp, #-2598]	; 0xfffff5da
    38b0:	0d020000 	stceq	0, cr0, [r2, #-0]
    38b4:	00001172 	andeq	r1, r0, r2, ror r1
    38b8:	933a2704 	teqls	sl, #4, 14	; 0x100000
    38bc:	04000000 	streq	r0, [r0], #-0
    38c0:	000d130d 	andeq	r1, sp, sp, lsl #6
    38c4:	3a280400 	bcc	a048cc <shift+0xa048cc>
    38c8:	0000055d 	andeq	r0, r0, sp, asr r5
    38cc:	105b0d06 	subsne	r0, fp, r6, lsl #26
    38d0:	29040000 	stmdbcs	r4, {}	; <UNPREDICTABLE>
    38d4:	0000933a 	andeq	r9, r0, sl, lsr r3
    38d8:	500d0800 	andpl	r0, sp, r0, lsl #16
    38dc:	04000011 	streq	r0, [r0], #-17	; 0xffffffef
    38e0:	055d3a2a 	ldrbeq	r3, [sp, #-2602]	; 0xfffff5d6
    38e4:	0d0a0000 	stceq	0, cr0, [sl, #-0]
    38e8:	000010b1 	strheq	r1, [r0], -r1	; <UNPREDICTABLE>
    38ec:	933a2b04 	teqls	sl, #4, 22	; 0x1000
    38f0:	0c000000 	stceq	0, cr0, [r0], {-0}
    38f4:	00115b0d 	andseq	r5, r1, sp, lsl #22
    38f8:	3a2c0400 	bcc	b04900 <shift+0xb04900>
    38fc:	0000055d 	andeq	r0, r0, sp, asr r5
    3900:	10ac0d0e 	adcne	r0, ip, lr, lsl #26
    3904:	2d040000 	stccs	0, cr0, [r4, #-0]
    3908:	0000933a 	andeq	r9, r0, sl, lsr r3
    390c:	0f001000 	svceq	0x00001000
    3910:	0000007d 	andeq	r0, r0, sp, ror r0
    3914:	0000056d 	andeq	r0, r0, sp, ror #10
    3918:	00045a10 	andeq	r5, r4, r0, lsl sl
    391c:	0e000100 	adfeqs	f0, f0, f0
    3920:	000010c2 	andeq	r1, r0, r2, asr #1
    3924:	de3a2e04 	cdple	14, 3, cr2, cr10, cr4, {0}
    3928:	11000004 	tstne	r0, r4
    392c:	00001308 	andeq	r1, r0, r8, lsl #6
    3930:	f2050509 	vrshl.s8	d0, d9, d5
    3934:	12000005 	andne	r0, r0, #5
    3938:	000012e9 	andeq	r1, r0, r9, ror #5
    393c:	00360705 	eorseq	r0, r6, r5, lsl #14
    3940:	12000000 	andne	r0, r0, #0
    3944:	00001359 	andeq	r1, r0, r9, asr r3
    3948:	00360805 	eorseq	r0, r6, r5, lsl #16
    394c:	12010000 	andne	r0, r1, #0
    3950:	000012b3 			; <UNDEFINED> instruction: 0x000012b3
    3954:	00360905 	eorseq	r0, r6, r5, lsl #18
    3958:	12020000 	andne	r0, r2, #0
    395c:	000012c2 	andeq	r1, r0, r2, asr #5
    3960:	00360a05 	eorseq	r0, r6, r5, lsl #20
    3964:	12030000 	andne	r0, r3, #0
    3968:	0000132f 	andeq	r1, r0, pc, lsr #6
    396c:	00360b05 	eorseq	r0, r6, r5, lsl #22
    3970:	12040000 	andne	r0, r4, #0
    3974:	00001363 	andeq	r1, r0, r3, ror #6
    3978:	00360c05 	eorseq	r0, r6, r5, lsl #24
    397c:	12050000 	andne	r0, r5, #0
    3980:	000012f3 	strdeq	r1, [r0], -r3
    3984:	00360d05 	eorseq	r0, r6, r5, lsl #26
    3988:	12060000 	andne	r0, r6, #0
    398c:	00001316 	andeq	r1, r0, r6, lsl r3
    3990:	00360e05 	eorseq	r0, r6, r5, lsl #28
    3994:	12070000 	andne	r0, r7, #0
    3998:	00001344 	andeq	r1, r0, r4, asr #6
    399c:	00360f05 	eorseq	r0, r6, r5, lsl #30
    39a0:	00080000 	andeq	r0, r8, r0
    39a4:	00132005 	andseq	r2, r3, r5
    39a8:	79100500 	ldmdbvc	r0, {r8, sl}
    39ac:	11000005 	tstne	r0, r5
    39b0:	0000040b 	andeq	r0, r0, fp, lsl #8
    39b4:	3a130510 	bcc	4c4dfc <shift+0x4c4dfc>
    39b8:	12000006 	andne	r0, r0, #6
    39bc:	0000095f 	andeq	r0, r0, pc, asr r9
    39c0:	00681405 	rsbeq	r1, r8, r5, lsl #8
    39c4:	12000000 	andne	r0, r0, #0
    39c8:	00000675 	andeq	r0, r0, r5, ror r6
    39cc:	00681505 	rsbeq	r1, r8, r5, lsl #10
    39d0:	12040000 	andne	r0, r4, #0
    39d4:	000009c4 	andeq	r0, r0, r4, asr #19
    39d8:	00681605 	rsbeq	r1, r8, r5, lsl #12
    39dc:	12080000 	andne	r0, r8, #0
    39e0:	0000077c 	andeq	r0, r0, ip, ror r7
    39e4:	00681705 	rsbeq	r1, r8, r5, lsl #14
    39e8:	000c0000 	andeq	r0, ip, r0
    39ec:	00064105 	andeq	r4, r6, r5, lsl #2
    39f0:	fd180500 	ldc2	5, cr0, [r8, #-0]
    39f4:	13000005 	movwne	r0, #5
    39f8:	ae120620 	cfmsub32ge	mvax1, mvfx0, mvfx2, mvfx0
    39fc:	12000006 	andne	r0, r0, #6
    3a00:	00000b22 	andeq	r0, r0, r2, lsr #22
    3a04:	00681306 	rsbeq	r1, r8, r6, lsl #6
    3a08:	12000000 	andne	r0, r0, #0
    3a0c:	00000b0f 	andeq	r0, r0, pc, lsl #22
    3a10:	00681406 	rsbeq	r1, r8, r6, lsl #8
    3a14:	12040000 	andne	r0, r4, #0
    3a18:	00000b19 	andeq	r0, r0, r9, lsl fp
    3a1c:	00681506 	rsbeq	r1, r8, r6, lsl #10
    3a20:	12080000 	andne	r0, r8, #0
    3a24:	00000a93 	muleq	r0, r3, sl
    3a28:	00681606 	rsbeq	r1, r8, r6, lsl #12
    3a2c:	120c0000 	andne	r0, ip, #0
    3a30:	00000a9d 	muleq	r0, sp, sl
    3a34:	00681706 	rsbeq	r1, r8, r6, lsl #14
    3a38:	12100000 	andsne	r0, r0, #0
    3a3c:	00000aa7 	andeq	r0, r0, r7, lsr #21
    3a40:	00681806 	rsbeq	r1, r8, r6, lsl #16
    3a44:	12140000 	andsne	r0, r4, #0
    3a48:	00000ac8 	andeq	r0, r0, r8, asr #21
    3a4c:	00681906 	rsbeq	r1, r8, r6, lsl #18
    3a50:	12180000 	andsne	r0, r8, #0
    3a54:	00000ad7 	ldrdeq	r0, [r0], -r7
    3a58:	00681a06 	rsbeq	r1, r8, r6, lsl #20
    3a5c:	001c0000 	andseq	r0, ip, r0
    3a60:	000b0205 	andeq	r0, fp, r5, lsl #4
    3a64:	451b0600 	ldrmi	r0, [fp, #-1536]	; 0xfffffa00
    3a68:	08000006 	stmdaeq	r0, {r1, r2}
    3a6c:	00000ae5 	andeq	r0, r0, r5, ror #21
    3a70:	00006804 	andeq	r6, r0, r4, lsl #16
    3a74:	dc070700 	stcle	7, cr0, [r7], {-0}
    3a78:	0a000006 	beq	3a98 <shift+0x3a98>
    3a7c:	00000ad1 	ldrdeq	r0, [r0], -r1
    3a80:	0b2a0a00 	bleq	a86288 <shift+0xa86288>
    3a84:	0a010000 	beq	43a8c <shift+0x43a8c>
    3a88:	00000ab0 			; <UNDEFINED> instruction: 0x00000ab0
    3a8c:	c5080002 	strgt	r0, [r8, #-2]
    3a90:	0400000b 	streq	r0, [r0], #-11
    3a94:	00000068 	andeq	r0, r0, r8, rrx
    3a98:	07050d07 	streq	r0, [r5, -r7, lsl #26]
    3a9c:	490a0000 	stmdbmi	sl, {}	; <UNPREDICTABLE>
    3aa0:	0000000b 	andeq	r0, r0, fp
    3aa4:	000b810a 	andeq	r8, fp, sl, lsl #2
    3aa8:	580a0100 	stmdapl	sl, {r8}
    3aac:	0200000b 	andeq	r0, r0, #11
    3ab0:	000b6b0a 	andeq	r6, fp, sl, lsl #22
    3ab4:	14000300 	strne	r0, [r0], #-768	; 0xfffffd00
    3ab8:	12d61504 	sbcsne	r1, r6, #4, 10	; 0x1000000
    3abc:	55010000 	strpl	r0, [r1, #-0]
    3ac0:	80100f9c 	mulshi	r0, ip, pc	; <UNPREDICTABLE>
    3ac4:	00000116 	andeq	r0, r0, r6, lsl r1
    3ac8:	08ff9c01 	ldmeq	pc!, {r0, sl, fp, ip, pc}^	; <UNPREDICTABLE>
    3acc:	69160000 	ldmdbvs	r6, {}	; <UNPREDICTABLE>
    3ad0:	01007172 	tsteq	r0, r2, ror r1
    3ad4:	00044f55 	andeq	r4, r4, r5, asr pc
    3ad8:	00123b00 	andseq	r3, r2, r0, lsl #22
    3adc:	0e271700 	cdpeq	7, 2, cr1, cr7, cr0, {0}
    3ae0:	55010000 	strpl	r0, [r1, #-0]
    3ae4:	00000705 	andeq	r0, r0, r5, lsl #14
    3ae8:	0000125c 	andeq	r1, r0, ip, asr r2
    3aec:	0012cc18 	andseq	ip, r2, r8, lsl ip
    3af0:	36570100 	ldrbcc	r0, [r7], -r0, lsl #2
    3af4:	02000000 	andeq	r0, r0, #0
    3af8:	53186791 	tstpl	r8, #38010880	; 0x2440000
    3afc:	0100000b 	tsteq	r0, fp
    3b00:	00063a58 	andeq	r3, r6, r8, asr sl
    3b04:	68910200 	ldmvs	r1, {r9}
    3b08:	100fc219 	andne	ip, pc, r9, lsl r2	; <UNPREDICTABLE>
    3b0c:	000c3980 	andeq	r3, ip, r0, lsl #19
    3b10:	00077400 	andeq	r7, r7, r0, lsl #8
    3b14:	51011a00 	tstpl	r1, r0, lsl #20
    3b18:	011a4e01 	tsteq	sl, r1, lsl #28
    3b1c:	1a310152 	bne	c4406c <shift+0xc4406c>
    3b20:	91025301 	tstls	r2, r1, lsl #6
    3b24:	c8190067 	ldmdagt	r9, {r0, r1, r2, r5, r6}
    3b28:	a680100f 	strge	r1, [r0], pc
    3b2c:	88000009 	stmdahi	r0, {r0, r3}
    3b30:	1a000007 	bne	3b54 <shift+0x3b54>
    3b34:	91025001 	tstls	r2, r1
    3b38:	dc190068 	ldcle	0, cr0, [r9], {104}	; 0x68
    3b3c:	4480100f 	strmi	r1, [r0], #15
    3b40:	9b00000c 	blls	3b78 <shift+0x3b78>
    3b44:	1a000007 	bne	3b68 <shift+0x3b68>
    3b48:	30015001 	andcc	r5, r1, r1
    3b4c:	0fec1900 	svceq	0x00ec1900
    3b50:	0c4f8010 	mcrreq	0, 1, r8, pc, cr0
    3b54:	07b90000 	ldreq	r0, [r9, r0]!
    3b58:	011a0000 	tsteq	sl, r0
    3b5c:	1a4e0151 	bne	13840a8 <shift+0x13840a8>
    3b60:	4a015201 	bmi	5836c <shift+0x5836c>
    3b64:	0253011a 	subseq	r0, r3, #-2147483642	; 0x80000006
    3b68:	19009609 	stmdbne	r0, {r0, r3, r9, sl, ip, pc}
    3b6c:	80100ffc 			; <UNDEFINED> instruction: 0x80100ffc
    3b70:	00000c4f 	andeq	r0, r0, pc, asr #24
    3b74:	000007d6 	ldrdeq	r0, [r0], -r6
    3b78:	0151011a 	cmpeq	r1, sl, lsl r1
    3b7c:	52011a4e 	andpl	r1, r1, #319488	; 0x4e000
    3b80:	011a4b01 	tsteq	sl, r1, lsl #22
    3b84:	00300153 	eorseq	r0, r0, r3, asr r1
    3b88:	10100c19 	andsne	r0, r0, r9, lsl ip
    3b8c:	000c4f80 	andeq	r4, ip, r0, lsl #31
    3b90:	0007f400 	andeq	pc, r7, r0, lsl #8
    3b94:	51011a00 	tstpl	r1, r0, lsl #20
    3b98:	011a4e01 	tsteq	sl, r1, lsl #28
    3b9c:	1a4c0152 	bne	13040ec <shift+0x13040ec>
    3ba0:	09025301 	stmdbeq	r2, {r0, r8, r9, ip, lr}
    3ba4:	1c1900ff 	ldcne	0, cr0, [r9], {255}	; 0xff
    3ba8:	4f801010 	svcmi	0x00801010
    3bac:	1200000c 	andne	r0, r0, #12
    3bb0:	1a000008 	bne	3bd8 <shift+0x3bd8>
    3bb4:	4e015101 	adfmis	f5, f1, f1
    3bb8:	0152011a 	cmpeq	r2, sl, lsl r1
    3bbc:	53011a4d 	movwpl	r1, #6733	; 0x1a4d
    3bc0:	00ff0902 	rscseq	r0, pc, r2, lsl #18
    3bc4:	10102819 	andsne	r2, r0, r9, lsl r8
    3bc8:	000c5a80 	andeq	r5, ip, r0, lsl #21
    3bcc:	00082900 	andeq	r2, r8, r0, lsl #18
    3bd0:	50011a00 	andpl	r1, r1, r0, lsl #20
    3bd4:	15c00305 	strbne	r0, [r0, #773]	; 0x305
    3bd8:	19008010 	stmdbne	r0, {r4, pc}
    3bdc:	80101038 	andshi	r1, r0, r8, lsr r0
    3be0:	00000c4f 	andeq	r0, r0, pc, asr #24
    3be4:	00000846 	andeq	r0, r0, r6, asr #16
    3be8:	0151011a 	cmpeq	r1, sl, lsl r1
    3bec:	52011a4e 	andpl	r1, r1, #319488	; 0x4e000
    3bf0:	011a3101 	tsteq	sl, r1, lsl #2
    3bf4:	00310153 	eorseq	r0, r1, r3, asr r1
    3bf8:	10105219 	andsne	r5, r0, r9, lsl r2
    3bfc:	000c4480 	andeq	r4, ip, r0, lsl #9
    3c00:	00085900 	andeq	r5, r8, r0, lsl #18
    3c04:	50011a00 	andpl	r1, r1, r0, lsl #20
    3c08:	19003101 	stmdbne	r0, {r0, r8, ip, sp}
    3c0c:	80101062 	andshi	r1, r0, r2, rrx
    3c10:	00000c4f 	andeq	r0, r0, pc, asr #24
    3c14:	00000877 	andeq	r0, r0, r7, ror r8
    3c18:	0151011a 	cmpeq	r1, sl, lsl r1
    3c1c:	52011a4e 	andpl	r1, r1, #319488	; 0x4e000
    3c20:	011a4c01 	tsteq	sl, r1, lsl #24
    3c24:	96090253 			; <UNDEFINED> instruction: 0x96090253
    3c28:	10721900 	rsbsne	r1, r2, r0, lsl #18
    3c2c:	0c4f8010 	mcrreq	0, 1, r8, pc, cr0
    3c30:	08940000 	ldmeq	r4, {}	; <UNPREDICTABLE>
    3c34:	011a0000 	tsteq	sl, r0
    3c38:	1a4e0151 	bne	1384184 <shift+0x1384184>
    3c3c:	4d015201 	sfmmi	f5, 4, [r1, #-4]
    3c40:	0153011a 	cmpeq	r3, sl, lsl r1
    3c44:	82190030 	andshi	r0, r9, #48	; 0x30
    3c48:	4f801010 	svcmi	0x00801010
    3c4c:	b100000c 	tstlt	r0, ip
    3c50:	1a000008 	bne	3c78 <shift+0x3c78>
    3c54:	4e015101 	adfmis	f5, f1, f1
    3c58:	0152011a 	cmpeq	r2, sl, lsl r1
    3c5c:	53011a4a 	movwpl	r1, #6730	; 0x1a4a
    3c60:	19003001 	stmdbne	r0, {r0, ip, sp}
    3c64:	80101092 	mulshi	r0, r2, r0
    3c68:	00000c4f 	andeq	r0, r0, pc, asr #24
    3c6c:	000008ce 	andeq	r0, r0, lr, asr #17
    3c70:	0151011a 	cmpeq	r1, sl, lsl r1
    3c74:	52011a4e 	andpl	r1, r1, #319488	; 0x4e000
    3c78:	011a4b01 	tsteq	sl, r1, lsl #22
    3c7c:	00300153 	eorseq	r0, r0, r3, asr r1
    3c80:	1010a019 	andsne	sl, r0, r9, lsl r0
    3c84:	000c5a80 	andeq	r5, ip, r0, lsl #21
    3c88:	0008e500 	andeq	lr, r8, r0, lsl #10
    3c8c:	50011a00 	andpl	r1, r1, r0, lsl #20
    3c90:	15e00305 	strbne	r0, [r0, #773]!	; 0x305
    3c94:	1b008010 	blne	23cdc <shift+0x23cdc>
    3c98:	801010b0 	ldrhhi	r1, [r0], -r0
    3c9c:	00000c4f 	andeq	r0, r0, pc, asr #24
    3ca0:	0151011a 	cmpeq	r1, sl, lsl r1
    3ca4:	52011a4e 	andpl	r1, r1, #319488	; 0x4e000
    3ca8:	011a3101 	tsteq	sl, r1, lsl #2
    3cac:	00320153 	eorseq	r0, r2, r3, asr r1
    3cb0:	080b1500 	stmdaeq	fp, {r8, sl, ip}
    3cb4:	4b010000 	blmi	43cbc <shift+0x43cbc>
    3cb8:	80100f6c 	andshi	r0, r0, ip, ror #30
    3cbc:	0000002e 	andeq	r0, r0, lr, lsr #32
    3cc0:	09a09c01 	stmibeq	r0!, {r0, sl, fp, ip, pc}
    3cc4:	501c0000 	andspl	r0, ip, r0
    3cc8:	01000010 	tsteq	r0, r0, lsl r0
    3ccc:	0009a04d 	andeq	sl, r9, sp, asr #32
    3cd0:	0a800000 	beq	fe003cd8 <__bss_end+0x7df020c4>
    3cd4:	0be31d02 	bleq	ff8cb0e4 <__bss_end+0x7f7c94d0>
    3cd8:	0f6e0000 	svceq	0x006e0000
    3cdc:	02508010 	subseq	r8, r0, #16
    3ce0:	4e010000 	cdpmi	0, 0, cr0, cr1, cr0, {0}
    3ce4:	0000096d 	andeq	r0, r0, sp, ror #18
    3ce8:	000c201e 	andeq	r2, ip, lr, lsl r0
    3cec:	0e044400 	cfcpyseq	mvf4, mvf4
    3cf0:	0c2c1f02 	stceq	15, cr1, [ip], #-8
    3cf4:	127d0000 	rsbsne	r0, sp, #0
    3cf8:	141f0000 	ldrne	r0, [pc], #-0	; 3d00 <shift+0x3d00>
    3cfc:	7d00000c 	stcvc	0, cr0, [r0, #-48]	; 0xffffffd0
    3d00:	1f000012 	svcne	0x00000012
    3d04:	00000c08 	andeq	r0, r0, r8, lsl #24
    3d08:	0000127d 	andeq	r1, r0, sp, ror r2
    3d0c:	000bfc1f 	andeq	pc, fp, pc, lsl ip	; <UNPREDICTABLE>
    3d10:	00129100 	andseq	r9, r2, r0, lsl #2
    3d14:	0bf01f00 	bleq	ffc0b91c <__bss_end+0x7fb09d08>
    3d18:	12a50000 	adcne	r0, r5, #0
    3d1c:	19000000 	stmdbne	r0, {}	; <UNPREDICTABLE>
    3d20:	80100f8c 	andshi	r0, r0, ip, lsl #31
    3d24:	00000c65 	andeq	r0, r0, r5, ror #24
    3d28:	0000098b 	andeq	r0, r0, fp, lsl #19
    3d2c:	0250011a 	subseq	r0, r0, #-2147483642	; 0x80000006
    3d30:	011a0074 	tsteq	sl, r4, ror r0
    3d34:	1a400151 	bne	1004280 <shift+0x1004280>
    3d38:	32015201 	andcc	r5, r1, #268435456	; 0x10000000
    3d3c:	0f9a2000 	svceq	0x009a2000
    3d40:	0c708010 	ldcleq	0, cr8, [r0], #-64	; 0xffffffc0
    3d44:	011a0000 	tsteq	sl, r0
    3d48:	1a400151 	bne	1004294 <shift+0x1004294>
    3d4c:	33015201 	movwcc	r5, #4609	; 0x1201
    3d50:	04210000 	strteq	r0, [r1], #-0
    3d54:	000006ae 	andeq	r0, r0, lr, lsr #13
    3d58:	00054722 	andeq	r4, r5, r2, lsr #14
    3d5c:	56330100 	ldrtpl	r0, [r3], -r0, lsl #2
    3d60:	f8000000 			; <UNDEFINED> instruction: 0xf8000000
    3d64:	7280100e 	addvc	r1, r0, #14
    3d68:	01000000 	mrseq	r0, (UNDEF: 0)
    3d6c:	000a2a9c 	muleq	sl, ip, sl
    3d70:	0bbf1700 	bleq	fefc9978 <__bss_end+0x7eec7d64>
    3d74:	33010000 	movwcc	r0, #4096	; 0x1000
    3d78:	00000a2a 	andeq	r0, r0, sl, lsr #20
    3d7c:	000012bd 			; <UNDEFINED> instruction: 0x000012bd
    3d80:	00131118 	andseq	r1, r3, r8, lsl r1
    3d84:	f2350100 	vrhadd.s<illegal width 64>	d0, d5, d0
    3d88:	02000005 	andeq	r0, r0, #5
    3d8c:	ff235c91 			; <UNDEFINED> instruction: 0xff235c91
    3d90:	01000012 	tsteq	r0, r2, lsl r0
    3d94:	00006836 	andeq	r6, r0, r6, lsr r8
    3d98:	0012db00 	andseq	sp, r2, r0, lsl #22
    3d9c:	0f041900 	svceq	0x00041900
    3da0:	0a308010 	beq	c23de8 <shift+0xc23de8>
    3da4:	09ff0000 	ldmibeq	pc!, {}^	; <UNPREDICTABLE>
    3da8:	011a0000 	tsteq	sl, r0
    3dac:	5c910250 	lfmpl	f0, 4, [r1], {80}	; 0x50
    3db0:	0f101900 	svceq	0x00101900
    3db4:	0c5a8010 	mrrceq	0, 1, r8, sl, cr0
    3db8:	0a160000 	beq	583dc0 <shift+0x583dc0>
    3dbc:	011a0000 	tsteq	sl, r0
    3dc0:	94030550 	strls	r0, [r3], #-1360	; 0xfffffab0
    3dc4:	00801015 	addeq	r1, r0, r5, lsl r0
    3dc8:	100f641b 	andne	r6, pc, fp, lsl r4	; <UNPREDICTABLE>
    3dcc:	000c5a80 	andeq	r5, ip, r0, lsl #21
    3dd0:	50011a00 	andpl	r1, r1, r0, lsl #20
    3dd4:	15a80305 	strne	r0, [r8, #773]!	; 0x305
    3dd8:	00008010 	andeq	r8, r0, r0, lsl r0
    3ddc:	063a0421 	ldrteq	r0, [sl], -r1, lsr #8
    3de0:	04220000 	strteq	r0, [r2], #-0
    3de4:	01000013 	tsteq	r0, r3, lsl r0
    3de8:	00005621 	andeq	r5, r0, r1, lsr #12
    3dec:	100e7800 	andne	r7, lr, r0, lsl #16
    3df0:	00007e80 	andeq	r7, r0, r0, lsl #29
    3df4:	209c0100 	addscs	r0, ip, r0, lsl #2
    3df8:	1700000b 	strne	r0, [r0, -fp]
    3dfc:	00000b53 	andeq	r0, r0, r3, asr fp
    3e00:	0b202101 	bleq	80c20c <shift+0x80c20c>
    3e04:	12f70000 	rscsne	r0, r7, #0
    3e08:	8e190000 	cdphi	0, 1, cr0, cr9, cr0, {0}
    3e0c:	3980100e 	stmibcc	r0, {r1, r2, r3, ip}
    3e10:	7600000c 	strvc	r0, [r0], -ip
    3e14:	1a00000a 	bne	3e44 <shift+0x3e44>
    3e18:	4e015101 	adfmis	f5, f1, f1
    3e1c:	0152011a 	cmpeq	r2, sl, lsl r1
    3e20:	53011a3a 	movwpl	r1, #6714	; 0x1a3a
    3e24:	00037402 	andeq	r7, r3, r2, lsl #8
    3e28:	100e9e19 	andne	r9, lr, r9, lsl lr
    3e2c:	000c3980 	andeq	r3, ip, r0, lsl #19
    3e30:	000a9400 	andeq	r9, sl, r0, lsl #8
    3e34:	51011a00 	tstpl	r1, r0, lsl #20
    3e38:	011a4e01 	tsteq	sl, r1, lsl #28
    3e3c:	1a3b0152 	bne	ec438c <shift+0xec438c>
    3e40:	74025301 	strvc	r5, [r2], #-769	; 0xfffffcff
    3e44:	ae190004 	cdpge	0, 1, cr0, cr9, cr4, {0}
    3e48:	3980100e 	stmibcc	r0, {r1, r2, r3, ip}
    3e4c:	b200000c 	andlt	r0, r0, #12
    3e50:	1a00000a 	bne	3e80 <shift+0x3e80>
    3e54:	4e015101 	adfmis	f5, f1, f1
    3e58:	0152011a 	cmpeq	r2, sl, lsl r1
    3e5c:	53011a3c 	movwpl	r1, #6716	; 0x1a3c
    3e60:	00057402 	andeq	r7, r5, r2, lsl #8
    3e64:	100ebe19 	andne	fp, lr, r9, lsl lr
    3e68:	000c3980 	andeq	r3, ip, r0, lsl #19
    3e6c:	000ad000 	andeq	sp, sl, r0
    3e70:	51011a00 	tstpl	r1, r0, lsl #20
    3e74:	011a4e01 	tsteq	sl, r1, lsl #28
    3e78:	1a3d0152 	bne	f443c8 <shift+0xf443c8>
    3e7c:	74025301 	strvc	r5, [r2], #-769	; 0xfffffcff
    3e80:	ce190006 	cdpgt	0, 1, cr0, cr9, cr6, {0}
    3e84:	3980100e 	stmibcc	r0, {r1, r2, r3, ip}
    3e88:	ee00000c 	cdp	0, 0, cr0, cr0, cr12, {0}
    3e8c:	1a00000a 	bne	3ebc <shift+0x3ebc>
    3e90:	4e015101 	adfmis	f5, f1, f1
    3e94:	0152011a 	cmpeq	r2, sl, lsl r1
    3e98:	53011a3e 	movwpl	r1, #6718	; 0x1a3e
    3e9c:	00077402 	andeq	r7, r7, r2, lsl #8
    3ea0:	100ee019 	andne	lr, lr, r9, lsl r0
    3ea4:	000c3980 	andeq	r3, ip, r0, lsl #19
    3ea8:	000b0c00 	andeq	r0, fp, r0, lsl #24
    3eac:	51011a00 	tstpl	r1, r0, lsl #20
    3eb0:	011a4e01 	tsteq	sl, r1, lsl #28
    3eb4:	1a3f0152 	bne	fc4404 <shift+0xfc4404>
    3eb8:	74025301 	strvc	r5, [r2], #-769	; 0xfffffcff
    3ebc:	f01b0008 			; <UNDEFINED> instruction: 0xf01b0008
    3ec0:	5a80100e 	bpl	fe007f00 <__bss_end+0x7df062ec>
    3ec4:	1a00000c 	bne	3efc <shift+0x3efc>
    3ec8:	03055001 	movweq	r5, #20481	; 0x5001
    3ecc:	80101580 	andshi	r1, r0, r0, lsl #11
    3ed0:	04210000 	strteq	r0, [r1], #-0
    3ed4:	000005f2 	strdeq	r0, [r0], -r2
    3ed8:	00004a15 	andeq	r4, r0, r5, lsl sl
    3edc:	30110100 	andscc	r0, r1, r0, lsl #2
    3ee0:	4880100e 	stmmi	r0, {r1, r2, r3, ip}
    3ee4:	01000000 	mrseq	r0, (UNDEF: 0)
    3ee8:	000be39c 	muleq	fp, ip, r3
    3eec:	0e441900 	vmlaeq.f16	s3, s8, s0	; <UNPREDICTABLE>
    3ef0:	0c4f8010 	mcrreq	0, 1, r8, pc, cr0
    3ef4:	0b5e0000 	bleq	1783efc <shift+0x1783efc>
    3ef8:	011a0000 	tsteq	sl, r0
    3efc:	00740250 	rsbseq	r0, r4, r0, asr r2
    3f00:	0151011a 	cmpeq	r1, sl, lsl r1
    3f04:	52011a4e 	andpl	r1, r1, #319488	; 0x4e000
    3f08:	011a3001 	tsteq	sl, r1
    3f0c:	00330153 	eorseq	r0, r3, r3, asr r1
    3f10:	100e5019 	andne	r5, lr, r9, lsl r0
    3f14:	000c4f80 	andeq	r4, ip, r0, lsl #31
    3f18:	000b8200 	andeq	r8, fp, r0, lsl #4
    3f1c:	50011a00 	andpl	r1, r1, r0, lsl #20
    3f20:	1a007402 	bne	20f30 <shift+0x20f30>
    3f24:	4e015101 	adfmis	f5, f1, f1
    3f28:	0152011a 	cmpeq	r2, sl, lsl r1
    3f2c:	53011a40 	movwpl	r1, #6720	; 0x1a40
    3f30:	00210802 	eoreq	r0, r1, r2, lsl #16
    3f34:	100e5c19 	andne	r5, lr, r9, lsl ip
    3f38:	000c4f80 	andeq	r4, ip, r0, lsl #31
    3f3c:	000ba600 	andeq	sl, fp, r0, lsl #12
    3f40:	50011a00 	andpl	r1, r1, r0, lsl #20
    3f44:	1a007402 	bne	20f54 <shift+0x20f54>
    3f48:	4e015101 	adfmis	f5, f1, f1
    3f4c:	0152011a 	cmpeq	r2, sl, lsl r1
    3f50:	53011a4a 	movwpl	r1, #6730	; 0x1a4a
    3f54:	00960902 	addseq	r0, r6, r2, lsl #18
    3f58:	100e6819 	andne	r6, lr, r9, lsl r8
    3f5c:	000c4f80 	andeq	r4, ip, r0, lsl #31
    3f60:	000bc900 	andeq	ip, fp, r0, lsl #18
    3f64:	50011a00 	andpl	r1, r1, r0, lsl #20
    3f68:	1a007402 	bne	20f78 <shift+0x20f78>
    3f6c:	4e015101 	adfmis	f5, f1, f1
    3f70:	0152011a 	cmpeq	r2, sl, lsl r1
    3f74:	53011a4b 	movwpl	r1, #6731	; 0x1a4b
    3f78:	20003001 	andcs	r3, r0, r1
    3f7c:	80100e78 	andshi	r0, r0, r8, ror lr
    3f80:	00000c4f 	andeq	r0, r0, pc, asr #24
    3f84:	0151011a 	cmpeq	r1, sl, lsl r1
    3f88:	52011a4e 	andpl	r1, r1, #319488	; 0x4e000
    3f8c:	011a3201 	tsteq	sl, r1, lsl #4
    3f90:	00310153 	eorseq	r0, r1, r3, asr r1
    3f94:	108f2400 	addne	r2, pc, r0, lsl #8
    3f98:	4c020000 	stcmi	0, cr0, [r2], {-0}
    3f9c:	0c390304 	ldceq	3, cr0, [r9], #-16
    3fa0:	b6250000 	strtlt	r0, [r5], -r0
    3fa4:	02000010 	andeq	r0, r0, #16
    3fa8:	0098044c 	addseq	r0, r8, ip, asr #8
    3fac:	87250000 	strhi	r0, [r5, -r0]!
    3fb0:	02000010 	andeq	r0, r0, #16
    3fb4:	0098044d 	addseq	r0, r8, sp, asr #8
    3fb8:	79250000 	stmdbvc	r5!, {}	; <UNPREDICTABLE>
    3fbc:	02000010 	andeq	r0, r0, #16
    3fc0:	0098044e 	addseq	r0, r8, lr, asr #8
    3fc4:	d5250000 	strle	r0, [r5, #-0]!
    3fc8:	02000011 	andeq	r0, r0, #17
    3fcc:	0098044f 	addseq	r0, r8, pc, asr #8
    3fd0:	b8250000 	stmdalt	r5!, {}	; <UNPREDICTABLE>
    3fd4:	02000011 	andeq	r0, r0, #17
    3fd8:	00980450 	addseq	r0, r8, r0, asr r4
    3fdc:	9a250000 	bls	943fe4 <shift+0x943fe4>
    3fe0:	02000011 	andeq	r0, r0, #17
    3fe4:	00980451 	addseq	r0, r8, r1, asr r4
    3fe8:	26000000 	strcs	r0, [r0], -r0
    3fec:	000011a7 	andeq	r1, r0, r7, lsr #3
    3ff0:	000011a7 	andeq	r1, r0, r7, lsr #3
    3ff4:	ba262008 	blt	98c01c <shift+0x98c01c>
    3ff8:	ba00000a 	blt	4028 <shift+0x4028>
    3ffc:	0900000a 	stmdbeq	r0, {r1, r3}
    4000:	10e72607 	rscne	r2, r7, r7, lsl #12
    4004:	10e70000 	rscne	r0, r7, r0
    4008:	1f080000 	svcne	0x00080000
    400c:	0011fd26 	andseq	pc, r1, r6, lsr #26
    4010:	0011fd00 	andseq	pc, r1, r0, lsl #26
    4014:	261b0a00 	ldrcs	r0, [fp], -r0, lsl #20
    4018:	00000af0 	strdeq	r0, [r0], -r0	; <UNPREDICTABLE>
    401c:	00000af0 	strdeq	r0, [r0], -r0	; <UNPREDICTABLE>
    4020:	a1261707 			; <UNDEFINED> instruction: 0xa1261707
    4024:	a100000b 	tstge	r0, fp
    4028:	0700000b 	streq	r0, [r0, -fp]
    402c:	01bb0018 			; <UNDEFINED> instruction: 0x01bb0018
    4030:	00020000 	andeq	r0, r2, r0
    4034:	000011e7 	andeq	r1, r0, r7, ror #3
    4038:	0a240104 	beq	904450 <shift+0x904450>
    403c:	10b80000 	adcsne	r0, r8, r0
    4040:	132e8010 			; <UNDEFINED> instruction: 0x132e8010
    4044:	682f8010 	stmdavs	pc!, {r4, pc}	; <UNPREDICTABLE>
    4048:	2f656d6f 	svccs	0x00656d6f
    404c:	67776374 			; <UNDEFINED> instruction: 0x67776374
    4050:	6975622d 	ldmdbvs	r5!, {r0, r2, r3, r5, r9, sp, lr}^
    4054:	6c73646c 	cfldrdvs	mvd6, [r3], #-432	; 0xfffffe50
    4058:	2f657661 	svccs	0x00657661
    405c:	6b726f77 	blvs	1c9fe40 <shift+0x1c9fe40>
    4060:	63617073 	cmnvs	r1, #115	; 0x73
    4064:	63742f65 	cmnvs	r4, #404	; 0x194
    4068:	6d2d6777 	stcvs	7, cr6, [sp, #-476]!	; 0xfffffe24
    406c:	2d656b61 	fstmdbxcs	r5!, {d22-d69}	;@ Deprecated
    4070:	656c6572 	strbvs	r6, [ip, #-1394]!	; 0xfffffa8e
    4074:	2f657361 	svccs	0x00657361
    4078:	6562616c 	strbvs	r6, [r2, #-364]!	; 0xfffffe94
    407c:	6f642f6c 	svcvs	0x00642f6c
    4080:	72656b63 	rsbvc	r6, r5, #101376	; 0x18c00
    4084:	7572742d 	ldrbvc	r7, [r2, #-1069]!	; 0xfffffbd3
    4088:	2d797473 	cfldrdcs	mvd7, [r9, #-460]!	; 0xfffffe34
    408c:	36646d61 	strbtcc	r6, [r4], -r1, ror #26
    4090:	63742d34 	cmnvs	r4, #52, 26	; 0xd00
    4094:	622d6777 	eorvs	r6, sp, #31195136	; 0x1dc0000
    4098:	646c6975 	strbtvs	r6, [ip], #-2421	; 0xfffff68b
    409c:	7261742f 	rsbvc	r7, r1, #788529152	; 0x2f000000
    40a0:	2f746567 	svccs	0x00746567
    40a4:	2d6d7261 	sfmcs	f7, 2, [sp, #-388]!	; 0xfffffe7c
    40a8:	756e696c 	strbvc	r6, [lr, #-2412]!	; 0xfffff694
    40ac:	6e672d78 	mcrvs	13, 3, r2, cr7, cr8, {3}
    40b0:	62616575 	rsbvs	r6, r1, #490733568	; 0x1d400000
    40b4:	2f666869 	svccs	0x00666869
    40b8:	70616e73 	rsbvc	r6, r1, r3, ror lr
    40bc:	746f6873 	strbtvc	r6, [pc], #-2163	; 40c4 <shift+0x40c4>
    40c0:	63672f73 	cmnvs	r7, #460	; 0x1cc
    40c4:	696c2d63 	stmdbvs	ip!, {r0, r1, r5, r6, r8, sl, fp, sp}^
    40c8:	6f72616e 	svcvs	0x0072616e
    40cc:	322e362d 	eorcc	r3, lr, #47185920	; 0x2d00000
    40d0:	3130322d 	teqcc	r0, sp, lsr #4
    40d4:	31312e36 	teqcc	r1, r6, lsr lr
    40d8:	62696c2f 	rsbvs	r6, r9, #12032	; 0x2f00
    40dc:	2f636367 	svccs	0x00636367
    40e0:	666e6f63 	strbtvs	r6, [lr], -r3, ror #30
    40e4:	612f6769 			; <UNDEFINED> instruction: 0x612f6769
    40e8:	6c2f6d72 	stcvs	13, cr6, [pc], #-456	; 3f28 <shift+0x3f28>
    40ec:	66316269 	ldrtvs	r6, [r1], -r9, ror #4
    40f0:	73636e75 	cmnvc	r3, #1872	; 0x750
    40f4:	2f00532e 	svccs	0x0000532e
    40f8:	656d6f68 	strbvs	r6, [sp, #-3944]!	; 0xfffff098
    40fc:	7763742f 	strbvc	r7, [r3, -pc, lsr #8]!
    4100:	75622d67 	strbvc	r2, [r2, #-3431]!	; 0xfffff299
    4104:	73646c69 	cmnvc	r4, #26880	; 0x6900
    4108:	6576616c 	ldrbvs	r6, [r6, #-364]!	; 0xfffffe94
    410c:	726f772f 	rsbvc	r7, pc, #12320768	; 0xbc0000
    4110:	6170736b 	cmnvs	r0, fp, ror #6
    4114:	742f6563 	strtvc	r6, [pc], #-1379	; 411c <shift+0x411c>
    4118:	2d677763 	stclcs	7, cr7, [r7, #-396]!	; 0xfffffe74
    411c:	656b616d 	strbvs	r6, [fp, #-365]!	; 0xfffffe93
    4120:	6c65722d 	sfmvs	f7, 2, [r5], #-180	; 0xffffff4c
    4124:	65736165 	ldrbvs	r6, [r3, #-357]!	; 0xfffffe9b
    4128:	62616c2f 	rsbvs	r6, r1, #12032	; 0x2f00
    412c:	642f6c65 	strtvs	r6, [pc], #-3173	; 4134 <shift+0x4134>
    4130:	656b636f 	strbvs	r6, [fp, #-879]!	; 0xfffffc91
    4134:	72742d72 	rsbsvc	r2, r4, #7296	; 0x1c80
    4138:	79747375 	ldmdbvc	r4!, {r0, r2, r4, r5, r6, r8, r9, ip, sp, lr}^
    413c:	646d612d 	strbtvs	r6, [sp], #-301	; 0xfffffed3
    4140:	742d3436 	strtvc	r3, [sp], #-1078	; 0xfffffbca
    4144:	2d677763 	stclcs	7, cr7, [r7, #-396]!	; 0xfffffe74
    4148:	6c697562 	cfstr64vs	mvdx7, [r9], #-392	; 0xfffffe78
    414c:	61742f64 	cmnvs	r4, r4, ror #30
    4150:	74656772 	strbtvc	r6, [r5], #-1906	; 0xfffff88e
    4154:	6d72612f 	ldfvse	f6, [r2, #-188]!	; 0xffffff44
    4158:	6e696c2d 	cdpvs	12, 6, cr6, cr9, cr13, {1}
    415c:	672d7875 			; <UNDEFINED> instruction: 0x672d7875
    4160:	6165756e 	cmnvs	r5, lr, ror #10
    4164:	66686962 	strbtvs	r6, [r8], -r2, ror #18
    4168:	75625f2f 	strbvc	r5, [r2, #-3887]!	; 0xfffff0d1
    416c:	2f646c69 	svccs	0x00646c69
    4170:	6c697562 	cfstr64vs	mvdx7, [r9], #-392	; 0xfffffe78
    4174:	782f7364 	stmdavc	pc!, {r2, r5, r6, r8, r9, ip, sp, lr}	; <UNPREDICTABLE>
    4178:	365f3638 			; <UNDEFINED> instruction: 0x365f3638
    417c:	6e752d34 	mrcvs	13, 3, r2, cr5, cr4, {1}
    4180:	776f6e6b 	strbvc	r6, [pc, -fp, ror #28]!
    4184:	696c2d6e 	stmdbvs	ip!, {r1, r2, r3, r5, r6, r8, sl, fp, sp}^
    4188:	2d78756e 	cfldr64cs	mvdx7, [r8, #-440]!	; 0xfffffe48
    418c:	2f756e67 	svccs	0x00756e67
    4190:	2d6d7261 	sfmcs	f7, 2, [sp, #-388]!	; 0xfffffe7c
    4194:	756e696c 	strbvc	r6, [lr, #-2412]!	; 0xfffff694
    4198:	6e672d78 	mcrvs	13, 3, r2, cr7, cr8, {3}
    419c:	62616575 	rsbvs	r6, r1, #490733568	; 0x1d400000
    41a0:	2f666869 	svccs	0x00666869
    41a4:	2d636367 	stclcs	3, cr6, [r3, #-412]!	; 0xfffffe64
    41a8:	616e696c 	cmnvs	lr, ip, ror #18
    41ac:	362d6f72 	qsub16cc	r6, sp, r2
    41b0:	322d322e 	eorcc	r3, sp, #-536870910	; 0xe0000002
    41b4:	2e363130 	mrccs	1, 1, r3, cr6, cr0, {1}
    41b8:	732d3131 			; <UNDEFINED> instruction: 0x732d3131
    41bc:	65676174 	strbvs	r6, [r7, #-372]!	; 0xfffffe8c
    41c0:	72612f32 	rsbvc	r2, r1, #50, 30	; 0xc8
    41c4:	696c2d6d 	stmdbvs	ip!, {r0, r2, r3, r5, r6, r8, sl, fp, sp}^
    41c8:	2d78756e 	cfldr64cs	mvdx7, [r8, #-440]!	; 0xfffffe48
    41cc:	65756e67 	ldrbvs	r6, [r5, #-3687]!	; 0xfffff199
    41d0:	68696261 	stmdavs	r9!, {r0, r5, r6, r9, sp, lr}^
    41d4:	696c2f66 	stmdbvs	ip!, {r1, r2, r5, r6, r8, r9, sl, fp, sp}^
    41d8:	63636762 	cmnvs	r3, #25690112	; 0x1880000
    41dc:	554e4700 	strbpl	r4, [lr, #-1792]	; 0xfffff900
    41e0:	20534120 	subscs	r4, r3, r0, lsr #2
    41e4:	37322e32 			; <UNDEFINED> instruction: 0x37322e32
    41e8:	0100302e 	tsteq	r0, lr, lsr #32
    41ec:	0001bb80 	andeq	fp, r1, r0, lsl #23
    41f0:	fb000200 	blx	49fa <shift+0x49fa>
    41f4:	04000011 	streq	r0, [r0], #-17	; 0xffffffef
    41f8:	000b2401 	andeq	r2, fp, r1, lsl #8
    41fc:	10133000 	andsne	r3, r3, r0
    4200:	10133c80 	andsne	r3, r3, r0, lsl #25
    4204:	6f682f80 	svcvs	0x00682f80
    4208:	742f656d 	strtvc	r6, [pc], #-1389	; 4210 <shift+0x4210>
    420c:	2d677763 	stclcs	7, cr7, [r7, #-396]!	; 0xfffffe74
    4210:	6c697562 	cfstr64vs	mvdx7, [r9], #-392	; 0xfffffe78
    4214:	616c7364 	cmnvs	ip, r4, ror #6
    4218:	772f6576 			; <UNDEFINED> instruction: 0x772f6576
    421c:	736b726f 	cmnvc	fp, #-268435450	; 0xf0000006
    4220:	65636170 	strbvs	r6, [r3, #-368]!	; 0xfffffe90
    4224:	7763742f 	strbvc	r7, [r3, -pc, lsr #8]!
    4228:	616d2d67 	cmnvs	sp, r7, ror #26
    422c:	722d656b 	eorvc	r6, sp, #448790528	; 0x1ac00000
    4230:	61656c65 	cmnvs	r5, r5, ror #24
    4234:	6c2f6573 	cfstr32vs	mvfx6, [pc], #-460	; 4070 <shift+0x4070>
    4238:	6c656261 	sfmvs	f6, 2, [r5], #-388	; 0xfffffe7c
    423c:	636f642f 	cmnvs	pc, #788529152	; 0x2f000000
    4240:	2d72656b 	cfldr64cs	mvdx6, [r2, #-428]!	; 0xfffffe54
    4244:	73757274 	cmnvc	r5, #116, 4	; 0x40000007
    4248:	612d7974 			; <UNDEFINED> instruction: 0x612d7974
    424c:	3436646d 	ldrtcc	r6, [r6], #-1133	; 0xfffffb93
    4250:	7763742d 	strbvc	r7, [r3, -sp, lsr #8]!
    4254:	75622d67 	strbvc	r2, [r2, #-3431]!	; 0xfffff299
    4258:	2f646c69 	svccs	0x00646c69
    425c:	67726174 			; <UNDEFINED> instruction: 0x67726174
    4260:	612f7465 			; <UNDEFINED> instruction: 0x612f7465
    4264:	6c2d6d72 	stcvs	13, cr6, [sp], #-456	; 0xfffffe38
    4268:	78756e69 	ldmdavc	r5!, {r0, r3, r5, r6, r9, sl, fp, sp, lr}^
    426c:	756e672d 	strbvc	r6, [lr, #-1837]!	; 0xfffff8d3
    4270:	69626165 	stmdbvs	r2!, {r0, r2, r5, r6, r8, sp, lr}^
    4274:	732f6668 			; <UNDEFINED> instruction: 0x732f6668
    4278:	7370616e 	cmnvc	r0, #-2147483621	; 0x8000001b
    427c:	73746f68 	cmnvc	r4, #104, 30	; 0x1a0
    4280:	6363672f 	cmnvs	r3, #12320768	; 0xbc0000
    4284:	6e696c2d 	cdpvs	12, 6, cr6, cr9, cr13, {1}
    4288:	2d6f7261 	sfmcs	f7, 2, [pc, #-388]!	; 410c <shift+0x410c>
    428c:	2d322e36 	ldccs	14, cr2, [r2, #-216]!	; 0xffffff28
    4290:	36313032 			; <UNDEFINED> instruction: 0x36313032
    4294:	2f31312e 	svccs	0x0031312e
    4298:	6762696c 	strbvs	r6, [r2, -ip, ror #18]!
    429c:	632f6363 			; <UNDEFINED> instruction: 0x632f6363
    42a0:	69666e6f 	stmdbvs	r6!, {r0, r1, r2, r3, r5, r6, r9, sl, fp, sp, lr}^
    42a4:	72612f67 	rsbvc	r2, r1, #412	; 0x19c
    42a8:	696c2f6d 	stmdbvs	ip!, {r0, r2, r3, r5, r6, r8, r9, sl, fp, sp}^
    42ac:	75663162 	strbvc	r3, [r6, #-354]!	; 0xfffffe9e
    42b0:	2e73636e 	cdpcs	3, 7, cr6, cr3, cr14, {3}
    42b4:	682f0053 	stmdavs	pc!, {r0, r1, r4, r6}	; <UNPREDICTABLE>
    42b8:	2f656d6f 	svccs	0x00656d6f
    42bc:	67776374 			; <UNDEFINED> instruction: 0x67776374
    42c0:	6975622d 	ldmdbvs	r5!, {r0, r2, r3, r5, r9, sp, lr}^
    42c4:	6c73646c 	cfldrdvs	mvd6, [r3], #-432	; 0xfffffe50
    42c8:	2f657661 	svccs	0x00657661
    42cc:	6b726f77 	blvs	1ca00b0 <shift+0x1ca00b0>
    42d0:	63617073 	cmnvs	r1, #115	; 0x73
    42d4:	63742f65 	cmnvs	r4, #404	; 0x194
    42d8:	6d2d6777 	stcvs	7, cr6, [sp, #-476]!	; 0xfffffe24
    42dc:	2d656b61 	fstmdbxcs	r5!, {d22-d69}	;@ Deprecated
    42e0:	656c6572 	strbvs	r6, [ip, #-1394]!	; 0xfffffa8e
    42e4:	2f657361 	svccs	0x00657361
    42e8:	6562616c 	strbvs	r6, [r2, #-364]!	; 0xfffffe94
    42ec:	6f642f6c 	svcvs	0x00642f6c
    42f0:	72656b63 	rsbvc	r6, r5, #101376	; 0x18c00
    42f4:	7572742d 	ldrbvc	r7, [r2, #-1069]!	; 0xfffffbd3
    42f8:	2d797473 	cfldrdcs	mvd7, [r9, #-460]!	; 0xfffffe34
    42fc:	36646d61 	strbtcc	r6, [r4], -r1, ror #26
    4300:	63742d34 	cmnvs	r4, #52, 26	; 0xd00
    4304:	622d6777 	eorvs	r6, sp, #31195136	; 0x1dc0000
    4308:	646c6975 	strbtvs	r6, [ip], #-2421	; 0xfffff68b
    430c:	7261742f 	rsbvc	r7, r1, #788529152	; 0x2f000000
    4310:	2f746567 	svccs	0x00746567
    4314:	2d6d7261 	sfmcs	f7, 2, [sp, #-388]!	; 0xfffffe7c
    4318:	756e696c 	strbvc	r6, [lr, #-2412]!	; 0xfffff694
    431c:	6e672d78 	mcrvs	13, 3, r2, cr7, cr8, {3}
    4320:	62616575 	rsbvs	r6, r1, #490733568	; 0x1d400000
    4324:	2f666869 	svccs	0x00666869
    4328:	6975625f 	ldmdbvs	r5!, {r0, r1, r2, r3, r4, r6, r9, sp, lr}^
    432c:	622f646c 	eorvs	r6, pc, #108, 8	; 0x6c000000
    4330:	646c6975 	strbtvs	r6, [ip], #-2421	; 0xfffff68b
    4334:	38782f73 	ldmdacc	r8!, {r0, r1, r4, r5, r6, r8, r9, sl, fp, sp}^
    4338:	34365f36 	ldrtcc	r5, [r6], #-3894	; 0xfffff0ca
    433c:	6b6e752d 	blvs	1ba17f8 <shift+0x1ba17f8>
    4340:	6e776f6e 	cdpvs	15, 7, cr6, cr7, cr14, {3}
    4344:	6e696c2d 	cdpvs	12, 6, cr6, cr9, cr13, {1}
    4348:	672d7875 			; <UNDEFINED> instruction: 0x672d7875
    434c:	612f756e 			; <UNDEFINED> instruction: 0x612f756e
    4350:	6c2d6d72 	stcvs	13, cr6, [sp], #-456	; 0xfffffe38
    4354:	78756e69 	ldmdavc	r5!, {r0, r3, r5, r6, r9, sl, fp, sp, lr}^
    4358:	756e672d 	strbvc	r6, [lr, #-1837]!	; 0xfffff8d3
    435c:	69626165 	stmdbvs	r2!, {r0, r2, r5, r6, r8, sp, lr}^
    4360:	672f6668 	strvs	r6, [pc, -r8, ror #12]!
    4364:	6c2d6363 	stcvs	3, cr6, [sp], #-396	; 0xfffffe74
    4368:	72616e69 	rsbvc	r6, r1, #1680	; 0x690
    436c:	2e362d6f 	cdpcs	13, 3, cr2, cr6, cr15, {3}
    4370:	30322d32 	eorscc	r2, r2, r2, lsr sp
    4374:	312e3631 			; <UNDEFINED> instruction: 0x312e3631
    4378:	74732d31 	ldrbtvc	r2, [r3], #-3377	; 0xfffff2cf
    437c:	32656761 	rsbcc	r6, r5, #25427968	; 0x1840000
    4380:	6d72612f 	ldfvse	f6, [r2, #-188]!	; 0xffffff44
    4384:	6e696c2d 	cdpvs	12, 6, cr6, cr9, cr13, {1}
    4388:	672d7875 			; <UNDEFINED> instruction: 0x672d7875
    438c:	6165756e 	cmnvs	r5, lr, ror #10
    4390:	66686962 	strbtvs	r6, [r8], -r2, ror #18
    4394:	62696c2f 	rsbvs	r6, r9, #12032	; 0x2f00
    4398:	00636367 	rsbeq	r6, r3, r7, ror #6
    439c:	20554e47 	subscs	r4, r5, r7, asr #28
    43a0:	32205341 	eorcc	r5, r0, #67108865	; 0x4000001
    43a4:	2e37322e 	cdpcs	2, 3, cr3, cr7, cr14, {1}
    43a8:	80010030 	andhi	r0, r1, r0, lsr r0

Disassembly of section .debug_abbrev:

00000000 <.debug_abbrev>:
       0:	10001101 	andne	r1, r0, r1, lsl #2
       4:	12011106 	andne	r1, r1, #-2147483647	; 0x80000001
       8:	1b080301 	blne	200c14 <shift+0x200c14>
       c:	13082508 	movwne	r2, #34056	; 0x8508
      10:	00000005 	andeq	r0, r0, r5
      14:	25011101 	strcs	r1, [r1, #-257]	; 0xfffffeff
      18:	030b130e 	movweq	r1, #45838	; 0xb30e
      1c:	550e1b0e 	strpl	r1, [lr, #-2830]	; 0xfffff4f2
      20:	10011117 	andne	r1, r1, r7, lsl r1
      24:	02000017 	andeq	r0, r0, #23
      28:	0b0b0024 	bleq	2c00c0 <shift+0x2c00c0>
      2c:	0e030b3e 	vmoveq.16	d3[0], r0
      30:	24030000 	strcs	r0, [r3], #-0
      34:	3e0b0b00 	vmlacc.f64	d0, d11, d0
      38:	0008030b 	andeq	r0, r8, fp, lsl #6
      3c:	00350400 	eorseq	r0, r5, r0, lsl #8
      40:	00001349 	andeq	r1, r0, r9, asr #6
      44:	03010405 	movweq	r0, #5125	; 0x1405
      48:	490b0b0e 	stmdbmi	fp, {r1, r2, r3, r8, r9, fp}
      4c:	3b0b3a13 	blcc	2ce8a0 <shift+0x2ce8a0>
      50:	0013010b 	andseq	r0, r3, fp, lsl #2
      54:	00280600 	eoreq	r0, r8, r0, lsl #12
      58:	0d1c0e03 	ldceq	14, cr0, [ip, #-12]
      5c:	28070000 	stmdacs	r7, {}	; <UNPREDICTABLE>
      60:	1c0e0300 	stcne	3, cr0, [lr], {-0}
      64:	0800000b 	stmdaeq	r0, {r0, r1, r3}
      68:	0e030113 	mcreq	1, 0, r0, cr3, cr3, {0}
      6c:	0b3a0b0b 	bleq	e82ca0 <shift+0xe82ca0>
      70:	13010b3b 	movwne	r0, #6971	; 0x1b3b
      74:	0d090000 	stceq	0, cr0, [r9, #-0]
      78:	3a0e0300 	bcc	380c80 <shift+0x380c80>
      7c:	490b3b0b 	stmdbmi	fp, {r0, r1, r3, r8, r9, fp, ip, sp}
      80:	000b3813 	andeq	r3, fp, r3, lsl r8
      84:	00160a00 	andseq	r0, r6, r0, lsl #20
      88:	0b3a0e03 	bleq	e8389c <shift+0xe8389c>
      8c:	13490b3b 	movtne	r0, #39739	; 0x9b3b
      90:	2e0b0000 	cdpcs	0, 0, cr0, cr11, cr0, {0}
      94:	03193f01 	tsteq	r9, #1, 30
      98:	3b0b3a0e 	blcc	2ce8d8 <shift+0x2ce8d8>
      9c:	4919270b 	ldmdbmi	r9, {r0, r1, r3, r8, r9, sl, sp}
      a0:	12011113 	andne	r1, r1, #-1073741820	; 0xc0000004
      a4:	97184006 	ldrls	r4, [r8, -r6]
      a8:	13011942 	movwne	r1, #6466	; 0x1942
      ac:	340c0000 	strcc	r0, [ip], #-0
      b0:	3a0e0300 	bcc	380cb8 <shift+0x380cb8>
      b4:	490b3b0b 	stmdbmi	fp, {r0, r1, r3, r8, r9, fp, ip, sp}
      b8:	00180213 	andseq	r0, r8, r3, lsl r2
      bc:	00340d00 	eorseq	r0, r4, r0, lsl #26
      c0:	0b3a0803 	bleq	e820d4 <shift+0xe820d4>
      c4:	13490b3b 	movtne	r0, #39739	; 0x9b3b
      c8:	00001702 	andeq	r1, r0, r2, lsl #14
      cc:	31011d0e 	tstcc	r1, lr, lsl #26
      d0:	12011113 	andne	r1, r1, #-1073741820	; 0xc0000004
      d4:	590b5806 	stmdbpl	fp, {r1, r2, fp, ip, lr}
      d8:	0013010b 	andseq	r0, r3, fp, lsl #2
      dc:	010b0f00 	tsteq	fp, r0, lsl #30
      e0:	06120111 			; <UNDEFINED> instruction: 0x06120111
      e4:	34100000 	ldrcc	r0, [r0], #-0
      e8:	02133100 	andseq	r3, r3, #0, 2
      ec:	11000018 	tstne	r0, r8, lsl r0
      f0:	00018289 	andeq	r8, r1, r9, lsl #5
      f4:	13310111 	teqne	r1, #1073741828	; 0x40000004
      f8:	89120000 	ldmdbhi	r2, {}	; <UNPREDICTABLE>
      fc:	11010182 	smlabbne	r1, r2, r1, r0
     100:	01133101 	tsteq	r3, r1, lsl #2
     104:	13000013 	movwne	r0, #19
     108:	0001828a 	andeq	r8, r1, sl, lsl #5
     10c:	42911802 	addsmi	r1, r1, #131072	; 0x20000
     110:	14000018 	strne	r0, [r0], #-24	; 0xffffffe8
     114:	01018289 	smlabbeq	r1, r9, r2, r8
     118:	13310111 	teqne	r1, #1073741828	; 0x40000004
     11c:	2e150000 	cdpcs	0, 1, cr0, cr5, cr0, {0}
     120:	03193f01 	tsteq	r9, #1, 30
     124:	3b0b3a0e 	blcc	2ce964 <shift+0x2ce964>
     128:	2019270b 	andscs	r2, r9, fp, lsl #14
     12c:	0013010b 	andseq	r0, r3, fp, lsl #2
     130:	00341600 	eorseq	r1, r4, r0, lsl #12
     134:	0b3a0803 	bleq	e82148 <shift+0xe82148>
     138:	13490b3b 	movtne	r0, #39739	; 0x9b3b
     13c:	2e170000 	cdpcs	0, 1, cr0, cr7, cr0, {0}
     140:	3c193f00 	ldccc	15, cr3, [r9], {-0}
     144:	030e6e19 	movweq	r6, #60953	; 0xee19
     148:	3b0b3a0e 	blcc	2ce988 <shift+0x2ce988>
     14c:	0000000b 	andeq	r0, r0, fp
     150:	25011101 	strcs	r1, [r1, #-257]	; 0xfffffeff
     154:	030b130e 	movweq	r1, #45838	; 0xb30e
     158:	110e1b0e 	tstne	lr, lr, lsl #22
     15c:	10061201 	andne	r1, r6, r1, lsl #4
     160:	02000017 	andeq	r0, r0, #23
     164:	0b0b0113 	bleq	2c05b8 <shift+0x2c05b8>
     168:	0b3b0b3a 	bleq	ec2e58 <shift+0xec2e58>
     16c:	00001301 	andeq	r1, r0, r1, lsl #6
     170:	03000d03 	movweq	r0, #3331	; 0xd03
     174:	3b0b3a0e 	blcc	2ce9b4 <shift+0x2ce9b4>
     178:	3813490b 	ldmdacc	r3, {r0, r1, r3, r8, fp, lr}
     17c:	0400000b 	streq	r0, [r0], #-11
     180:	0b0b0024 	bleq	2c0218 <shift+0x2c0218>
     184:	0e030b3e 	vmoveq.16	d3[0], r0
     188:	16050000 	strne	r0, [r5], -r0
     18c:	3a0e0300 	bcc	380d94 <shift+0x380d94>
     190:	490b3b0b 	stmdbmi	fp, {r0, r1, r3, r8, r9, fp, ip, sp}
     194:	06000013 			; <UNDEFINED> instruction: 0x06000013
     198:	0e030104 	adfeqs	f0, f3, f4
     19c:	13490b0b 	movtne	r0, #39691	; 0x9b0b
     1a0:	0b3b0b3a 	bleq	ec2e90 <shift+0xec2e90>
     1a4:	00001301 	andeq	r1, r0, r1, lsl #6
     1a8:	03002807 	movweq	r2, #2055	; 0x807
     1ac:	000b1c0e 	andeq	r1, fp, lr, lsl #24
     1b0:	00240800 	eoreq	r0, r4, r0, lsl #16
     1b4:	0b3e0b0b 	bleq	f82de8 <shift+0xf82de8>
     1b8:	00000803 	andeq	r0, r0, r3, lsl #16
     1bc:	03003409 	movweq	r3, #1033	; 0x409
     1c0:	3b0b3a0e 	blcc	2cea00 <shift+0x2cea00>
     1c4:	3f13490b 	svccc	0x0013490b
     1c8:	00180219 	andseq	r0, r8, r9, lsl r2
     1cc:	000f0a00 	andeq	r0, pc, r0, lsl #20
     1d0:	13490b0b 	movtne	r0, #39691	; 0x9b0b
     1d4:	2e0b0000 	cdpcs	0, 0, cr0, cr11, cr0, {0}
     1d8:	03193f00 	tsteq	r9, #0, 30
     1dc:	3b0b3a0e 	blcc	2cea1c <shift+0x2cea1c>
     1e0:	1119270b 	tstne	r9, fp, lsl #14
     1e4:	40061201 	andmi	r1, r6, r1, lsl #4
     1e8:	19429718 	stmdbne	r2, {r3, r4, r8, r9, sl, ip, pc}^
     1ec:	2e0c0000 	cdpcs	0, 0, cr0, cr12, cr0, {0}
     1f0:	03193f01 	tsteq	r9, #1, 30
     1f4:	3b0b3a0e 	blcc	2cea34 <shift+0x2cea34>
     1f8:	1119270b 	tstne	r9, fp, lsl #14
     1fc:	40061201 	andmi	r1, r6, r1, lsl #4
     200:	19429718 	stmdbne	r2, {r3, r4, r8, r9, sl, ip, pc}^
     204:	00001301 	andeq	r1, r0, r1, lsl #6
     208:	0300050d 	movweq	r0, #1293	; 0x50d
     20c:	3b0b3a08 	blcc	2cea34 <shift+0x2cea34>
     210:	0213490b 	andseq	r4, r3, #180224	; 0x2c000
     214:	0e000018 	mcreq	0, 0, r0, cr0, cr8, {0}
     218:	01018289 	smlabbeq	r1, r9, r2, r8
     21c:	13310111 	teqne	r1, #1073741828	; 0x40000004
     220:	00001301 	andeq	r1, r0, r1, lsl #6
     224:	01828a0f 	orreq	r8, r2, pc, lsl #20
     228:	91180200 	tstls	r8, r0, lsl #4
     22c:	00001842 	andeq	r1, r0, r2, asr #16
     230:	01828910 	orreq	r8, r2, r0, lsl r9
     234:	95011101 	strls	r1, [r1, #-257]	; 0xfffffeff
     238:	13311942 	teqne	r1, #1081344	; 0x108000
     23c:	2e110000 	cdpcs	0, 1, cr0, cr1, cr0, {0}
     240:	3c193f00 	ldccc	15, cr3, [r9], {-0}
     244:	030e6e19 	movweq	r6, #60953	; 0xee19
     248:	3b0b3a0e 	blcc	2cea88 <shift+0x2cea88>
     24c:	0000000b 	andeq	r0, r0, fp
     250:	25011101 	strcs	r1, [r1, #-257]	; 0xfffffeff
     254:	030b130e 	movweq	r1, #45838	; 0xb30e
     258:	110e1b0e 	tstne	lr, lr, lsl #22
     25c:	10061201 	andne	r1, r6, r1, lsl #4
     260:	02000017 	andeq	r0, r0, #23
     264:	0b0b0113 	bleq	2c06b8 <shift+0x2c06b8>
     268:	0b3b0b3a 	bleq	ec2f58 <shift+0xec2f58>
     26c:	00001301 	andeq	r1, r0, r1, lsl #6
     270:	03000d03 	movweq	r0, #3331	; 0xd03
     274:	3b0b3a0e 	blcc	2ceab4 <shift+0x2ceab4>
     278:	3813490b 	ldmdacc	r3, {r0, r1, r3, r8, fp, lr}
     27c:	0400000b 	streq	r0, [r0], #-11
     280:	0b0b0024 	bleq	2c0318 <shift+0x2c0318>
     284:	0e030b3e 	vmoveq.16	d3[0], r0
     288:	16050000 	strne	r0, [r5], -r0
     28c:	3a0e0300 	bcc	380e94 <shift+0x380e94>
     290:	490b3b0b 	stmdbmi	fp, {r0, r1, r3, r8, r9, fp, ip, sp}
     294:	06000013 			; <UNDEFINED> instruction: 0x06000013
     298:	0e030104 	adfeqs	f0, f3, f4
     29c:	13490b0b 	movtne	r0, #39691	; 0x9b0b
     2a0:	0b3b0b3a 	bleq	ec2f90 <shift+0xec2f90>
     2a4:	00001301 	andeq	r1, r0, r1, lsl #6
     2a8:	03002807 	movweq	r2, #2055	; 0x807
     2ac:	000b1c0e 	andeq	r1, fp, lr, lsl #24
     2b0:	012e0800 			; <UNDEFINED> instruction: 0x012e0800
     2b4:	0e03193f 			; <UNDEFINED> instruction: 0x0e03193f
     2b8:	0b3b0b3a 	bleq	ec2fa8 <shift+0xec2fa8>
     2bc:	13491927 	movtne	r1, #39207	; 0x9927
     2c0:	06120111 			; <UNDEFINED> instruction: 0x06120111
     2c4:	42971840 	addsmi	r1, r7, #64, 16	; 0x400000
     2c8:	00130119 	andseq	r0, r3, r9, lsl r1
     2cc:	00050900 	andeq	r0, r5, r0, lsl #18
     2d0:	0b3a0e03 	bleq	e83ae4 <shift+0xe83ae4>
     2d4:	13490b3b 	movtne	r0, #39739	; 0x9b3b
     2d8:	00001702 	andeq	r1, r0, r2, lsl #14
     2dc:	0300050a 	movweq	r0, #1290	; 0x50a
     2e0:	3b0b3a08 	blcc	2ceb08 <shift+0x2ceb08>
     2e4:	0213490b 	andseq	r4, r3, #180224	; 0x2c000
     2e8:	0b000018 	bleq	350 <shift+0x350>
     2ec:	0b0b000f 	bleq	2c0330 <shift+0x2c0330>
     2f0:	00001349 	andeq	r1, r0, r9, asr #6
     2f4:	3f012e0c 	svccc	0x00012e0c
     2f8:	3a0e0319 	bcc	380f64 <shift+0x380f64>
     2fc:	270b3b0b 	strcs	r3, [fp, -fp, lsl #22]
     300:	12011119 	andne	r1, r1, #1073741830	; 0x40000006
     304:	97184006 	ldrls	r4, [r8, -r6]
     308:	13011942 	movwne	r1, #6466	; 0x1942
     30c:	050d0000 	streq	r0, [sp, #-0]
     310:	3a0e0300 	bcc	380f18 <shift+0x380f18>
     314:	490b3b0b 	stmdbmi	fp, {r0, r1, r3, r8, r9, fp, ip, sp}
     318:	00180213 	andseq	r0, r8, r3, lsl r2
     31c:	00050e00 	andeq	r0, r5, r0, lsl #28
     320:	0b3a0803 	bleq	e82334 <shift+0xe82334>
     324:	13490b3b 	movtne	r0, #39739	; 0x9b3b
     328:	00001702 	andeq	r1, r0, r2, lsl #14
     32c:	0300340f 	movweq	r3, #1039	; 0x40f
     330:	3b0b3a0e 	blcc	2ceb70 <shift+0x2ceb70>
     334:	0213490b 	andseq	r4, r3, #180224	; 0x2c000
     338:	10000017 	andne	r0, r0, r7, lsl r0
     33c:	0b0b0024 	bleq	2c03d4 <shift+0x2c03d4>
     340:	08030b3e 	stmdaeq	r3, {r1, r2, r3, r4, r5, r8, r9, fp}
     344:	01000000 	mrseq	r0, (UNDEF: 0)
     348:	0e250111 	mcreq	1, 1, r0, cr5, cr1, {0}
     34c:	0e030b13 	vmoveq.32	d3[0], r0
     350:	01110e1b 	tsteq	r1, fp, lsl lr
     354:	17100612 			; <UNDEFINED> instruction: 0x17100612
     358:	2e020000 	cdpcs	0, 0, cr0, cr2, cr0, {0}
     35c:	03193f01 	tsteq	r9, #1, 30
     360:	3b0b3a0e 	blcc	2ceba0 <shift+0x2ceba0>
     364:	1119270b 	tstne	r9, fp, lsl #14
     368:	40061201 	andmi	r1, r6, r1, lsl #4
     36c:	19429718 	stmdbne	r2, {r3, r4, r8, r9, sl, ip, pc}^
     370:	00001301 	andeq	r1, r0, r1, lsl #6
     374:	31011d03 	tstcc	r1, r3, lsl #26
     378:	55015213 	strpl	r5, [r1, #-531]	; 0xfffffded
     37c:	590b5817 	stmdbpl	fp, {r0, r1, r2, r4, fp, ip, lr}
     380:	0013010b 	andseq	r0, r3, fp, lsl #2
     384:	010b0400 	tsteq	fp, r0, lsl #8
     388:	00001755 	andeq	r1, r0, r5, asr r7
     38c:	31003405 	tstcc	r0, r5, lsl #8
     390:	00170213 	andseq	r0, r7, r3, lsl r2
     394:	001d0600 	andseq	r0, sp, r0, lsl #12
     398:	01521331 	cmpeq	r2, r1, lsr r3
     39c:	0b581755 	bleq	16060f8 <shift+0x16060f8>
     3a0:	00000b59 	andeq	r0, r0, r9, asr fp
     3a4:	03002e07 	movweq	r2, #3591	; 0xe07
     3a8:	3b0b3a0e 	blcc	2cebe8 <shift+0x2cebe8>
     3ac:	2019270b 	andscs	r2, r9, fp, lsl #14
     3b0:	0800000b 	stmdaeq	r0, {r0, r1, r3}
     3b4:	0e03012e 	adfeqsp	f0, f3, #0.5
     3b8:	0b3b0b3a 	bleq	ec30a8 <shift+0xec30a8>
     3bc:	0b201927 	bleq	806860 <shift+0x806860>
     3c0:	00001301 	andeq	r1, r0, r1, lsl #6
     3c4:	03003409 	movweq	r3, #1033	; 0x409
     3c8:	3b0b3a08 	blcc	2cebf0 <shift+0x2cebf0>
     3cc:	0013490b 	andseq	r4, r3, fp, lsl #18
     3d0:	00240a00 	eoreq	r0, r4, r0, lsl #20
     3d4:	0b3e0b0b 	bleq	f83008 <shift+0xf83008>
     3d8:	00000e03 	andeq	r0, r0, r3, lsl #28
     3dc:	03012e0b 	movweq	r2, #7691	; 0x1e0b
     3e0:	3b0b3a0e 	blcc	2cec20 <shift+0x2cec20>
     3e4:	2019270b 	andscs	r2, r9, fp, lsl #14
     3e8:	0000000b 	andeq	r0, r0, fp
     3ec:	25011101 	strcs	r1, [r1, #-257]	; 0xfffffeff
     3f0:	030b130e 	movweq	r1, #45838	; 0xb30e
     3f4:	110e1b0e 	tstne	lr, lr, lsl #22
     3f8:	10061201 	andne	r1, r6, r1, lsl #4
     3fc:	02000017 	andeq	r0, r0, #23
     400:	0b0b0024 	bleq	2c0498 <shift+0x2c0498>
     404:	0e030b3e 	vmoveq.16	d3[0], r0
     408:	16030000 	strne	r0, [r3], -r0
     40c:	3a080300 	bcc	201014 <shift+0x201014>
     410:	490b3b0b 	stmdbmi	fp, {r0, r1, r3, r8, r9, fp, ip, sp}
     414:	04000013 	streq	r0, [r0], #-19	; 0xffffffed
     418:	0b0b0024 	bleq	2c04b0 <shift+0x2c04b0>
     41c:	08030b3e 	stmdaeq	r3, {r1, r2, r3, r4, r5, r8, r9, fp}
     420:	35050000 	strcc	r0, [r5, #-0]
     424:	00134900 	andseq	r4, r3, r0, lsl #18
     428:	00160600 	andseq	r0, r6, r0, lsl #12
     42c:	0b3a0e03 	bleq	e83c40 <shift+0xe83c40>
     430:	13490b3b 	movtne	r0, #39739	; 0x9b3b
     434:	26070000 	strcs	r0, [r7], -r0
     438:	00134900 	andseq	r4, r3, r0, lsl #18
     43c:	01010800 	tsteq	r1, r0, lsl #16
     440:	13011349 	movwne	r1, #4937	; 0x1349
     444:	21090000 	mrscs	r0, (UNDEF: 9)
     448:	2f134900 	svccs	0x00134900
     44c:	0a00000b 	beq	480 <shift+0x480>
     450:	0b0b0113 	bleq	2c08a4 <shift+0x2c08a4>
     454:	053b0b3a 	ldreq	r0, [fp, #-2874]!	; 0xfffff4c6
     458:	00001301 	andeq	r1, r0, r1, lsl #6
     45c:	03000d0b 	movweq	r0, #3339	; 0xd0b
     460:	3b0b3a0e 	blcc	2ceca0 <shift+0x2ceca0>
     464:	38134905 	ldmdacc	r3, {r0, r2, r8, fp, lr}
     468:	0c00000b 	stceq	0, cr0, [r0], {11}
     46c:	0803000d 	stmdaeq	r3, {r0, r2, r3}
     470:	053b0b3a 	ldreq	r0, [fp, #-2874]!	; 0xfffff4c6
     474:	0b381349 	bleq	e051a0 <shift+0xe051a0>
     478:	160d0000 	strne	r0, [sp], -r0
     47c:	3a0e0300 	bcc	381084 <shift+0x381084>
     480:	49053b0b 	stmdbmi	r5, {r0, r1, r3, r8, r9, fp, ip, sp}
     484:	0e000013 	mcreq	0, 0, r0, cr0, cr3, {0}
     488:	0e030034 	mcreq	0, 0, r0, cr3, cr4, {1}
     48c:	0b3b0b3a 	bleq	ec317c <shift+0xec317c>
     490:	00001349 	andeq	r1, r0, r9, asr #6
     494:	0b000f0f 	bleq	40d8 <shift+0x40d8>
     498:	0013490b 	andseq	r4, r3, fp, lsl #18
     49c:	012e1000 			; <UNDEFINED> instruction: 0x012e1000
     4a0:	0e03193f 			; <UNDEFINED> instruction: 0x0e03193f
     4a4:	0b3b0b3a 	bleq	ec3194 <shift+0xec3194>
     4a8:	01111927 	tsteq	r1, r7, lsr #18
     4ac:	18400612 	stmdane	r0, {r1, r4, r9, sl}^
     4b0:	01194297 			; <UNDEFINED> instruction: 0x01194297
     4b4:	11000013 	tstne	r0, r3, lsl r0
     4b8:	08030005 	stmdaeq	r3, {r0, r2}
     4bc:	0b3b0b3a 	bleq	ec31ac <shift+0xec31ac>
     4c0:	17021349 	strne	r1, [r2, -r9, asr #6]
     4c4:	1d120000 	ldcne	0, cr0, [r2, #-0]
     4c8:	11133101 	tstne	r3, r1, lsl #2
     4cc:	58061201 	stmdapl	r6, {r0, r9, ip}
     4d0:	000b590b 	andeq	r5, fp, fp, lsl #18
     4d4:	00051300 	andeq	r1, r5, r0, lsl #6
     4d8:	00001331 	andeq	r1, r0, r1, lsr r3
     4dc:	3f002e14 	svccc	0x00002e14
     4e0:	3a0e0319 	bcc	38114c <shift+0x38114c>
     4e4:	270b3b0b 	strcs	r3, [fp, -fp, lsl #22]
     4e8:	11134919 	tstne	r3, r9, lsl r9
     4ec:	40061201 	andmi	r1, r6, r1, lsl #4
     4f0:	19429718 	stmdbne	r2, {r3, r4, r8, r9, sl, ip, pc}^
     4f4:	2e150000 	cdpcs	0, 1, cr0, cr5, cr0, {0}
     4f8:	03193f01 	tsteq	r9, #1, 30
     4fc:	3b0b3a0e 	blcc	2ced3c <shift+0x2ced3c>
     500:	2019270b 	andscs	r2, r9, fp, lsl #14
     504:	0013010b 	andseq	r0, r3, fp, lsl #2
     508:	00051600 	andeq	r1, r5, r0, lsl #12
     50c:	0b3a0803 	bleq	e82520 <shift+0xe82520>
     510:	13490b3b 	movtne	r0, #39739	; 0x9b3b
     514:	2e170000 	cdpcs	0, 1, cr0, cr7, cr0, {0}
     518:	03193f00 	tsteq	r9, #0, 30
     51c:	3b0b3a0e 	blcc	2ced5c <shift+0x2ced5c>
     520:	1119270b 	tstne	r9, fp, lsl #14
     524:	40061201 	andmi	r1, r6, r1, lsl #4
     528:	19429718 	stmdbne	r2, {r3, r4, r8, r9, sl, ip, pc}^
     52c:	2e180000 	cdpcs	0, 1, cr0, cr8, cr0, {0}
     530:	11133101 	tstne	r3, r1, lsl #2
     534:	40061201 	andmi	r1, r6, r1, lsl #4
     538:	19429718 	stmdbne	r2, {r3, r4, r8, r9, sl, ip, pc}^
     53c:	05190000 	ldreq	r0, [r9, #-0]
     540:	02133100 	andseq	r3, r3, #0, 2
     544:	00000017 	andeq	r0, r0, r7, lsl r0
     548:	25011101 	strcs	r1, [r1, #-257]	; 0xfffffeff
     54c:	030b130e 	movweq	r1, #45838	; 0xb30e
     550:	110e1b0e 	tstne	lr, lr, lsl #22
     554:	10061201 	andne	r1, r6, r1, lsl #4
     558:	02000017 	andeq	r0, r0, #23
     55c:	0b0b0024 	bleq	2c05f4 <shift+0x2c05f4>
     560:	0e030b3e 	vmoveq.16	d3[0], r0
     564:	16030000 	strne	r0, [r3], -r0
     568:	3a080300 	bcc	201170 <shift+0x201170>
     56c:	490b3b0b 	stmdbmi	fp, {r0, r1, r3, r8, r9, fp, ip, sp}
     570:	04000013 	streq	r0, [r0], #-19	; 0xffffffed
     574:	0b0b0024 	bleq	2c060c <shift+0x2c060c>
     578:	08030b3e 	stmdaeq	r3, {r1, r2, r3, r4, r5, r8, r9, fp}
     57c:	16050000 	strne	r0, [r5], -r0
     580:	3a0e0300 	bcc	381188 <shift+0x381188>
     584:	490b3b0b 	stmdbmi	fp, {r0, r1, r3, r8, r9, fp, ip, sp}
     588:	06000013 			; <UNDEFINED> instruction: 0x06000013
     58c:	13490035 	movtne	r0, #36917	; 0x9035
     590:	26070000 	strcs	r0, [r7], -r0
     594:	00134900 	andseq	r4, r3, r0, lsl #18
     598:	01040800 	tsteq	r4, r0, lsl #16
     59c:	0b0b0e03 	bleq	2c3db0 <shift+0x2c3db0>
     5a0:	0b3a1349 	bleq	e852cc <shift+0xe852cc>
     5a4:	13010b3b 	movwne	r0, #6971	; 0x1b3b
     5a8:	28090000 	stmdacs	r9, {}	; <UNPREDICTABLE>
     5ac:	1c0e0300 	stcne	3, cr0, [lr], {-0}
     5b0:	0a00000d 	beq	5ec <shift+0x5ec>
     5b4:	0e030028 	cdpeq	0, 0, cr0, cr3, cr8, {1}
     5b8:	00000b1c 	andeq	r0, r0, ip, lsl fp
     5bc:	4901010b 	stmdbmi	r1, {r0, r1, r3, r8}
     5c0:	00130113 	andseq	r0, r3, r3, lsl r1
     5c4:	00210c00 	eoreq	r0, r1, r0, lsl #24
     5c8:	0b2f1349 	bleq	bc52f4 <shift+0xbc52f4>
     5cc:	130d0000 	movwne	r0, #53248	; 0xd000
     5d0:	3a050b01 	bcc	1431dc <shift+0x1431dc>
     5d4:	01053b0b 	tsteq	r5, fp, lsl #22
     5d8:	0e000013 	mcreq	0, 0, r0, cr0, cr3, {0}
     5dc:	0e03000d 	cdpeq	0, 0, cr0, cr3, cr13, {0}
     5e0:	053b0b3a 	ldreq	r0, [fp, #-2874]!	; 0xfffff4c6
     5e4:	0b381349 	bleq	e05310 <shift+0xe05310>
     5e8:	0d0f0000 	stceq	0, cr0, [pc, #-0]	; 5f0 <shift+0x5f0>
     5ec:	3a0e0300 	bcc	3811f4 <shift+0x3811f4>
     5f0:	49053b0b 	stmdbmi	r5, {r0, r1, r3, r8, r9, fp, ip, sp}
     5f4:	00053813 	andeq	r3, r5, r3, lsl r8
     5f8:	00211000 	eoreq	r1, r1, r0
     5fc:	052f1349 	streq	r1, [pc, #-841]!	; 2bb <shift+0x2bb>
     600:	16110000 	ldrne	r0, [r1], -r0
     604:	3a0e0300 	bcc	38120c <shift+0x38120c>
     608:	49053b0b 	stmdbmi	r5, {r0, r1, r3, r8, r9, fp, ip, sp}
     60c:	12000013 	andne	r0, r0, #19
     610:	0b0b000f 	bleq	2c0654 <shift+0x2c0654>
     614:	00001349 	andeq	r1, r0, r9, asr #6
     618:	27011513 	smladcs	r1, r3, r5, r1
     61c:	00130119 	andseq	r0, r3, r9, lsl r1
     620:	00051400 	andeq	r1, r5, r0, lsl #8
     624:	00001349 	andeq	r1, r0, r9, asr #6
     628:	0b000f15 	bleq	4284 <shift+0x4284>
     62c:	1600000b 	strne	r0, [r0], -fp
     630:	0e030113 	mcreq	1, 0, r0, cr3, cr3, {0}
     634:	0b3a0b0b 	bleq	e83268 <shift+0xe83268>
     638:	13010b3b 	movwne	r0, #6971	; 0x1b3b
     63c:	0d170000 	ldceq	0, cr0, [r7, #-0]
     640:	3a080300 	bcc	201248 <shift+0x201248>
     644:	490b3b0b 	stmdbmi	fp, {r0, r1, r3, r8, r9, fp, ip, sp}
     648:	000b3813 	andeq	r3, fp, r3, lsl r8
     64c:	000d1800 	andeq	r1, sp, r0, lsl #16
     650:	0b3a0e03 	bleq	e83e64 <shift+0xe83e64>
     654:	13490b3b 	movtne	r0, #39739	; 0x9b3b
     658:	00000b38 	andeq	r0, r0, r8, lsr fp
     65c:	03003419 	movweq	r3, #1049	; 0x419
     660:	3b0b3a0e 	blcc	2ceea0 <shift+0x2ceea0>
     664:	3f13490b 	svccc	0x0013490b
     668:	00180219 	andseq	r0, r8, r9, lsl r2
     66c:	012e1a00 			; <UNDEFINED> instruction: 0x012e1a00
     670:	0e03193f 			; <UNDEFINED> instruction: 0x0e03193f
     674:	0b3b0b3a 	bleq	ec3364 <shift+0xec3364>
     678:	01111927 	tsteq	r1, r7, lsr #18
     67c:	18400612 	stmdane	r0, {r1, r4, r9, sl}^
     680:	01194297 			; <UNDEFINED> instruction: 0x01194297
     684:	1b000013 	blne	6d8 <shift+0x6d8>
     688:	08030034 	stmdaeq	r3, {r2, r4, r5}
     68c:	0b3b0b3a 	bleq	ec337c <shift+0xec337c>
     690:	18021349 	stmdane	r2, {r0, r3, r6, r8, r9, ip}
     694:	341c0000 	ldrcc	r0, [ip], #-0
     698:	3a080300 	bcc	2012a0 <shift+0x2012a0>
     69c:	490b3b0b 	stmdbmi	fp, {r0, r1, r3, r8, r9, fp, ip, sp}
     6a0:	1d000013 	stcne	0, cr0, [r0, #-76]	; 0xffffffb4
     6a4:	1331011d 	teqne	r1, #1073741831	; 0x40000007
     6a8:	06120111 			; <UNDEFINED> instruction: 0x06120111
     6ac:	0b590b58 	bleq	1643414 <shift+0x1643414>
     6b0:	00001301 	andeq	r1, r0, r1, lsl #6
     6b4:	11010b1e 	tstne	r1, lr, lsl fp
     6b8:	00061201 	andeq	r1, r6, r1, lsl #4
     6bc:	00341f00 	eorseq	r1, r4, r0, lsl #30
     6c0:	00001331 	andeq	r1, r0, r1, lsr r3
     6c4:	01828920 	orreq	r8, r2, r0, lsr #18
     6c8:	31011101 	tstcc	r1, r1, lsl #2
     6cc:	00130113 	andseq	r0, r3, r3, lsl r1
     6d0:	828a2100 	addhi	r2, sl, #0, 2
     6d4:	18020001 	stmdane	r2, {r0}
     6d8:	00184291 	mulseq	r8, r1, r2
     6dc:	82892200 	addhi	r2, r9, #0, 4
     6e0:	01110101 	tsteq	r1, r1, lsl #2
     6e4:	2e230000 	cdpcs	0, 2, cr0, cr3, cr0, {0}
     6e8:	03193f01 	tsteq	r9, #1, 30
     6ec:	3b0b3a0e 	blcc	2cef2c <shift+0x2cef2c>
     6f0:	4919270b 	ldmdbmi	r9, {r0, r1, r3, r8, r9, sl, sp}
     6f4:	12011113 	andne	r1, r1, #-1073741820	; 0xc0000004
     6f8:	97184006 	ldrls	r4, [r8, -r6]
     6fc:	13011942 	movwne	r1, #6466	; 0x1942
     700:	05240000 	streq	r0, [r4, #-0]!
     704:	3a080300 	bcc	20130c <shift+0x20130c>
     708:	490b3b0b 	stmdbmi	fp, {r0, r1, r3, r8, r9, fp, ip, sp}
     70c:	00170213 	andseq	r0, r7, r3, lsl r2
     710:	00052500 	andeq	r2, r5, r0, lsl #10
     714:	0b3a0e03 	bleq	e83f28 <shift+0xe83f28>
     718:	13490b3b 	movtne	r0, #39739	; 0x9b3b
     71c:	00001702 	andeq	r1, r0, r2, lsl #14
     720:	31011d26 	tstcc	r1, r6, lsr #26
     724:	55015213 	strpl	r5, [r1, #-531]	; 0xfffffded
     728:	590b5817 	stmdbpl	fp, {r0, r1, r2, r4, fp, ip, lr}
     72c:	0013010b 	andseq	r0, r3, fp, lsl #2
     730:	00052700 	andeq	r2, r5, r0, lsl #14
     734:	17021331 	smladxne	r2, r1, r3, r1
     738:	1d280000 	stcne	0, cr0, [r8, #-0]
     73c:	52133101 	andspl	r3, r3, #1073741824	; 0x40000000
     740:	58175501 	ldmdapl	r7, {r0, r8, sl, ip, lr}
     744:	000b590b 	andeq	r5, fp, fp, lsl #18
     748:	010b2900 	tsteq	fp, r0, lsl #18
     74c:	00001755 	andeq	r1, r0, r5, asr r7
     750:	31011d2a 	tstcc	r1, sl, lsr #26
     754:	12011113 	andne	r1, r1, #-1073741820	; 0xc0000004
     758:	590b5806 	stmdbpl	fp, {r1, r2, fp, ip, lr}
     75c:	2b00000b 	blcs	790 <shift+0x790>
     760:	0e03012e 	adfeqsp	f0, f3, #0.5
     764:	0b3b0b3a 	bleq	ec3454 <shift+0xec3454>
     768:	13491927 	movtne	r1, #39207	; 0x9927
     76c:	13010b20 	movwne	r0, #6944	; 0x1b20
     770:	052c0000 	streq	r0, [ip, #-0]!
     774:	3a080300 	bcc	20137c <shift+0x20137c>
     778:	490b3b0b 	stmdbmi	fp, {r0, r1, r3, r8, r9, fp, ip, sp}
     77c:	2d000013 	stccs	0, cr0, [r0, #-76]	; 0xffffffb4
     780:	0e030005 	cdpeq	0, 0, cr0, cr3, cr5, {0}
     784:	0b3b0b3a 	bleq	ec3474 <shift+0xec3474>
     788:	00001349 	andeq	r1, r0, r9, asr #6
     78c:	3100342e 	tstcc	r0, lr, lsr #8
     790:	00170213 	andseq	r0, r7, r3, lsl r2
     794:	00342f00 	eorseq	r2, r4, r0, lsl #30
     798:	18021331 	stmdane	r2, {r0, r4, r5, r8, r9, ip}
     79c:	2e300000 	cdpcs	0, 3, cr0, cr0, cr0, {0}
     7a0:	03193f01 	tsteq	r9, #1, 30
     7a4:	3b0b3a0e 	blcc	2cefe4 <shift+0x2cefe4>
     7a8:	2019270b 	andscs	r2, r9, fp, lsl #14
     7ac:	0013010b 	andseq	r0, r3, fp, lsl #2
     7b0:	012e3100 			; <UNDEFINED> instruction: 0x012e3100
     7b4:	0b3a0e03 	bleq	e83fc8 <shift+0xe83fc8>
     7b8:	19270b3b 	stmdbne	r7!, {r0, r1, r3, r4, r5, r8, r9, fp}
     7bc:	13010b20 	movwne	r0, #6944	; 0x1b20
     7c0:	34320000 	ldrtcc	r0, [r2], #-0
     7c4:	3a0e0300 	bcc	3813cc <shift+0x3813cc>
     7c8:	490b3b0b 	stmdbmi	fp, {r0, r1, r3, r8, r9, fp, ip, sp}
     7cc:	33000013 	movwcc	r0, #19
     7d0:	0e03012e 	adfeqsp	f0, f3, #0.5
     7d4:	0b3b0b3a 	bleq	ec34c4 <shift+0xec34c4>
     7d8:	01111927 	tsteq	r1, r7, lsr #18
     7dc:	18400612 	stmdane	r0, {r1, r4, r9, sl}^
     7e0:	01194297 			; <UNDEFINED> instruction: 0x01194297
     7e4:	34000013 	strcc	r0, [r0], #-19	; 0xffffffed
     7e8:	0e030005 	cdpeq	0, 0, cr0, cr3, cr5, {0}
     7ec:	0b3b0b3a 	bleq	ec34dc <shift+0xec34dc>
     7f0:	18021349 	stmdane	r2, {r0, r3, r6, r8, r9, ip}
     7f4:	2e350000 	cdpcs	0, 3, cr0, cr5, cr0, {0}
     7f8:	11133101 	tstne	r3, r1, lsl #2
     7fc:	40061201 	andmi	r1, r6, r1, lsl #4
     800:	19429718 	stmdbne	r2, {r3, r4, r8, r9, sl, ip, pc}^
     804:	00001301 	andeq	r1, r0, r1, lsl #6
     808:	3f002e36 	svccc	0x00002e36
     80c:	6e193c19 	mrcvs	12, 0, r3, cr9, cr9, {0}
     810:	3a0e030e 	bcc	381450 <shift+0x381450>
     814:	000b3b0b 	andeq	r3, fp, fp, lsl #22
     818:	11010000 	mrsne	r0, (UNDEF: 1)
     81c:	130e2501 	movwne	r2, #58625	; 0xe501
     820:	1b0e030b 	blne	381454 <shift+0x381454>
     824:	1201110e 	andne	r1, r1, #-2147483645	; 0x80000003
     828:	00171006 	andseq	r1, r7, r6
     82c:	01130200 	tsteq	r3, r0, lsl #4
     830:	0b3a0b0b 	bleq	e83464 <shift+0xe83464>
     834:	13010b3b 	movwne	r0, #6971	; 0x1b3b
     838:	0d030000 	stceq	0, cr0, [r3, #-0]
     83c:	3a0e0300 	bcc	381444 <shift+0x381444>
     840:	490b3b0b 	stmdbmi	fp, {r0, r1, r3, r8, r9, fp, ip, sp}
     844:	000b3813 	andeq	r3, fp, r3, lsl r8
     848:	00240400 	eoreq	r0, r4, r0, lsl #8
     84c:	0b3e0b0b 	bleq	f83480 <shift+0xf83480>
     850:	00000e03 	andeq	r0, r0, r3, lsl #28
     854:	03001605 	movweq	r1, #1541	; 0x605
     858:	3b0b3a0e 	blcc	2cf098 <shift+0x2cf098>
     85c:	0013490b 	andseq	r4, r3, fp, lsl #18
     860:	01040600 	tsteq	r4, r0, lsl #12
     864:	0b0b0e03 	bleq	2c4078 <shift+0x2c4078>
     868:	0b3a1349 	bleq	e85594 <shift+0xe85594>
     86c:	13010b3b 	movwne	r0, #6971	; 0x1b3b
     870:	28070000 	stmdacs	r7, {}	; <UNPREDICTABLE>
     874:	1c0e0300 	stcne	3, cr0, [lr], {-0}
     878:	0800000b 	stmdaeq	r0, {r0, r1, r3}
     87c:	0b0b0024 	bleq	2c0914 <shift+0x2c0914>
     880:	08030b3e 	stmdaeq	r3, {r1, r2, r3, r4, r5, r8, r9, fp}
     884:	35090000 	strcc	r0, [r9, #-0]
     888:	00134900 	andseq	r4, r3, r0, lsl #18
     88c:	00280a00 	eoreq	r0, r8, r0, lsl #20
     890:	0d1c0e03 	ldceq	14, cr0, [ip, #-12]
     894:	0f0b0000 	svceq	0x000b0000
     898:	000b0b00 	andeq	r0, fp, r0, lsl #22
     89c:	012e0c00 			; <UNDEFINED> instruction: 0x012e0c00
     8a0:	0e03193f 			; <UNDEFINED> instruction: 0x0e03193f
     8a4:	0b3b0b3a 	bleq	ec3594 <shift+0xec3594>
     8a8:	01111927 	tsteq	r1, r7, lsr #18
     8ac:	18400612 	stmdane	r0, {r1, r4, r9, sl}^
     8b0:	01194297 			; <UNDEFINED> instruction: 0x01194297
     8b4:	0d000013 	stceq	0, cr0, [r0, #-76]	; 0xffffffb4
     8b8:	08030005 	stmdaeq	r3, {r0, r2}
     8bc:	0b3b0b3a 	bleq	ec35ac <shift+0xec35ac>
     8c0:	17021349 	strne	r1, [r2, -r9, asr #6]
     8c4:	050e0000 	streq	r0, [lr, #-0]
     8c8:	3a0e0300 	bcc	3814d0 <shift+0x3814d0>
     8cc:	490b3b0b 	stmdbmi	fp, {r0, r1, r3, r8, r9, fp, ip, sp}
     8d0:	00170213 	andseq	r0, r7, r3, lsl r2
     8d4:	00340f00 	eorseq	r0, r4, r0, lsl #30
     8d8:	0b3a0e03 	bleq	e840ec <shift+0xe840ec>
     8dc:	13490b3b 	movtne	r0, #39739	; 0x9b3b
     8e0:	0000061c 	andeq	r0, r0, ip, lsl r6
     8e4:	03003410 	movweq	r3, #1040	; 0x410
     8e8:	3b0b3a08 	blcc	2cf110 <shift+0x2cf110>
     8ec:	0213490b 	andseq	r4, r3, #180224	; 0x2c000
     8f0:	11000018 	tstne	r0, r8, lsl r0
     8f4:	0e030034 	mcreq	0, 0, r0, cr3, cr4, {1}
     8f8:	0b3b0b3a 	bleq	ec35e8 <shift+0xec35e8>
     8fc:	18021349 	stmdane	r2, {r0, r3, r6, r8, r9, ip}
     900:	89120000 	ldmdbhi	r2, {}	; <UNPREDICTABLE>
     904:	11010182 	smlabbne	r1, r2, r1, r0
     908:	01133101 	tsteq	r3, r1, lsl #2
     90c:	13000013 	movwne	r0, #19
     910:	0001828a 	andeq	r8, r1, sl, lsl #5
     914:	42911802 	addsmi	r1, r1, #131072	; 0x20000
     918:	14000018 	strne	r0, [r0], #-24	; 0xffffffe8
     91c:	00018289 	andeq	r8, r1, r9, lsl #5
     920:	13310111 	teqne	r1, #1073741828	; 0x40000004
     924:	0f150000 	svceq	0x00150000
     928:	490b0b00 	stmdbmi	fp, {r8, r9, fp}
     92c:	16000013 			; <UNDEFINED> instruction: 0x16000013
     930:	01018289 	smlabbeq	r1, r9, r2, r8
     934:	42950111 	addsmi	r0, r5, #1073741828	; 0x40000004
     938:	00133119 	andseq	r3, r3, r9, lsl r1
     93c:	002e1700 	eoreq	r1, lr, r0, lsl #14
     940:	193c193f 	ldmdbne	ip!, {r0, r1, r2, r3, r4, r5, r8, fp, ip}
     944:	0e030e6e 	cdpeq	14, 0, cr0, cr3, cr14, {3}
     948:	0b3b0b3a 	bleq	ec3638 <shift+0xec3638>
     94c:	01000000 	mrseq	r0, (UNDEF: 0)
     950:	0e250111 	mcreq	1, 1, r0, cr5, cr1, {0}
     954:	0e030b13 	vmoveq.32	d3[0], r0
     958:	01110e1b 	tsteq	r1, fp, lsl lr
     95c:	17100612 			; <UNDEFINED> instruction: 0x17100612
     960:	24020000 	strcs	r0, [r2], #-0
     964:	3e0b0b00 	vmlacc.f64	d0, d11, d0
     968:	000e030b 	andeq	r0, lr, fp, lsl #6
     96c:	00160300 	andseq	r0, r6, r0, lsl #6
     970:	0b3a0803 	bleq	e82984 <shift+0xe82984>
     974:	13490b3b 	movtne	r0, #39739	; 0x9b3b
     978:	24040000 	strcs	r0, [r4], #-0
     97c:	3e0b0b00 	vmlacc.f64	d0, d11, d0
     980:	0008030b 	andeq	r0, r8, fp, lsl #6
     984:	00160500 	andseq	r0, r6, r0, lsl #10
     988:	0b3a0e03 	bleq	e8419c <shift+0xe8419c>
     98c:	13490b3b 	movtne	r0, #39739	; 0x9b3b
     990:	35060000 	strcc	r0, [r6, #-0]
     994:	00134900 	andseq	r4, r3, r0, lsl #18
     998:	01130700 	tsteq	r3, r0, lsl #14
     99c:	0b3a0b0b 	bleq	e835d0 <shift+0xe835d0>
     9a0:	1301053b 	movwne	r0, #5435	; 0x153b
     9a4:	0d080000 	stceq	0, cr0, [r8, #-0]
     9a8:	3a0e0300 	bcc	3815b0 <shift+0x3815b0>
     9ac:	49053b0b 	stmdbmi	r5, {r0, r1, r3, r8, r9, fp, ip, sp}
     9b0:	000b3813 	andeq	r3, fp, r3, lsl r8
     9b4:	01010900 	tsteq	r1, r0, lsl #18
     9b8:	13011349 	movwne	r1, #4937	; 0x1349
     9bc:	210a0000 	mrscs	r0, (UNDEF: 10)
     9c0:	2f134900 	svccs	0x00134900
     9c4:	0b00000b 	bleq	9f8 <shift+0x9f8>
     9c8:	0e030016 	mcreq	0, 0, r0, cr3, cr6, {0}
     9cc:	053b0b3a 	ldreq	r0, [fp, #-2874]!	; 0xfffff4c6
     9d0:	00001349 	andeq	r1, r0, r9, asr #6
     9d4:	0b01040c 	bleq	41a0c <shift+0x41a0c>
     9d8:	3a13490b 	bcc	4d2e0c <shift+0x4d2e0c>
     9dc:	010b3b0b 	tsteq	fp, fp, lsl #22
     9e0:	0d000013 	stceq	0, cr0, [r0, #-76]	; 0xffffffb4
     9e4:	0e030028 	cdpeq	0, 0, cr0, cr3, cr8, {1}
     9e8:	00000b1c 	andeq	r0, r0, ip, lsl fp
     9ec:	0301130e 	movweq	r1, #4878	; 0x130e
     9f0:	3a0b0b0e 	bcc	2c3630 <shift+0x2c3630>
     9f4:	010b3b0b 	tsteq	fp, fp, lsl #22
     9f8:	0f000013 	svceq	0x00000013
     9fc:	0e03000d 	cdpeq	0, 0, cr0, cr3, cr13, {0}
     a00:	0b3b0b3a 	bleq	ec36f0 <shift+0xec36f0>
     a04:	0b381349 	bleq	e05730 <shift+0xe05730>
     a08:	0d100000 	ldceq	0, cr0, [r0, #-0]
     a0c:	3a080300 	bcc	201614 <shift+0x201614>
     a10:	490b3b0b 	stmdbmi	fp, {r0, r1, r3, r8, r9, fp, ip, sp}
     a14:	000b3813 	andeq	r3, fp, r3, lsl r8
     a18:	000f1100 	andeq	r1, pc, r0, lsl #2
     a1c:	13490b0b 	movtne	r0, #39691	; 0x9b0b
     a20:	2e120000 	cdpcs	0, 1, cr0, cr2, cr0, {0}
     a24:	03193f01 	tsteq	r9, #1, 30
     a28:	3b0b3a0e 	blcc	2cf268 <shift+0x2cf268>
     a2c:	49192705 	ldmdbmi	r9, {r0, r2, r8, r9, sl, sp}
     a30:	12011113 	andne	r1, r1, #-1073741820	; 0xc0000004
     a34:	97184006 	ldrls	r4, [r8, -r6]
     a38:	13011942 	movwne	r1, #6466	; 0x1942
     a3c:	05130000 	ldreq	r0, [r3, #-0]
     a40:	3a0e0300 	bcc	381648 <shift+0x381648>
     a44:	49053b0b 	stmdbmi	r5, {r0, r1, r3, r8, r9, fp, ip, sp}
     a48:	00170213 	andseq	r0, r7, r3, lsl r2
     a4c:	00051400 	andeq	r1, r5, r0, lsl #8
     a50:	0b3a0803 	bleq	e82a64 <shift+0xe82a64>
     a54:	1349053b 	movtne	r0, #38203	; 0x953b
     a58:	00001702 	andeq	r1, r0, r2, lsl #14
     a5c:	03003415 	movweq	r3, #1045	; 0x415
     a60:	3b0b3a08 	blcc	2cf288 <shift+0x2cf288>
     a64:	02134905 	andseq	r4, r3, #81920	; 0x14000
     a68:	16000018 			; <UNDEFINED> instruction: 0x16000018
     a6c:	01018289 	smlabbeq	r1, r9, r2, r8
     a70:	13310111 	teqne	r1, #1073741828	; 0x40000004
     a74:	8a170000 	bhi	5c0a7c <shift+0x5c0a7c>
     a78:	02000182 	andeq	r0, r0, #-2147483616	; 0x80000020
     a7c:	18429118 	stmdane	r2, {r3, r4, r8, ip, pc}^
     a80:	2e180000 	cdpcs	0, 1, cr0, cr8, cr0, {0}
     a84:	03193f01 	tsteq	r9, #1, 30
     a88:	3b0b3a0e 	blcc	2cf2c8 <shift+0x2cf2c8>
     a8c:	4919270b 	ldmdbmi	r9, {r0, r1, r3, r8, r9, sl, sp}
     a90:	12011113 	andne	r1, r1, #-1073741820	; 0xc0000004
     a94:	97184006 	ldrls	r4, [r8, -r6]
     a98:	13011942 	movwne	r1, #6466	; 0x1942
     a9c:	05190000 	ldreq	r0, [r9, #-0]
     aa0:	3a0e0300 	bcc	3816a8 <shift+0x3816a8>
     aa4:	490b3b0b 	stmdbmi	fp, {r0, r1, r3, r8, r9, fp, ip, sp}
     aa8:	00170213 	andseq	r0, r7, r3, lsl r2
     aac:	00051a00 	andeq	r1, r5, r0, lsl #20
     ab0:	0b3a0803 	bleq	e82ac4 <shift+0xe82ac4>
     ab4:	13490b3b 	movtne	r0, #39739	; 0x9b3b
     ab8:	00001702 	andeq	r1, r0, r2, lsl #14
     abc:	0300341b 	movweq	r3, #1051	; 0x41b
     ac0:	3b0b3a0e 	blcc	2cf300 <shift+0x2cf300>
     ac4:	02134905 	andseq	r4, r3, #81920	; 0x14000
     ac8:	1c000018 	stcne	0, cr0, [r0], {24}
     acc:	08030034 	stmdaeq	r3, {r2, r4, r5}
     ad0:	0b3b0b3a 	bleq	ec37c0 <shift+0xec37c0>
     ad4:	17021349 	strne	r1, [r2, -r9, asr #6]
     ad8:	1d1d0000 	ldcne	0, cr0, [sp, #-0]
     adc:	11133101 	tstne	r3, r1, lsl #2
     ae0:	58061201 	stmdapl	r6, {r0, r9, ip}
     ae4:	010b590b 	tsteq	fp, fp, lsl #18
     ae8:	1e000013 	mcrne	0, 0, r0, cr0, cr3, {0}
     aec:	13310005 	teqne	r1, #5
     af0:	00001702 	andeq	r1, r0, r2, lsl #14
     af4:	11010b1f 	tstne	r1, pc, lsl fp
     af8:	00061201 	andeq	r1, r6, r1, lsl #4
     afc:	00342000 	eorseq	r2, r4, r0
     b00:	00001331 	andeq	r1, r0, r1, lsr r3
     b04:	01828921 	orreq	r8, r2, r1, lsr #18
     b08:	31011101 	tstcc	r1, r1, lsl #2
     b0c:	00130113 	andseq	r0, r3, r3, lsl r1
     b10:	82892200 	addhi	r2, r9, #0, 4
     b14:	01110101 	tsteq	r1, r1, lsl #2
     b18:	31194295 			; <UNDEFINED> instruction: 0x31194295
     b1c:	00130113 	andseq	r0, r3, r3, lsl r1
     b20:	82892300 	addhi	r2, r9, #0, 6
     b24:	01110101 	tsteq	r1, r1, lsl #2
     b28:	31194295 			; <UNDEFINED> instruction: 0x31194295
     b2c:	24000013 	strcs	r0, [r0], #-19	; 0xffffffed
     b30:	0e030034 	mcreq	0, 0, r0, cr3, cr4, {1}
     b34:	0b3b0b3a 	bleq	ec3824 <shift+0xec3824>
     b38:	17021349 	strne	r1, [r2, -r9, asr #6]
     b3c:	05250000 	streq	r0, [r5, #-0]!
     b40:	02133100 	andseq	r3, r3, #0, 2
     b44:	26000018 			; <UNDEFINED> instruction: 0x26000018
     b48:	08030005 	stmdaeq	r3, {r0, r2}
     b4c:	0b3b0b3a 	bleq	ec383c <shift+0xec383c>
     b50:	18021349 	stmdane	r2, {r0, r3, r6, r8, r9, ip}
     b54:	2e270000 	cdpcs	0, 2, cr0, cr7, cr0, {0}
     b58:	03193f01 	tsteq	r9, #1, 30
     b5c:	3b0b3a0e 	blcc	2cf39c <shift+0x2cf39c>
     b60:	4919270b 	ldmdbmi	r9, {r0, r1, r3, r8, r9, sl, sp}
     b64:	010b2013 	tsteq	fp, r3, lsl r0
     b68:	28000013 	stmdacs	r0, {r0, r1, r4}
     b6c:	0e030005 	cdpeq	0, 0, cr0, cr3, cr5, {0}
     b70:	0b3b0b3a 	bleq	ec3860 <shift+0xec3860>
     b74:	00001349 	andeq	r1, r0, r9, asr #6
     b78:	03003429 	movweq	r3, #1065	; 0x429
     b7c:	3b0b3a0e 	blcc	2cf3bc <shift+0x2cf3bc>
     b80:	0013490b 	andseq	r4, r3, fp, lsl #18
     b84:	00052a00 	andeq	r2, r5, r0, lsl #20
     b88:	0b3a0803 	bleq	e82b9c <shift+0xe82b9c>
     b8c:	13490b3b 	movtne	r0, #39739	; 0x9b3b
     b90:	2e2b0000 	cdpcs	0, 2, cr0, cr11, cr0, {0}
     b94:	03193f01 	tsteq	r9, #1, 30
     b98:	3b0b3a0e 	blcc	2cf3d8 <shift+0x2cf3d8>
     b9c:	1119270b 	tstne	r9, fp, lsl #14
     ba0:	40061201 	andmi	r1, r6, r1, lsl #4
     ba4:	19429718 	stmdbne	r2, {r3, r4, r8, r9, sl, ip, pc}^
     ba8:	00001301 	andeq	r1, r0, r1, lsl #6
     bac:	31011d2c 	tstcc	r1, ip, lsr #26
     bb0:	55015213 	strpl	r5, [r1, #-531]	; 0xfffffded
     bb4:	590b5817 	stmdbpl	fp, {r0, r1, r2, r4, fp, ip, lr}
     bb8:	0013010b 	andseq	r0, r3, fp, lsl #2
     bbc:	00052d00 	andeq	r2, r5, r0, lsl #26
     bc0:	061c1331 			; <UNDEFINED> instruction: 0x061c1331
     bc4:	052e0000 	streq	r0, [lr, #-0]!
     bc8:	1c133100 	ldfnes	f3, [r3], {-0}
     bcc:	2f00000b 	svccs	0x0000000b
     bd0:	1331011d 	teqne	r1, #1073741831	; 0x40000007
     bd4:	17550152 			; <UNDEFINED> instruction: 0x17550152
     bd8:	0b590b58 	bleq	1643940 <shift+0x1643940>
     bdc:	2e300000 	cdpcs	0, 3, cr0, cr0, cr0, {0}
     be0:	3a0e0300 	bcc	3817e8 <shift+0x3817e8>
     be4:	270b3b0b 	strcs	r3, [fp, -fp, lsl #22]
     be8:	000b2019 	andeq	r2, fp, r9, lsl r0
     bec:	012e3100 			; <UNDEFINED> instruction: 0x012e3100
     bf0:	0b3a0e03 	bleq	e84404 <shift+0xe84404>
     bf4:	19270b3b 	stmdbne	r7!, {r0, r1, r3, r4, r5, r8, r9, fp}
     bf8:	13010b20 	movwne	r0, #6944	; 0x1b20
     bfc:	2e320000 	cdpcs	0, 3, cr0, cr2, cr0, {0}
     c00:	3a0e0301 	bcc	38180c <shift+0x38180c>
     c04:	27053b0b 	strcs	r3, [r5, -fp, lsl #22]
     c08:	010b2019 	tsteq	fp, r9, lsl r0
     c0c:	33000013 	movwcc	r0, #19
     c10:	0e030005 	cdpeq	0, 0, cr0, cr3, cr5, {0}
     c14:	053b0b3a 	ldreq	r0, [fp, #-2874]!	; 0xfffff4c6
     c18:	00001349 	andeq	r1, r0, r9, asr #6
     c1c:	31012e34 	tstcc	r1, r4, lsr lr
     c20:	12011113 	andne	r1, r1, #-1073741820	; 0xc0000004
     c24:	97184006 	ldrls	r4, [r8, -r6]
     c28:	13011942 	movwne	r1, #6466	; 0x1942
     c2c:	0b350000 	bleq	d40c34 <shift+0xd40c34>
     c30:	00175501 	andseq	r5, r7, r1, lsl #10
     c34:	00343600 	eorseq	r3, r4, r0, lsl #12
     c38:	17021331 	smladxne	r2, r1, r3, r1
     c3c:	2e370000 	cdpcs	0, 3, cr0, cr7, cr0, {0}
     c40:	11133101 	tstne	r3, r1, lsl #2
     c44:	40061201 	andmi	r1, r6, r1, lsl #4
     c48:	19429718 	stmdbne	r2, {r3, r4, r8, r9, sl, ip, pc}^
     c4c:	01000000 	mrseq	r0, (UNDEF: 0)
     c50:	0e250111 	mcreq	1, 1, r0, cr5, cr1, {0}
     c54:	0e030b13 	vmoveq.32	d3[0], r0
     c58:	01110e1b 	tsteq	r1, fp, lsl lr
     c5c:	17100612 			; <UNDEFINED> instruction: 0x17100612
     c60:	24020000 	strcs	r0, [r2], #-0
     c64:	3e0b0b00 	vmlacc.f64	d0, d11, d0
     c68:	000e030b 	andeq	r0, lr, fp, lsl #6
     c6c:	00240300 	eoreq	r0, r4, r0, lsl #6
     c70:	0b3e0b0b 	bleq	f838a4 <shift+0xf838a4>
     c74:	00000803 	andeq	r0, r0, r3, lsl #16
     c78:	03001604 	movweq	r1, #1540	; 0x604
     c7c:	3b0b3a0e 	blcc	2cf4bc <shift+0x2cf4bc>
     c80:	0013490b 	andseq	r4, r3, fp, lsl #18
     c84:	000f0500 	andeq	r0, pc, r0, lsl #10
     c88:	13490b0b 	movtne	r0, #39691	; 0x9b0b
     c8c:	26060000 	strcs	r0, [r6], -r0
     c90:	00134900 	andseq	r4, r3, r0, lsl #18
     c94:	01010700 	tsteq	r1, r0, lsl #14
     c98:	13011349 	movwne	r1, #4937	; 0x1349
     c9c:	21080000 	mrscs	r0, (UNDEF: 8)
     ca0:	2f134900 	svccs	0x00134900
     ca4:	0900000b 	stmdbeq	r0, {r0, r1, r3}
     ca8:	0e030034 	mcreq	0, 0, r0, cr3, cr4, {1}
     cac:	0b3b0b3a 	bleq	ec399c <shift+0xec399c>
     cb0:	193f1349 	ldmdbne	pc!, {r0, r3, r6, r8, r9, ip}	; <UNPREDICTABLE>
     cb4:	00001802 	andeq	r1, r0, r2, lsl #16
     cb8:	3f012e0a 	svccc	0x00012e0a
     cbc:	3a0e0319 	bcc	381928 <shift+0x381928>
     cc0:	270b3b0b 	strcs	r3, [fp, -fp, lsl #22]
     cc4:	11134919 	tstne	r3, r9, lsl r9
     cc8:	40061201 	andmi	r1, r6, r1, lsl #4
     ccc:	19429718 	stmdbne	r2, {r3, r4, r8, r9, sl, ip, pc}^
     cd0:	00001301 	andeq	r1, r0, r1, lsl #6
     cd4:	31011d0b 	tstcc	r1, fp, lsl #26
     cd8:	12011113 	andne	r1, r1, #-1073741820	; 0xc0000004
     cdc:	590b5806 	stmdbpl	fp, {r1, r2, fp, ip, lr}
     ce0:	0013010b 	andseq	r0, r3, fp, lsl #2
     ce4:	00050c00 	andeq	r0, r5, r0, lsl #24
     ce8:	17021331 	smladxne	r2, r1, r3, r1
     cec:	0b0d0000 	bleq	340cf4 <shift+0x340cf4>
     cf0:	12011101 	andne	r1, r1, #1073741824	; 0x40000000
     cf4:	0e000006 	cdpeq	0, 0, cr0, cr0, cr6, {0}
     cf8:	13310034 	teqne	r1, #52	; 0x34
     cfc:	890f0000 	stmdbhi	pc, {}	; <UNPREDICTABLE>
     d00:	11010182 	smlabbne	r1, r2, r1, r0
     d04:	00133101 	andseq	r3, r3, r1, lsl #2
     d08:	828a1000 	addhi	r1, sl, #0
     d0c:	18020001 	stmdane	r2, {r0}
     d10:	00184291 	mulseq	r8, r1, r2
     d14:	011d1100 	tsteq	sp, r0, lsl #2
     d18:	01111331 	tsteq	r1, r1, lsr r3
     d1c:	0b580612 	bleq	160256c <shift+0x160256c>
     d20:	00000b59 	andeq	r0, r0, r9, asr fp
     d24:	3f012e12 	svccc	0x00012e12
     d28:	3a0e0319 	bcc	381994 <shift+0x381994>
     d2c:	270b3b0b 	strcs	r3, [fp, -fp, lsl #22]
     d30:	20134919 	andscs	r4, r3, r9, lsl r9
     d34:	0013010b 	andseq	r0, r3, fp, lsl #2
     d38:	00051300 	andeq	r1, r5, r0, lsl #6
     d3c:	0b3a0803 	bleq	e82d50 <shift+0xe82d50>
     d40:	13490b3b 	movtne	r0, #39739	; 0x9b3b
     d44:	18140000 	ldmdane	r4, {}	; <UNPREDICTABLE>
     d48:	15000000 	strne	r0, [r0, #-0]
     d4c:	08030034 	stmdaeq	r3, {r2, r4, r5}
     d50:	0b3b0b3a 	bleq	ec3a40 <shift+0xec3a40>
     d54:	00001349 	andeq	r1, r0, r9, asr #6
     d58:	03012e16 	movweq	r2, #7702	; 0x1e16
     d5c:	3b0b3a0e 	blcc	2cf59c <shift+0x2cf59c>
     d60:	4919270b 	ldmdbmi	r9, {r0, r1, r3, r8, r9, sl, sp}
     d64:	12011113 	andne	r1, r1, #-1073741820	; 0xc0000004
     d68:	97184006 	ldrls	r4, [r8, -r6]
     d6c:	13011942 	movwne	r1, #6466	; 0x1942
     d70:	05170000 	ldreq	r0, [r7, #-0]
     d74:	3a080300 	bcc	20197c <shift+0x20197c>
     d78:	490b3b0b 	stmdbmi	fp, {r0, r1, r3, r8, r9, fp, ip, sp}
     d7c:	00170213 	andseq	r0, r7, r3, lsl r2
     d80:	00341800 	eorseq	r1, r4, r0, lsl #16
     d84:	0b3a0e03 	bleq	e84598 <shift+0xe84598>
     d88:	13490b3b 	movtne	r0, #39739	; 0x9b3b
     d8c:	00001702 	andeq	r1, r0, r2, lsl #14
     d90:	01828919 	orreq	r8, r2, r9, lsl r9
     d94:	31011100 	mrscc	r1, (UNDEF: 17)
     d98:	1a000013 	bne	dec <shift+0xdec>
     d9c:	1331011d 	teqne	r1, #1073741831	; 0x40000007
     da0:	17550152 			; <UNDEFINED> instruction: 0x17550152
     da4:	0b590b58 	bleq	1643b0c <shift+0x1643b0c>
     da8:	00001301 	andeq	r1, r0, r1, lsl #6
     dac:	0182891b 	orreq	r8, r2, fp, lsl r9
     db0:	31011101 	tstcc	r1, r1, lsl #2
     db4:	00130113 	andseq	r0, r3, r3, lsl r1
     db8:	012e1c00 			; <UNDEFINED> instruction: 0x012e1c00
     dbc:	0b3a0e03 	bleq	e845d0 <shift+0xe845d0>
     dc0:	19270b3b 	stmdbne	r7!, {r0, r1, r3, r4, r5, r8, r9, fp}
     dc4:	01111349 	tsteq	r1, r9, asr #6
     dc8:	18400612 	stmdane	r0, {r1, r4, r9, sl}^
     dcc:	01194296 			; <UNDEFINED> instruction: 0x01194296
     dd0:	1d000013 	stcne	0, cr0, [r0, #-76]	; 0xffffffb4
     dd4:	0e030005 	cdpeq	0, 0, cr0, cr3, cr5, {0}
     dd8:	0b3b0b3a 	bleq	ec3ac8 <shift+0xec3ac8>
     ddc:	17021349 	strne	r1, [r2, -r9, asr #6]
     de0:	341e0000 	ldrcc	r0, [lr], #-0
     de4:	3a080300 	bcc	2019ec <shift+0x2019ec>
     de8:	490b3b0b 	stmdbmi	fp, {r0, r1, r3, r8, r9, fp, ip, sp}
     dec:	00170213 	andseq	r0, r7, r3, lsl r2
     df0:	00341f00 	eorseq	r1, r4, r0, lsl #30
     df4:	0b3a0803 	bleq	e82e08 <shift+0xe82e08>
     df8:	13490b3b 	movtne	r0, #39739	; 0x9b3b
     dfc:	00001802 	andeq	r1, r0, r2, lsl #16
     e00:	03012e20 	movweq	r2, #7712	; 0x1e20
     e04:	3b0b3a0e 	blcc	2cf644 <shift+0x2cf644>
     e08:	4919270b 	ldmdbmi	r9, {r0, r1, r3, r8, r9, sl, sp}
     e0c:	010b2013 	tsteq	fp, r3, lsl r0
     e10:	21000013 	tstcs	r0, r3, lsl r0
     e14:	1331012e 	teqne	r1, #-2147483637	; 0x8000000b
     e18:	06120111 			; <UNDEFINED> instruction: 0x06120111
     e1c:	42971840 	addsmi	r1, r7, #64, 16	; 0x400000
     e20:	00130119 	andseq	r0, r3, r9, lsl r1
     e24:	00342200 	eorseq	r2, r4, r0, lsl #4
     e28:	17021331 	smladxne	r2, r1, r3, r1
     e2c:	2e230000 	cdpcs	0, 2, cr0, cr3, cr0, {0}
     e30:	3c193f00 	ldccc	15, cr3, [r9], {-0}
     e34:	030e6e19 	movweq	r6, #60953	; 0xee19
     e38:	3b0b3a0e 	blcc	2cf678 <shift+0x2cf678>
     e3c:	0000000b 	andeq	r0, r0, fp
     e40:	25011101 	strcs	r1, [r1, #-257]	; 0xfffffeff
     e44:	030b130e 	movweq	r1, #45838	; 0xb30e
     e48:	110e1b0e 	tstne	lr, lr, lsl #22
     e4c:	10061201 	andne	r1, r6, r1, lsl #4
     e50:	02000017 	andeq	r0, r0, #23
     e54:	0b0b0024 	bleq	2c0eec <shift+0x2c0eec>
     e58:	0e030b3e 	vmoveq.16	d3[0], r0
     e5c:	24030000 	strcs	r0, [r3], #-0
     e60:	3e0b0b00 	vmlacc.f64	d0, d11, d0
     e64:	0008030b 	andeq	r0, r8, fp, lsl #6
     e68:	01010400 	tsteq	r1, r0, lsl #8
     e6c:	13011349 	movwne	r1, #4937	; 0x1349
     e70:	21050000 	mrscs	r0, (UNDEF: 5)
     e74:	2f134900 	svccs	0x00134900
     e78:	0600000b 	streq	r0, [r0], -fp
     e7c:	0e030034 	mcreq	0, 0, r0, cr3, cr4, {1}
     e80:	0b3b0b3a 	bleq	ec3b70 <shift+0xec3b70>
     e84:	193f1349 	ldmdbne	pc!, {r0, r3, r6, r8, r9, ip}	; <UNPREDICTABLE>
     e88:	00001802 	andeq	r1, r0, r2, lsl #16
     e8c:	3f012e07 	svccc	0x00012e07
     e90:	3a0e0319 	bcc	381afc <shift+0x381afc>
     e94:	270b3b0b 	strcs	r3, [fp, -fp, lsl #22]
     e98:	11134919 	tstne	r3, r9, lsl r9
     e9c:	40061201 	andmi	r1, r6, r1, lsl #4
     ea0:	19429718 	stmdbne	r2, {r3, r4, r8, r9, sl, ip, pc}^
     ea4:	00001301 	andeq	r1, r0, r1, lsl #6
     ea8:	03000508 	movweq	r0, #1288	; 0x508
     eac:	3b0b3a0e 	blcc	2cf6ec <shift+0x2cf6ec>
     eb0:	0213490b 	andseq	r4, r3, #180224	; 0x2c000
     eb4:	09000017 	stmdbeq	r0, {r0, r1, r2, r4}
     eb8:	08030034 	stmdaeq	r3, {r2, r4, r5}
     ebc:	0b3b0b3a 	bleq	ec3bac <shift+0xec3bac>
     ec0:	18021349 	stmdane	r2, {r0, r3, r6, r8, r9, ip}
     ec4:	890a0000 	stmdbhi	sl, {}	; <UNPREDICTABLE>
     ec8:	11010182 	smlabbne	r1, r2, r1, r0
     ecc:	01133101 	tsteq	r3, r1, lsl #2
     ed0:	0b000013 	bleq	f24 <shift+0xf24>
     ed4:	0001828a 	andeq	r8, r1, sl, lsl #5
     ed8:	42911802 	addsmi	r1, r1, #131072	; 0x20000
     edc:	0c000018 	stceq	0, cr0, [r0], {24}
     ee0:	01018289 	smlabbeq	r1, r9, r2, r8
     ee4:	13310111 	teqne	r1, #1073741828	; 0x40000004
     ee8:	260d0000 	strcs	r0, [sp], -r0
     eec:	00134900 	andseq	r4, r3, r0, lsl #18
     ef0:	00050e00 	andeq	r0, r5, r0, lsl #28
     ef4:	0b3a0803 	bleq	e82f08 <shift+0xe82f08>
     ef8:	13490b3b 	movtne	r0, #39739	; 0x9b3b
     efc:	00001702 	andeq	r1, r0, r2, lsl #14
     f00:	0300340f 	movweq	r3, #1039	; 0x40f
     f04:	3b0b3a08 	blcc	2cf72c <shift+0x2cf72c>
     f08:	0213490b 	andseq	r4, r3, #180224	; 0x2c000
     f0c:	10000017 	andne	r0, r0, r7, lsl r0
     f10:	00018289 	andeq	r8, r1, r9, lsl #5
     f14:	13310111 	teqne	r1, #1073741828	; 0x40000004
     f18:	0f110000 	svceq	0x00110000
     f1c:	490b0b00 	stmdbmi	fp, {r8, r9, fp}
     f20:	12000013 	andne	r0, r0, #19
     f24:	193f012e 	ldmdbne	pc!, {r1, r2, r3, r5, r8}	; <UNPREDICTABLE>
     f28:	0b3a0e03 	bleq	e8473c <shift+0xe8473c>
     f2c:	19270b3b 	stmdbne	r7!, {r0, r1, r3, r4, r5, r8, r9, fp}
     f30:	0b201349 	bleq	805c5c <shift+0x805c5c>
     f34:	00001301 	andeq	r1, r0, r1, lsl #6
     f38:	03000513 	movweq	r0, #1299	; 0x513
     f3c:	3b0b3a08 	blcc	2cf764 <shift+0x2cf764>
     f40:	0013490b 	andseq	r4, r3, fp, lsl #18
     f44:	00051400 	andeq	r1, r5, r0, lsl #8
     f48:	0b3a0e03 	bleq	e8475c <shift+0xe8475c>
     f4c:	13490b3b 	movtne	r0, #39739	; 0x9b3b
     f50:	05150000 	ldreq	r0, [r5, #-0]
     f54:	3a0e0300 	bcc	381b5c <shift+0x381b5c>
     f58:	490b3b0b 	stmdbmi	fp, {r0, r1, r3, r8, r9, fp, ip, sp}
     f5c:	00180213 	andseq	r0, r8, r3, lsl r2
     f60:	00341600 	eorseq	r1, r4, r0, lsl #12
     f64:	0b3a0e03 	bleq	e84778 <shift+0xe84778>
     f68:	13490b3b 	movtne	r0, #39739	; 0x9b3b
     f6c:	00001702 	andeq	r1, r0, r2, lsl #14
     f70:	31011d17 	tstcc	r1, r7, lsl sp
     f74:	12011113 	andne	r1, r1, #-1073741820	; 0xc0000004
     f78:	590b5806 	stmdbpl	fp, {r1, r2, fp, ip, lr}
     f7c:	1800000b 	stmdane	r0, {r0, r1, r3}
     f80:	13310005 	teqne	r1, #5
     f84:	2e190000 	cdpcs	0, 1, cr0, cr9, cr0, {0}
     f88:	3a0e0301 	bcc	381b94 <shift+0x381b94>
     f8c:	270b3b0b 	strcs	r3, [fp, -fp, lsl #22]
     f90:	20134919 	andscs	r4, r3, r9, lsl r9
     f94:	0013010b 	andseq	r0, r3, fp, lsl #2
     f98:	012e1a00 			; <UNDEFINED> instruction: 0x012e1a00
     f9c:	01111331 	tsteq	r1, r1, lsr r3
     fa0:	18400612 	stmdane	r0, {r1, r4, r9, sl}^
     fa4:	01194297 			; <UNDEFINED> instruction: 0x01194297
     fa8:	1b000013 	blne	ffc <shift+0xffc>
     fac:	13310005 	teqne	r1, #5
     fb0:	00001702 	andeq	r1, r0, r2, lsl #14
     fb4:	3100051c 	tstcc	r0, ip, lsl r5
     fb8:	00180213 	andseq	r0, r8, r3, lsl r2
     fbc:	010b1d00 	tsteq	fp, r0, lsl #26
     fc0:	06120111 			; <UNDEFINED> instruction: 0x06120111
     fc4:	00001301 	andeq	r1, r0, r1, lsl #6
     fc8:	0182891e 	orreq	r8, r2, lr, lsl r9
     fcc:	95011101 	strls	r1, [r1, #-257]	; 0xfffffeff
     fd0:	13311942 	teqne	r1, #1081344	; 0x108000
     fd4:	2e1f0000 	cdpcs	0, 1, cr0, cr15, cr0, {0}
     fd8:	3c193f00 	ldccc	15, cr3, [r9], {-0}
     fdc:	030e6e19 	movweq	r6, #60953	; 0xee19
     fe0:	3b0b3a0e 	blcc	2cf820 <shift+0x2cf820>
     fe4:	0000000b 	andeq	r0, r0, fp
     fe8:	25011101 	strcs	r1, [r1, #-257]	; 0xfffffeff
     fec:	030b130e 	movweq	r1, #45838	; 0xb30e
     ff0:	110e1b0e 	tstne	lr, lr, lsl #22
     ff4:	10061201 	andne	r1, r6, r1, lsl #4
     ff8:	02000017 	andeq	r0, r0, #23
     ffc:	0b0b0024 	bleq	2c1094 <shift+0x2c1094>
    1000:	0e030b3e 	vmoveq.16	d3[0], r0
    1004:	16030000 	strne	r0, [r3], -r0
    1008:	3a080300 	bcc	201c10 <shift+0x201c10>
    100c:	490b3b0b 	stmdbmi	fp, {r0, r1, r3, r8, r9, fp, ip, sp}
    1010:	04000013 	streq	r0, [r0], #-19	; 0xffffffed
    1014:	0b0b0024 	bleq	2c10ac <shift+0x2c10ac>
    1018:	08030b3e 	stmdaeq	r3, {r1, r2, r3, r4, r5, r8, r9, fp}
    101c:	16050000 	strne	r0, [r5], -r0
    1020:	3a0e0300 	bcc	381c28 <shift+0x381c28>
    1024:	490b3b0b 	stmdbmi	fp, {r0, r1, r3, r8, r9, fp, ip, sp}
    1028:	06000013 			; <UNDEFINED> instruction: 0x06000013
    102c:	13490035 	movtne	r0, #36917	; 0x9035
    1030:	26070000 	strcs	r0, [r7], -r0
    1034:	00134900 	andseq	r4, r3, r0, lsl #18
    1038:	01040800 	tsteq	r4, r0, lsl #16
    103c:	0b0b0e03 	bleq	2c4850 <shift+0x2c4850>
    1040:	0b3a1349 	bleq	e85d6c <shift+0xe85d6c>
    1044:	13010b3b 	movwne	r0, #6971	; 0x1b3b
    1048:	28090000 	stmdacs	r9, {}	; <UNPREDICTABLE>
    104c:	1c0e0300 	stcne	3, cr0, [lr], {-0}
    1050:	0a00000d 	beq	108c <shift+0x108c>
    1054:	0e030028 	cdpeq	0, 0, cr0, cr3, cr8, {1}
    1058:	00000b1c 	andeq	r0, r0, ip, lsl fp
    105c:	0b01130b 	bleq	45c90 <shift+0x45c90>
    1060:	3b0b3a0b 	blcc	2cf894 <shift+0x2cf894>
    1064:	00130105 	andseq	r0, r3, r5, lsl #2
    1068:	000d0c00 	andeq	r0, sp, r0, lsl #24
    106c:	0b3a0803 	bleq	e83080 <shift+0xe83080>
    1070:	1349053b 	movtne	r0, #38203	; 0x953b
    1074:	00000b38 	andeq	r0, r0, r8, lsr fp
    1078:	03000d0d 	movweq	r0, #3341	; 0xd0d
    107c:	3b0b3a0e 	blcc	2cf8bc <shift+0x2cf8bc>
    1080:	38134905 	ldmdacc	r3, {r0, r2, r8, fp, lr}
    1084:	0e00000b 	cdpeq	0, 0, cr0, cr0, cr11, {0}
    1088:	0e030016 	mcreq	0, 0, r0, cr3, cr6, {0}
    108c:	053b0b3a 	ldreq	r0, [fp, #-2874]!	; 0xfffff4c6
    1090:	00001349 	andeq	r1, r0, r9, asr #6
    1094:	4901010f 	stmdbmi	r1, {r0, r1, r2, r3, r8}
    1098:	00130113 	andseq	r0, r3, r3, lsl r1
    109c:	00211000 	eoreq	r1, r1, r0
    10a0:	0b2f1349 	bleq	bc5dcc <shift+0xbc5dcc>
    10a4:	13110000 	tstne	r1, #0
    10a8:	0b0e0301 	bleq	381cb4 <shift+0x381cb4>
    10ac:	3b0b3a0b 	blcc	2cf8e0 <shift+0x2cf8e0>
    10b0:	0013010b 	andseq	r0, r3, fp, lsl #2
    10b4:	000d1200 	andeq	r1, sp, r0, lsl #4
    10b8:	0b3a0e03 	bleq	e848cc <shift+0xe848cc>
    10bc:	13490b3b 	movtne	r0, #39739	; 0x9b3b
    10c0:	00000b38 	andeq	r0, r0, r8, lsr fp
    10c4:	0b011313 	bleq	45d18 <shift+0x45d18>
    10c8:	3b0b3a0b 	blcc	2cf8fc <shift+0x2cf8fc>
    10cc:	0013010b 	andseq	r0, r3, fp, lsl #2
    10d0:	000f1400 	andeq	r1, pc, r0, lsl #8
    10d4:	00000b0b 	andeq	r0, r0, fp, lsl #22
    10d8:	3f012e15 	svccc	0x00012e15
    10dc:	3a0e0319 	bcc	381d48 <shift+0x381d48>
    10e0:	270b3b0b 	strcs	r3, [fp, -fp, lsl #22]
    10e4:	12011119 	andne	r1, r1, #1073741830	; 0x40000006
    10e8:	97184006 	ldrls	r4, [r8, -r6]
    10ec:	13011942 	movwne	r1, #6466	; 0x1942
    10f0:	05160000 	ldreq	r0, [r6, #-0]
    10f4:	3a080300 	bcc	201cfc <shift+0x201cfc>
    10f8:	490b3b0b 	stmdbmi	fp, {r0, r1, r3, r8, r9, fp, ip, sp}
    10fc:	00170213 	andseq	r0, r7, r3, lsl r2
    1100:	00051700 	andeq	r1, r5, r0, lsl #14
    1104:	0b3a0e03 	bleq	e84918 <shift+0xe84918>
    1108:	13490b3b 	movtne	r0, #39739	; 0x9b3b
    110c:	00001702 	andeq	r1, r0, r2, lsl #14
    1110:	03003418 	movweq	r3, #1048	; 0x418
    1114:	3b0b3a0e 	blcc	2cf954 <shift+0x2cf954>
    1118:	0213490b 	andseq	r4, r3, #180224	; 0x2c000
    111c:	19000018 	stmdbne	r0, {r3, r4}
    1120:	01018289 	smlabbeq	r1, r9, r2, r8
    1124:	13310111 	teqne	r1, #1073741828	; 0x40000004
    1128:	00001301 	andeq	r1, r0, r1, lsl #6
    112c:	01828a1a 	orreq	r8, r2, sl, lsl sl
    1130:	91180200 	tstls	r8, r0, lsl #4
    1134:	00001842 	andeq	r1, r0, r2, asr #16
    1138:	0182891b 	orreq	r8, r2, fp, lsl r9
    113c:	31011101 	tstcc	r1, r1, lsl #2
    1140:	1c000013 	stcne	0, cr0, [r0], {19}
    1144:	0e030034 	mcreq	0, 0, r0, cr3, cr4, {1}
    1148:	0b3b0b3a 	bleq	ec3e38 <shift+0xec3e38>
    114c:	061c1349 	ldreq	r1, [ip], -r9, asr #6
    1150:	1d1d0000 	ldcne	0, cr0, [sp, #-0]
    1154:	52133101 	andspl	r3, r3, #1073741824	; 0x40000000
    1158:	58175501 	ldmdapl	r7, {r0, r8, sl, ip, lr}
    115c:	010b590b 	tsteq	fp, fp, lsl #18
    1160:	1e000013 	mcrne	0, 0, r0, cr0, cr3, {0}
    1164:	13310005 	teqne	r1, #5
    1168:	0000061c 	andeq	r0, r0, ip, lsl r6
    116c:	3100051f 	tstcc	r0, pc, lsl r5
    1170:	00170213 	andseq	r0, r7, r3, lsl r2
    1174:	82892000 	addhi	r2, r9, #0
    1178:	01110101 	tsteq	r1, r1, lsl #2
    117c:	31194295 			; <UNDEFINED> instruction: 0x31194295
    1180:	21000013 	tstcs	r0, r3, lsl r0
    1184:	0b0b000f 	bleq	2c11c8 <shift+0x2c11c8>
    1188:	00001349 	andeq	r1, r0, r9, asr #6
    118c:	3f012e22 	svccc	0x00012e22
    1190:	3a0e0319 	bcc	381dfc <shift+0x381dfc>
    1194:	270b3b0b 	strcs	r3, [fp, -fp, lsl #22]
    1198:	11134919 	tstne	r3, r9, lsl r9
    119c:	40061201 	andmi	r1, r6, r1, lsl #4
    11a0:	19429718 	stmdbne	r2, {r3, r4, r8, r9, sl, ip, pc}^
    11a4:	00001301 	andeq	r1, r0, r1, lsl #6
    11a8:	03003423 	movweq	r3, #1059	; 0x423
    11ac:	3b0b3a0e 	blcc	2cf9ec <shift+0x2cf9ec>
    11b0:	0213490b 	andseq	r4, r3, #180224	; 0x2c000
    11b4:	24000017 	strcs	r0, [r0], #-23	; 0xffffffe9
    11b8:	0e03012e 	adfeqsp	f0, f3, #0.5
    11bc:	053b0b3a 	ldreq	r0, [fp, #-2874]!	; 0xfffff4c6
    11c0:	0b201927 	bleq	807664 <shift+0x807664>
    11c4:	00001301 	andeq	r1, r0, r1, lsl #6
    11c8:	03000525 	movweq	r0, #1317	; 0x525
    11cc:	3b0b3a0e 	blcc	2cfa0c <shift+0x2cfa0c>
    11d0:	00134905 	andseq	r4, r3, r5, lsl #18
    11d4:	002e2600 	eoreq	r2, lr, r0, lsl #12
    11d8:	193c193f 	ldmdbne	ip!, {r0, r1, r2, r3, r4, r5, r8, fp, ip}
    11dc:	0e030e6e 	cdpeq	14, 0, cr0, cr3, cr14, {3}
    11e0:	0b3b0b3a 	bleq	ec3ed0 <shift+0xec3ed0>
    11e4:	01000000 	mrseq	r0, (UNDEF: 0)
    11e8:	06100011 			; <UNDEFINED> instruction: 0x06100011
    11ec:	01120111 	tsteq	r2, r1, lsl r1
    11f0:	081b0803 	ldmdaeq	fp, {r0, r1, fp}
    11f4:	05130825 	ldreq	r0, [r3, #-2085]	; 0xfffff7db
    11f8:	01000000 	mrseq	r0, (UNDEF: 0)
    11fc:	06100011 			; <UNDEFINED> instruction: 0x06100011
    1200:	01120111 	tsteq	r2, r1, lsl r1
    1204:	081b0803 	ldmdaeq	fp, {r0, r1, fp}
    1208:	05130825 	ldreq	r0, [r3, #-2085]	; 0xfffff7db
    120c:	Address 0x000000000000120c is out of bounds.


Disassembly of section .debug_aranges:

00000000 <.debug_aranges>:
   0:	0000001c 	andeq	r0, r0, ip, lsl r0
   4:	00000002 	andeq	r0, r0, r2
   8:	00040000 	andeq	r0, r4, r0
   c:	00000000 	andeq	r0, r0, r0
  10:	80100000 	andshi	r0, r0, r0
  14:	0000017c 	andeq	r0, r0, ip, ror r1
	...
  20:	0000001c 	andeq	r0, r0, ip, lsl r0
  24:	004c0002 	subeq	r0, ip, r2
  28:	00040000 	andeq	r0, r4, r0
  2c:	00000000 	andeq	r0, r0, r0
  30:	8010133c 	andshi	r1, r0, ip, lsr r3
  34:	000000d0 	ldrdeq	r0, [r0], -r0	; <UNPREDICTABLE>
	...
  40:	0000001c 	andeq	r0, r0, ip, lsl r0
  44:	068d0002 	streq	r0, [sp], r2
  48:	00040000 	andeq	r0, r4, r0
  4c:	00000000 	andeq	r0, r0, r0
  50:	8010017c 	andshi	r0, r0, ip, ror r1
  54:	0000008c 	andeq	r0, r0, ip, lsl #1
	...
  60:	0000001c 	andeq	r0, r0, ip, lsl r0
  64:	083c0002 	ldmdaeq	ip!, {r1}
  68:	00040000 	andeq	r0, r4, r0
  6c:	00000000 	andeq	r0, r0, r0
  70:	80100208 	andshi	r0, r0, r8, lsl #4
  74:	000000b2 	strheq	r0, [r0], -r2
	...
  80:	0000001c 	andeq	r0, r0, ip, lsl r0
  84:	0a560002 	beq	1580094 <shift+0x1580094>
  88:	00040000 	andeq	r0, r4, r0
  8c:	00000000 	andeq	r0, r0, r0
  90:	801002bc 			; <UNDEFINED> instruction: 0x801002bc
  94:	0000013a 	andeq	r0, r0, sl, lsr r1
	...
  a0:	0000001c 	andeq	r0, r0, ip, lsl r0
  a4:	0b500002 	bleq	14000b4 <shift+0x14000b4>
  a8:	00040000 	andeq	r0, r4, r0
  ac:	00000000 	andeq	r0, r0, r0
  b0:	801003f8 			; <UNDEFINED> instruction: 0x801003f8
  b4:	000000b2 	strheq	r0, [r0], -r2
	...
  c0:	0000001c 	andeq	r0, r0, ip, lsl r0
  c4:	0dc70002 	stcleq	0, cr0, [r7, #8]
  c8:	00040000 	andeq	r0, r4, r0
  cc:	00000000 	andeq	r0, r0, r0
  d0:	801004ac 	andshi	r0, r0, ip, lsr #9
  d4:	00000118 	andeq	r0, r0, r8, lsl r1
	...
  e0:	0000001c 	andeq	r0, r0, ip, lsl r0
  e4:	1a6c0002 	bne	1b000f4 <shift+0x1b000f4>
  e8:	00040000 	andeq	r0, r4, r0
  ec:	00000000 	andeq	r0, r0, r0
  f0:	801005c4 	andshi	r0, r0, r4, asr #11
  f4:	000000ac 	andeq	r0, r0, ip, lsr #1
	...
 100:	0000001c 	andeq	r0, r0, ip, lsl r0
 104:	206f0002 	rsbcs	r0, pc, r2
 108:	00040000 	andeq	r0, r4, r0
 10c:	00000000 	andeq	r0, r0, r0
 110:	80100670 	andshi	r0, r0, r0, ror r6
 114:	000003d8 	ldrdeq	r0, [r0], -r8
	...
 120:	0000001c 	andeq	r0, r0, ip, lsl r0
 124:	294a0002 	stmdbcs	sl, {r1}^
 128:	00040000 	andeq	r0, r4, r0
 12c:	00000000 	andeq	r0, r0, r0
 130:	80100a48 	andshi	r0, r0, r8, asr #20
 134:	0000029e 	muleq	r0, lr, r2
	...
 140:	0000001c 	andeq	r0, r0, ip, lsl r0
 144:	303a0002 	eorscc	r0, sl, r2
 148:	00040000 	andeq	r0, r4, r0
 14c:	00000000 	andeq	r0, r0, r0
 150:	80100ce8 	andshi	r0, r0, r8, ror #25
 154:	00000148 	andeq	r0, r0, r8, asr #2
	...
 160:	0000001c 	andeq	r0, r0, ip, lsl r0
 164:	33b20002 			; <UNDEFINED> instruction: 0x33b20002
 168:	00040000 	andeq	r0, r4, r0
 16c:	00000000 	andeq	r0, r0, r0
 170:	80100e30 	andshi	r0, r0, r0, lsr lr
 174:	00000282 	andeq	r0, r0, r2, lsl #5
	...
 180:	0000001c 	andeq	r0, r0, ip, lsl r0
 184:	402e0002 	eormi	r0, lr, r2
 188:	00040000 	andeq	r0, r4, r0
 18c:	00000000 	andeq	r0, r0, r0
 190:	801010b8 	ldrhhi	r1, [r0], -r8
 194:	00000276 	andeq	r0, r0, r6, ror r2
	...
 1a0:	0000001c 	andeq	r0, r0, ip, lsl r0
 1a4:	41ed0002 	mvnmi	r0, r2
 1a8:	00040000 	andeq	r0, r4, r0
 1ac:	00000000 	andeq	r0, r0, r0
 1b0:	80101330 	andshi	r1, r0, r0, lsr r3
 1b4:	0000000c 	andeq	r0, r0, ip
	...

Disassembly of section .debug_loc:

00000000 <.debug_loc>:
       0:	8010139e 	mulshi	r0, lr, r3
       4:	801013a2 	andshi	r1, r0, r2, lsr #7
       8:	a2500001 	subsge	r0, r0, #1
       c:	ae801013 	mcrge	0, 4, r1, cr0, cr3, {0}
      10:	01801013 	orreq	r1, r0, r3, lsl r0
      14:	13b45800 			; <UNDEFINED> instruction: 0x13b45800
      18:	13be8010 			; <UNDEFINED> instruction: 0x13be8010
      1c:	00018010 	andeq	r8, r1, r0, lsl r0
      20:	1013be50 	andsne	fp, r3, r0, asr lr
      24:	10140c80 	andsne	r0, r4, r0, lsl #25
      28:	58000180 	stmdapl	r0, {r7, r8}
	...
      34:	8010139c 	mulshi	r0, ip, r3
      38:	8010139e 	mulshi	r0, lr, r3
      3c:	63080003 	movwvs	r0, #32771	; 0x8003
      40:	10139e9f 	mulsne	r3, pc, lr	; <UNPREDICTABLE>
      44:	1013aa80 	andsne	sl, r3, r0, lsl #21
      48:	74000380 	strvc	r0, [r0], #-896	; 0xfffffc80
      4c:	13aa9f7f 			; <UNDEFINED> instruction: 0x13aa9f7f
      50:	13ac8010 			; <UNDEFINED> instruction: 0x13ac8010
      54:	00038010 	andeq	r8, r3, r0, lsl r0
      58:	ac9f7e74 	ldcge	14, cr7, [pc], {116}	; 0x74
      5c:	00801013 	addeq	r1, r0, r3, lsl r0
      60:	03801014 	orreq	r1, r0, #20
      64:	9f7f7400 	svcls	0x007f7400
      68:	80101400 	andshi	r1, r0, r0, lsl #8
      6c:	80101402 	andshi	r1, r0, r2, lsl #8
      70:	7e740003 	cdpvc	0, 7, cr0, cr4, cr3, {0}
      74:	1014029f 	mulsne	r4, pc, r2	; <UNPREDICTABLE>
      78:	10140480 	andsne	r0, r4, r0, lsl #9
      7c:	74000380 	strvc	r0, [r0], #-896	; 0xfffffc80
      80:	00009f7f 	andeq	r9, r0, pc, ror pc
      84:	00000000 	andeq	r0, r0, r0
      88:	00a80000 	adceq	r0, r8, r0
      8c:	00aa0000 	adceq	r0, sl, r0
      90:	00010000 	andeq	r0, r1, r0
      94:	0000aa50 	andeq	sl, r0, r0, asr sl
      98:	0000b200 	andeq	fp, r0, r0, lsl #4
      9c:	f3000400 	vshl.u8	d0, d0, d0
      a0:	009f5001 	addseq	r5, pc, r1
      a4:	00000000 	andeq	r0, r0, r0
      a8:	90000000 	andls	r0, r0, r0
      ac:	9a000000 	bls	b4 <shift+0xb4>
      b0:	01000000 	mrseq	r0, (UNDEF: 0)
      b4:	009a5200 	addseq	r5, sl, r0, lsl #4
      b8:	00a80000 	adceq	r0, r8, r0
      bc:	00040000 	andeq	r0, r4, r0
      c0:	9f5201f3 	svcls	0x005201f3
	...
      cc:	00000054 	andeq	r0, r0, r4, asr r0
      d0:	0000005c 	andeq	r0, r0, ip, asr r0
      d4:	5c510001 	mrrcpl	0, 0, r0, r1, cr1
      d8:	60000000 	andvs	r0, r0, r0
      dc:	03000000 	movweq	r0, #0
      e0:	9f107100 	svcls	0x00107100
      e4:	00000060 	andeq	r0, r0, r0, rrx
      e8:	00000076 	andeq	r0, r0, r6, ror r0
      ec:	01f30004 	mvnseq	r0, r4
      f0:	00769f51 	rsbseq	r9, r6, r1, asr pc
      f4:	00780000 	rsbseq	r0, r8, r0
      f8:	00010000 	andeq	r0, r1, r0
      fc:	00007851 	andeq	r7, r0, r1, asr r8
     100:	00009000 	andeq	r9, r0, r0
     104:	f3000400 	vshl.u8	d0, d0, d0
     108:	009f5101 	addseq	r5, pc, r1, lsl #2
     10c:	00000000 	andeq	r0, r0, r0
     110:	54000000 	strpl	r0, [r0], #-0
     114:	5c000000 	stcpl	0, cr0, [r0], {-0}
     118:	03000000 	movweq	r0, #0
     11c:	9f707100 	svcls	0x00707100
     120:	0000005c 	andeq	r0, r0, ip, asr r0
     124:	00000060 	andeq	r0, r0, r0, rrx
     128:	60510001 	subsvs	r0, r1, r1
     12c:	76000000 	strvc	r0, [r0], -r0
     130:	06000000 	streq	r0, [r0], -r0
     134:	5101f300 	mrspl	pc, SP_irq	; <UNPREDICTABLE>
     138:	769f1c40 	ldrvc	r1, [pc], r0, asr #24
     13c:	78000000 	stmdavc	r0, {}	; <UNPREDICTABLE>
     140:	03000000 	movweq	r0, #0
     144:	9f707100 	svcls	0x00707100
     148:	00000078 	andeq	r0, r0, r8, ror r0
     14c:	00000090 	muleq	r0, r0, r0
     150:	01f30006 	mvnseq	r0, r6
     154:	9f1c4051 	svcls	0x001c4051
	...
     164:	00000038 	andeq	r0, r0, r8, lsr r0
     168:	38500001 	ldmdacc	r0, {r0}^
     16c:	3c000000 	stccc	0, cr0, [r0], {-0}
     170:	04000000 	streq	r0, [r0], #-0
     174:	5001f300 	andpl	pc, r1, r0, lsl #6
     178:	00003c9f 	muleq	r0, pc, ip	; <UNPREDICTABLE>
     17c:	00004800 	andeq	r4, r0, r0, lsl #16
     180:	50000100 	andpl	r0, r0, r0, lsl #2
     184:	00000048 	andeq	r0, r0, r8, asr #32
     188:	0000004a 	andeq	r0, r0, sl, asr #32
     18c:	01f30004 	mvnseq	r0, r4
     190:	004a9f50 	subeq	r9, sl, r0, asr pc
     194:	00500000 	subseq	r0, r0, r0
     198:	00010000 	andeq	r0, r1, r0
     19c:	00005050 	andeq	r5, r0, r0, asr r0
     1a0:	00005200 	andeq	r5, r0, r0, lsl #4
     1a4:	f3000400 	vshl.u8	d0, d0, d0
     1a8:	009f5001 	addseq	r5, pc, r1
	...
     1b4:	20000000 	andcs	r0, r0, r0
     1b8:	01000000 	mrseq	r0, (UNDEF: 0)
     1bc:	00205100 	eoreq	r5, r0, r0, lsl #2
     1c0:	003c0000 	eorseq	r0, ip, r0
     1c4:	00040000 	andeq	r0, r4, r0
     1c8:	9f5101f3 	svcls	0x005101f3
     1cc:	0000003c 	andeq	r0, r0, ip, lsr r0
     1d0:	00000052 	andeq	r0, r0, r2, asr r0
     1d4:	00510001 	subseq	r0, r1, r1
	...
     1e0:	2c000000 	stccs	0, cr0, [r0], {-0}
     1e4:	01000000 	mrseq	r0, (UNDEF: 0)
     1e8:	002c5200 	eoreq	r5, ip, r0, lsl #4
     1ec:	003c0000 	eorseq	r0, ip, r0
     1f0:	00040000 	andeq	r0, r4, r0
     1f4:	9f5201f3 	svcls	0x005201f3
     1f8:	0000003c 	andeq	r0, r0, ip, lsr r0
     1fc:	00000040 	andeq	r0, r0, r0, asr #32
     200:	40520001 	subsmi	r0, r2, r1
     204:	4a000000 	bmi	20c <shift+0x20c>
     208:	04000000 	streq	r0, [r0], #-0
     20c:	5201f300 	andpl	pc, r1, #0, 6
     210:	00004a9f 	muleq	r0, pc, sl	; <UNPREDICTABLE>
     214:	00005200 	andeq	r5, r0, r0, lsl #4
     218:	52000100 	andpl	r0, r0, #0, 2
	...
     224:	00000086 	andeq	r0, r0, r6, lsl #1
     228:	0000009c 	muleq	r0, ip, r0
     22c:	0070000f 	rsbseq	r0, r0, pc
     230:	4040400c 	submi	r4, r0, ip
     234:	1b0c1a40 	blne	306b3c <shift+0x306b3c>
     238:	21301810 	teqcs	r0, r0, lsl r8
     23c:	0000009f 	muleq	r0, pc, r0	; <UNPREDICTABLE>
     240:	00000000 	andeq	r0, r0, r0
     244:	00011a00 	andeq	r1, r1, r0, lsl #20
     248:	00012000 	andeq	r2, r1, r0
     24c:	71000f00 	tstvc	r0, r0, lsl #30
     250:	40400c00 	submi	r0, r0, r0, lsl #24
     254:	0c1a4040 	ldceq	0, cr4, [sl], {64}	; 0x40
     258:	1311100c 	tstne	r1, #12
     25c:	00009f21 	andeq	r9, r0, r1, lsr #30
     260:	00000000 	andeq	r0, r0, r0
     264:	00940000 	addseq	r0, r4, r0
     268:	009e0000 	addseq	r0, lr, r0
     26c:	00010000 	andeq	r0, r1, r0
     270:	0000a850 	andeq	sl, r0, r0, asr r8
     274:	0000ac00 	andeq	sl, r0, r0, lsl #24
     278:	50000100 	andpl	r0, r0, r0, lsl #2
     27c:	000000ac 	andeq	r0, r0, ip, lsr #1
     280:	000000b0 	strheq	r0, [r0], -r0	; <UNPREDICTABLE>
     284:	7f700003 	svcvc	0x00700003
     288:	0000009f 	muleq	r0, pc, r0	; <UNPREDICTABLE>
     28c:	00000000 	andeq	r0, r0, r0
     290:	00006c00 	andeq	r6, r0, r0, lsl #24
     294:	00007c00 	andeq	r7, r0, r0, lsl #24
     298:	50000100 	andpl	r0, r0, r0, lsl #2
     29c:	0000007c 	andeq	r0, r0, ip, ror r0
     2a0:	00000080 	andeq	r0, r0, r0, lsl #1
     2a4:	01f30004 	mvnseq	r0, r4
     2a8:	00009f50 	andeq	r9, r0, r0, asr pc
     2ac:	00000000 	andeq	r0, r0, r0
     2b0:	00a80000 	adceq	r0, r8, r0
     2b4:	00b00000 	adcseq	r0, r0, r0
     2b8:	00010000 	andeq	r0, r1, r0
     2bc:	0000b050 	andeq	fp, r0, r0, asr r0
     2c0:	0000b200 	andeq	fp, r0, r0, lsl #4
     2c4:	f3000400 	vshl.u8	d0, d0, d0
     2c8:	b29f5001 	addslt	r5, pc, #1
     2cc:	d2000000 	andle	r0, r0, #0
     2d0:	01000000 	mrseq	r0, (UNDEF: 0)
     2d4:	00d25000 	sbcseq	r5, r2, r0
     2d8:	00e40000 	rsceq	r0, r4, r0
     2dc:	00040000 	andeq	r0, r4, r0
     2e0:	9f5001f3 	svcls	0x005001f3
	...
     2ec:	000000a8 	andeq	r0, r0, r8, lsr #1
     2f0:	000000cc 	andeq	r0, r0, ip, asr #1
     2f4:	cc510001 	mrrcgt	0, 0, r0, r1, cr1
     2f8:	d2000000 	andle	r0, r0, #0
     2fc:	0a000000 	beq	304 <shift+0x304>
     300:	33007000 	movwcc	r7, #0
     304:	17140324 	ldrne	r0, [r4, -r4, lsr #6]
     308:	d2228010 	eorle	r8, r2, #16
     30c:	e4000000 	str	r0, [r0], #-0
     310:	0b000000 	bleq	318 <shift+0x318>
     314:	5001f300 	andpl	pc, r1, r0, lsl #6
     318:	14032433 	strne	r2, [r3], #-1075	; 0xfffffbcd
     31c:	22801017 	addcs	r1, r0, #23
	...
     328:	000000a8 	andeq	r0, r0, r8, lsr #1
     32c:	000000ce 	andeq	r0, r0, lr, asr #1
     330:	ce520001 	cdpgt	0, 5, cr0, cr2, cr1, {0}
     334:	d6000000 	strle	r0, [r0], -r0
     338:	02000000 	andeq	r0, r0, #0
     33c:	d6047400 	strle	r7, [r4], -r0, lsl #8
     340:	e4000000 	str	r0, [r0], #-0
     344:	0b000000 	bleq	34c <shift+0x34c>
     348:	5001f300 	andpl	pc, r1, r0, lsl #6
     34c:	18032433 	stmdane	r3, {r0, r1, r4, r5, sl, sp}
     350:	22801017 	addcs	r1, r0, #23
	...
     35c:	000000a8 	andeq	r0, r0, r8, lsr #1
     360:	000000c6 	andeq	r0, r0, r6, asr #1
     364:	00520001 	subseq	r0, r2, r1
     368:	00000000 	andeq	r0, r0, r0
     36c:	a8000000 	stmdage	r0, {}	; <UNPREDICTABLE>
     370:	c6000000 	strgt	r0, [r0], -r0
     374:	01000000 	mrseq	r0, (UNDEF: 0)
     378:	00005100 	andeq	r5, r0, r0, lsl #2
     37c:	00000000 	andeq	r0, r0, r0
     380:	00a80000 	adceq	r0, r8, r0
     384:	00b00000 	adcseq	r0, r0, r0
     388:	00010000 	andeq	r0, r1, r0
     38c:	0000b050 	andeq	fp, r0, r0, asr r0
     390:	0000b200 	andeq	fp, r0, r0, lsl #4
     394:	f3000400 	vshl.u8	d0, d0, d0
     398:	b29f5001 	addslt	r5, pc, #1
     39c:	c6000000 	strgt	r0, [r0], -r0
     3a0:	01000000 	mrseq	r0, (UNDEF: 0)
     3a4:	00005000 	andeq	r5, r0, r0
     3a8:	00000000 	andeq	r0, r0, r0
     3ac:	00c60000 	sbceq	r0, r6, r0
     3b0:	00d20000 	sbcseq	r0, r2, r0
     3b4:	00010000 	andeq	r0, r1, r0
     3b8:	0000d250 	andeq	sp, r0, r0, asr r2
     3bc:	0000e200 	andeq	lr, r0, r0, lsl #4
     3c0:	f3000400 	vshl.u8	d0, d0, d0
     3c4:	009f5001 	addseq	r5, pc, r1
     3c8:	00000000 	andeq	r0, r0, r0
     3cc:	54000000 	strpl	r0, [r0], #-0
     3d0:	66000000 	strvs	r0, [r0], -r0
     3d4:	01000000 	mrseq	r0, (UNDEF: 0)
     3d8:	00665300 	rsbeq	r5, r6, r0, lsl #6
     3dc:	00700000 	rsbseq	r0, r0, r0
     3e0:	00040000 	andeq	r0, r4, r0
     3e4:	9f77a172 	svcls	0x0077a172
	...
     3f0:	00000054 	andeq	r0, r0, r4, asr r0
     3f4:	00000086 	andeq	r0, r0, r6, lsl #1
     3f8:	00510001 	subseq	r0, r1, r1
     3fc:	00000000 	andeq	r0, r0, r0
     400:	20000000 	andcs	r0, r0, r0
     404:	2c000000 	stccs	0, cr0, [r0], {-0}
     408:	01000000 	mrseq	r0, (UNDEF: 0)
     40c:	002c5000 	eoreq	r5, ip, r0
     410:	003a0000 	eorseq	r0, sl, r0
     414:	00040000 	andeq	r0, r4, r0
     418:	9f5001f3 	svcls	0x005001f3
	...
     424:	00000004 	andeq	r0, r0, r4
     428:	00000010 	andeq	r0, r0, r0, lsl r0
     42c:	10500001 	subsne	r0, r0, r1
     430:	1e000000 	cdpne	0, 0, cr0, cr0, cr0, {0}
     434:	04000000 	streq	r0, [r0], #-0
     438:	5001f300 	andpl	pc, r1, r0, lsl #6
     43c:	0000009f 	muleq	r0, pc, r0	; <UNPREDICTABLE>
     440:	00000000 	andeq	r0, r0, r0
     444:	00004400 	andeq	r4, r0, r0, lsl #8
     448:	00004800 	andeq	r4, r0, r0, lsl #16
     44c:	50000100 	andpl	r0, r0, r0, lsl #2
     450:	00000048 	andeq	r0, r0, r8, asr #32
     454:	000000ac 	andeq	r0, r0, ip, lsr #1
     458:	01f30004 	mvnseq	r0, r4
     45c:	00009f50 	andeq	r9, r0, r0, asr pc
     460:	00000000 	andeq	r0, r0, r0
     464:	00440000 	subeq	r0, r4, r0
     468:	004d0000 	subeq	r0, sp, r0
     46c:	00010000 	andeq	r0, r1, r0
     470:	00004d51 	andeq	r4, r0, r1, asr sp
     474:	0000ac00 	andeq	sl, r0, r0, lsl #24
     478:	f3000400 	vshl.u8	d0, d0, d0
     47c:	009f5101 	addseq	r5, pc, r1, lsl #2
     480:	00000000 	andeq	r0, r0, r0
     484:	bc000000 	stclt	0, cr0, [r0], {-0}
     488:	d3000003 	movwle	r0, #3
     48c:	01000003 	tsteq	r0, r3
     490:	03d35000 	bicseq	r5, r3, #0
     494:	03d80000 	bicseq	r0, r8, #0
     498:	00040000 	andeq	r0, r4, r0
     49c:	9f5001f3 	svcls	0x005001f3
	...
     4a8:	000003bc 			; <UNDEFINED> instruction: 0x000003bc
     4ac:	000003c6 	andeq	r0, r0, r6, asr #7
     4b0:	c6510001 	ldrbgt	r0, [r1], -r1
     4b4:	d8000003 	stmdale	r0, {r0, r1}
     4b8:	04000003 	streq	r0, [r0], #-3
     4bc:	5101f300 	mrspl	pc, SP_irq	; <UNPREDICTABLE>
     4c0:	0000009f 	muleq	r0, pc, r0	; <UNPREDICTABLE>
     4c4:	00000000 	andeq	r0, r0, r0
     4c8:	0003bc00 	andeq	fp, r3, r0, lsl #24
     4cc:	0003d300 	andeq	sp, r3, r0, lsl #6
     4d0:	52000100 	andpl	r0, r0, #0, 2
     4d4:	000003d3 	ldrdeq	r0, [r0], -r3
     4d8:	000003d8 	ldrdeq	r0, [r0], -r8
     4dc:	01f30004 	mvnseq	r0, r4
     4e0:	00009f52 	andeq	r9, r0, r2, asr pc
     4e4:	00000000 	andeq	r0, r0, r0
     4e8:	03bc0000 			; <UNDEFINED> instruction: 0x03bc0000
     4ec:	03d30000 	bicseq	r0, r3, #0
     4f0:	00010000 	andeq	r0, r1, r0
     4f4:	0003d353 	andeq	sp, r3, r3, asr r3
     4f8:	0003d800 	andeq	sp, r3, r0, lsl #16
     4fc:	f3000400 	vshl.u8	d0, d0, d0
     500:	009f5301 	addseq	r5, pc, r1, lsl #6
     504:	00000000 	andeq	r0, r0, r0
     508:	98000000 	stmdals	r0, {}	; <UNPREDICTABLE>
     50c:	b7000003 	strlt	r0, [r0, -r3]
     510:	01000003 	tsteq	r0, r3
     514:	03b75000 			; <UNDEFINED> instruction: 0x03b75000
     518:	03bc0000 			; <UNDEFINED> instruction: 0x03bc0000
     51c:	00040000 	andeq	r0, r4, r0
     520:	9f5001f3 	svcls	0x005001f3
	...
     52c:	00000398 	muleq	r0, r8, r3
     530:	000003a6 	andeq	r0, r0, r6, lsr #7
     534:	a6510001 	ldrbge	r0, [r1], -r1
     538:	bc000003 	stclt	0, cr0, [r0], {3}
     53c:	04000003 	streq	r0, [r0], #-3
     540:	5101f300 	mrspl	pc, SP_irq	; <UNPREDICTABLE>
     544:	0000009f 	muleq	r0, pc, r0	; <UNPREDICTABLE>
     548:	00000000 	andeq	r0, r0, r0
     54c:	00039800 	andeq	r9, r3, r0, lsl #16
     550:	0003b700 	andeq	fp, r3, r0, lsl #14
     554:	52000100 	andpl	r0, r0, #0, 2
     558:	000003b7 			; <UNDEFINED> instruction: 0x000003b7
     55c:	000003bc 			; <UNDEFINED> instruction: 0x000003bc
     560:	01f30004 	mvnseq	r0, r4
     564:	00009f52 	andeq	r9, r0, r2, asr pc
     568:	00000000 	andeq	r0, r0, r0
     56c:	03980000 	orrseq	r0, r8, #0
     570:	03b70000 			; <UNDEFINED> instruction: 0x03b70000
     574:	00010000 	andeq	r0, r1, r0
     578:	0003b753 	andeq	fp, r3, r3, asr r7
     57c:	0003bc00 	andeq	fp, r3, r0, lsl #24
     580:	f3000400 	vshl.u8	d0, d0, d0
     584:	009f5301 	addseq	r5, pc, r1, lsl #6
     588:	00000000 	andeq	r0, r0, r0
     58c:	c8000000 	stmdagt	r0, {}	; <UNPREDICTABLE>
     590:	e6000002 	str	r0, [r0], -r2
     594:	01000002 	tsteq	r0, r2
     598:	02e65000 	rsceq	r5, r6, #0
     59c:	037e0000 	cmneq	lr, #0
     5a0:	00010000 	andeq	r0, r1, r0
     5a4:	00037e54 	andeq	r7, r3, r4, asr lr
     5a8:	00038100 	andeq	r8, r3, r0, lsl #2
     5ac:	50000100 	andpl	r0, r0, r0, lsl #2
     5b0:	00000381 	andeq	r0, r0, r1, lsl #7
     5b4:	00000382 	andeq	r0, r0, r2, lsl #7
     5b8:	01f30004 	mvnseq	r0, r4
     5bc:	03829f50 	orreq	r9, r2, #80, 30	; 0x140
     5c0:	03940000 	orrseq	r0, r4, #0
     5c4:	00010000 	andeq	r0, r1, r0
     5c8:	00039454 	andeq	r9, r3, r4, asr r4
     5cc:	00039700 	andeq	r9, r3, r0, lsl #14
     5d0:	50000100 	andpl	r0, r0, r0, lsl #2
     5d4:	00000397 	muleq	r0, r7, r3
     5d8:	00000398 	muleq	r0, r8, r3
     5dc:	01f30004 	mvnseq	r0, r4
     5e0:	00009f50 	andeq	r9, r0, r0, asr pc
     5e4:	00000000 	andeq	r0, r0, r0
     5e8:	02c80000 	sbceq	r0, r8, #0
     5ec:	02e40000 	rsceq	r0, r4, #0
     5f0:	00010000 	andeq	r0, r1, r0
     5f4:	0002e451 	andeq	lr, r2, r1, asr r4
     5f8:	00037e00 	andeq	r7, r3, r0, lsl #28
     5fc:	56000100 	strpl	r0, [r0], -r0, lsl #2
     600:	0000037e 	andeq	r0, r0, lr, ror r3
     604:	00000382 	andeq	r0, r0, r2, lsl #7
     608:	82510001 	subshi	r0, r1, #1
     60c:	94000003 	strls	r0, [r0], #-3
     610:	01000003 	tsteq	r0, r3
     614:	03945600 	orrseq	r5, r4, #0, 12
     618:	03970000 	orrseq	r0, r7, #0
     61c:	00010000 	andeq	r0, r1, r0
     620:	00039751 	andeq	r9, r3, r1, asr r7
     624:	00039800 	andeq	r9, r3, r0, lsl #16
     628:	f3000400 	vshl.u8	d0, d0, d0
     62c:	009f5101 	addseq	r5, pc, r1, lsl #2
     630:	00000000 	andeq	r0, r0, r0
     634:	c8000000 	stmdagt	r0, {}	; <UNPREDICTABLE>
     638:	ea000002 	b	648 <shift+0x648>
     63c:	02000002 	andeq	r0, r0, #2
     640:	ea9f3000 	b	fe7cc648 <__bss_end+0x7e6caa34>
     644:	f4000002 	vst4.8	{d0-d3}, [r0], r2
     648:	01000002 	tsteq	r0, r2
     64c:	02f85000 	rscseq	r5, r8, #0
     650:	03180000 	tsteq	r8, #0
     654:	00010000 	andeq	r0, r1, r0
     658:	00031850 	andeq	r1, r3, r0, asr r8
     65c:	00031a00 	andeq	r1, r3, r0, lsl #20
     660:	30000200 	andcc	r0, r0, r0, lsl #4
     664:	00031c9f 	muleq	r3, pc, ip	; <UNPREDICTABLE>
     668:	00032400 	andeq	r2, r3, r0, lsl #8
     66c:	50000100 	andpl	r0, r0, r0, lsl #2
     670:	00000324 	andeq	r0, r0, r4, lsr #6
     674:	0000034a 	andeq	r0, r0, sl, asr #6
     678:	9f300002 	svcls	0x00300002
     67c:	0000034a 	andeq	r0, r0, sl, asr #6
     680:	0000036c 	andeq	r0, r0, ip, ror #6
     684:	6c500001 	mrrcvs	0, 0, r0, r0, cr1	; <UNPREDICTABLE>
     688:	98000003 	stmdals	r0, {r0, r1}
     68c:	02000003 	andeq	r0, r0, #3
     690:	009f3000 	addseq	r3, pc, r0
     694:	00000000 	andeq	r0, r0, r0
     698:	d2000000 	andle	r0, r0, #0
     69c:	0c000002 	stceq	0, cr0, [r0], {2}
     6a0:	01000003 	tsteq	r0, r3
     6a4:	03185500 	tsteq	r8, #0, 10
     6a8:	031a0000 	tsteq	sl, #0
     6ac:	00030000 	andeq	r0, r3, r0
     6b0:	1c9f7f75 	ldcne	15, cr7, [pc], {117}	; 0x75
     6b4:	24000003 	strcs	r0, [r0], #-3
     6b8:	01000003 	tsteq	r0, r3
     6bc:	03245500 			; <UNDEFINED> instruction: 0x03245500
     6c0:	03440000 	movteq	r0, #16384	; 0x4000
     6c4:	00030000 	andeq	r0, r3, r0
     6c8:	449f7f75 	ldrmi	r7, [pc], #3957	; 6d0 <shift+0x6d0>
     6cc:	6c000003 	stcvs	0, cr0, [r0], {3}
     6d0:	01000003 	tsteq	r0, r3
     6d4:	036c5500 	cmneq	ip, #0, 10
     6d8:	037e0000 	cmneq	lr, #0
     6dc:	00030000 	andeq	r0, r3, r0
     6e0:	829f7f75 	addshi	r7, pc, #468	; 0x1d4
     6e4:	94000003 	strls	r0, [r0], #-3
     6e8:	03000003 	movweq	r0, #3
     6ec:	9f7f7500 	svcls	0x007f7500
	...
     6f8:	000002fa 	strdeq	r0, [r0], -sl
     6fc:	00000318 	andeq	r0, r0, r8, lsl r3
     700:	00540001 	subseq	r0, r4, r1
     704:	00000000 	andeq	r0, r0, r0
     708:	4e000000 	cdpmi	0, 0, cr0, cr0, cr0, {0}
     70c:	6c000003 	stcvs	0, cr0, [r0], {3}
     710:	01000003 	tsteq	r0, r3
     714:	00005400 	andeq	r5, r0, r0, lsl #8
     718:	00000000 	andeq	r0, r0, r0
     71c:	01cc0000 	biceq	r0, ip, r0
     720:	01ea0000 	mvneq	r0, r0
     724:	00010000 	andeq	r0, r1, r0
     728:	0001ea50 	andeq	lr, r1, r0, asr sl
     72c:	00026000 	andeq	r6, r2, r0
     730:	54000100 	strpl	r0, [r0], #-256	; 0xffffff00
     734:	00000260 	andeq	r0, r0, r0, ror #4
     738:	00000262 	andeq	r0, r0, r2, ror #4
     73c:	62500001 	subsvs	r0, r0, #1
     740:	c8000002 	stmdagt	r0, {r1}
     744:	01000002 	tsteq	r0, r2
     748:	00005400 	andeq	r5, r0, r0, lsl #8
     74c:	00000000 	andeq	r0, r0, r0
     750:	01cc0000 	biceq	r0, ip, r0
     754:	01ea0000 	mvneq	r0, r0
     758:	00010000 	andeq	r0, r1, r0
     75c:	0001ea51 	andeq	lr, r1, r1, asr sl
     760:	00024e00 	andeq	r4, r2, r0, lsl #28
     764:	55000100 	strpl	r0, [r0, #-256]	; 0xffffff00
     768:	0000024e 	andeq	r0, r0, lr, asr #4
     76c:	00000250 	andeq	r0, r0, r0, asr r2
     770:	01f30004 	mvnseq	r0, r4
     774:	02509f51 	subseq	r9, r0, #324	; 0x144
     778:	02600000 	rsbeq	r0, r0, #0
     77c:	00010000 	andeq	r0, r1, r0
     780:	00026055 	andeq	r6, r2, r5, asr r0
     784:	00026500 	andeq	r6, r2, r0, lsl #10
     788:	51000100 	mrspl	r0, (UNDEF: 16)
     78c:	00000265 	andeq	r0, r0, r5, ror #4
     790:	000002bc 			; <UNDEFINED> instruction: 0x000002bc
     794:	bc550001 	mrrclt	0, 0, r0, r5, cr1
     798:	c8000002 	stmdagt	r0, {r1}
     79c:	04000002 	streq	r0, [r0], #-2
     7a0:	5101f300 	mrspl	pc, SP_irq	; <UNPREDICTABLE>
     7a4:	0000009f 	muleq	r0, pc, r0	; <UNPREDICTABLE>
     7a8:	00000000 	andeq	r0, r0, r0
     7ac:	00026600 	andeq	r6, r2, r0, lsl #12
     7b0:	00026c00 	andeq	r6, r2, r0, lsl #24
     7b4:	50000100 	andpl	r0, r0, r0, lsl #2
     7b8:	00000282 	andeq	r0, r0, r2, lsl #5
     7bc:	00000298 	muleq	r0, r8, r2
     7c0:	a6500001 	ldrbge	r0, [r0], -r1
     7c4:	c8000002 	stmdagt	r0, {r1}
     7c8:	01000002 	tsteq	r0, r2
     7cc:	00005000 	andeq	r5, r0, r0
     7d0:	00000000 	andeq	r0, r0, r0
     7d4:	01d20000 	bicseq	r0, r2, r0
     7d8:	020a0000 	andeq	r0, sl, #0
     7dc:	00020000 	andeq	r0, r2, r0
     7e0:	02609f31 	rsbeq	r9, r0, #49, 30	; 0xc4
     7e4:	02c80000 	sbceq	r0, r8, #0
     7e8:	00020000 	andeq	r0, r2, r0
     7ec:	00009f31 	andeq	r9, r0, r1, lsr pc
     7f0:	00000000 	andeq	r0, r0, r0
     7f4:	02220000 	eoreq	r0, r2, #0
     7f8:	023e0000 	eorseq	r0, lr, #0
     7fc:	00010000 	andeq	r0, r1, r0
     800:	00000054 	andeq	r0, r0, r4, asr r0
     804:	00000000 	andeq	r0, r0, r0
     808:	00016000 	andeq	r6, r1, r0
     80c:	00018000 	andeq	r8, r1, r0
     810:	50000100 	andpl	r0, r0, r0, lsl #2
     814:	00000180 	andeq	r0, r0, r0, lsl #3
     818:	000001cc 	andeq	r0, r0, ip, asr #3
     81c:	00540001 	subseq	r0, r4, r1
     820:	00000000 	andeq	r0, r0, r0
     824:	80000000 	andhi	r0, r0, r0
     828:	aa000001 	bge	834 <shift+0x834>
     82c:	02000001 	andeq	r0, r0, #1
     830:	aa9f3000 	bge	fe7cc838 <__bss_end+0x7e6cac24>
     834:	cc000001 	stcgt	0, cr0, [r0], {1}
     838:	01000001 	tsteq	r0, r1
     83c:	00005000 	andeq	r5, r0, r0
	...
     848:	00300000 	eorseq	r0, r0, r0
     84c:	00060000 	andeq	r0, r6, r0
     850:	0e03440c 	cdpeq	4, 0, cr4, cr3, cr12, {0}
     854:	00309f02 	eorseq	r9, r0, r2, lsl #30
     858:	006a0000 	rsbeq	r0, sl, r0
     85c:	00060000 	andeq	r0, r6, r0
     860:	0e03400c 	cdpeq	0, 0, cr4, cr3, cr12, {0}
     864:	00009f02 	andeq	r9, r0, r2, lsl #30
	...
     870:	00300000 	eorseq	r0, r0, r0
     874:	00020000 	andeq	r0, r2, r0
     878:	00009f31 	andeq	r9, r0, r1, lsr pc
	...
     884:	00300000 	eorseq	r0, r0, r0
     888:	00020000 	andeq	r0, r2, r0
     88c:	00009f32 	andeq	r9, r0, r2, lsr pc
	...
     898:	00300000 	eorseq	r0, r0, r0
     89c:	00060000 	andeq	r0, r6, r0
     8a0:	0e05a80c 	cdpeq	8, 0, cr10, cr5, cr12, {0}
     8a4:	00009f02 	andeq	r9, r0, r2, lsl #30
	...
     8b0:	00300000 	eorseq	r0, r0, r0
     8b4:	00060000 	andeq	r0, r6, r0
     8b8:	0e00b80c 	cdpeq	8, 0, cr11, cr0, cr12, {0}
     8bc:	00009f02 	andeq	r9, r0, r2, lsl #30
     8c0:	00000000 	andeq	r0, r0, r0
     8c4:	00300000 	eorseq	r0, r0, r0
     8c8:	004a0000 	subeq	r0, sl, r0
     8cc:	00020000 	andeq	r0, r2, r0
     8d0:	00009f31 	andeq	r9, r0, r1, lsr pc
     8d4:	00000000 	andeq	r0, r0, r0
     8d8:	00300000 	eorseq	r0, r0, r0
     8dc:	004a0000 	subeq	r0, sl, r0
     8e0:	00060000 	andeq	r0, r6, r0
     8e4:	0e05a40c 	cdpeq	4, 0, cr10, cr5, cr12, {0}
     8e8:	00009f02 	andeq	r9, r0, r2, lsl #30
     8ec:	00000000 	andeq	r0, r0, r0
     8f0:	00300000 	eorseq	r0, r0, r0
     8f4:	004a0000 	subeq	r0, sl, r0
     8f8:	00020000 	andeq	r0, r2, r0
     8fc:	00009f32 	andeq	r9, r0, r2, lsr pc
     900:	00000000 	andeq	r0, r0, r0
     904:	00300000 	eorseq	r0, r0, r0
     908:	004a0000 	subeq	r0, sl, r0
     90c:	00060000 	andeq	r0, r6, r0
     910:	0e00b40c 	cdpeq	4, 0, cr11, cr0, cr12, {0}
     914:	00009f02 	andeq	r9, r0, r2, lsl #30
     918:	00000000 	andeq	r0, r0, r0
     91c:	004a0000 	subeq	r0, sl, r0
     920:	004e0000 	subeq	r0, lr, r0
     924:	00060000 	andeq	r0, r6, r0
     928:	0e00b40c 	cdpeq	4, 0, cr11, cr0, cr12, {0}
     92c:	004e9f02 	subeq	r9, lr, r2, lsl #30
     930:	006a0000 	rsbeq	r0, sl, r0
     934:	00060000 	andeq	r0, r6, r0
     938:	0e00b80c 	cdpeq	8, 0, cr11, cr0, cr12, {0}
     93c:	00009f02 	andeq	r9, r0, r2, lsl #30
     940:	00000000 	andeq	r0, r0, r0
     944:	004a0000 	subeq	r0, sl, r0
     948:	004e0000 	subeq	r0, lr, r0
     94c:	00060000 	andeq	r0, r6, r0
     950:	0e05a40c 	cdpeq	4, 0, cr10, cr5, cr12, {0}
     954:	004e9f02 	subeq	r9, lr, r2, lsl #30
     958:	006a0000 	rsbeq	r0, sl, r0
     95c:	00060000 	andeq	r0, r6, r0
     960:	0e05a80c 	cdpeq	8, 0, cr10, cr5, cr12, {0}
     964:	00009f02 	andeq	r9, r0, r2, lsl #30
     968:	00000000 	andeq	r0, r0, r0
     96c:	004a0000 	subeq	r0, sl, r0
     970:	004e0000 	subeq	r0, lr, r0
     974:	00020000 	andeq	r0, r2, r0
     978:	004e9f31 	subeq	r9, lr, r1, lsr pc
     97c:	006a0000 	rsbeq	r0, sl, r0
     980:	00020000 	andeq	r0, r2, r0
     984:	00009f32 	andeq	r9, r0, r2, lsr pc
     988:	00000000 	andeq	r0, r0, r0
     98c:	004a0000 	subeq	r0, sl, r0
     990:	004e0000 	subeq	r0, lr, r0
     994:	00040000 	andeq	r0, r4, r0
     998:	9f70b00a 	svcls	0x0070b00a
	...
     9a4:	0000004a 	andeq	r0, r0, sl, asr #32
     9a8:	0000004e 	andeq	r0, r0, lr, asr #32
     9ac:	400c0006 	andmi	r0, ip, r6
     9b0:	9f020e03 	svcls	0x00020e03
	...
     9bc:	0000004e 	andeq	r0, r0, lr, asr #32
     9c0:	00000050 	andeq	r0, r0, r0, asr r0
     9c4:	b00a0004 	andlt	r0, sl, r4
     9c8:	00009f70 	andeq	r9, r0, r0, ror pc
     9cc:	00000000 	andeq	r0, r0, r0
     9d0:	004e0000 	subeq	r0, lr, r0
     9d4:	00500000 	subseq	r0, r0, r0
     9d8:	00060000 	andeq	r0, r6, r0
     9dc:	0e03440c 	cdpeq	4, 0, cr4, cr3, cr12, {0}
     9e0:	00009f02 	andeq	r9, r0, r2, lsl #30
     9e4:	00000000 	andeq	r0, r0, r0
     9e8:	00500000 	subseq	r0, r0, r0
     9ec:	00680000 	rsbeq	r0, r8, r0
     9f0:	00060000 	andeq	r0, r6, r0
     9f4:	1a00000c 	bne	a2c <shift+0xa2c>
     9f8:	00009f02 	andeq	r9, r0, r2, lsl #30
     9fc:	00000000 	andeq	r0, r0, r0
     a00:	006c0000 	rsbeq	r0, ip, r0
     a04:	00a80000 	adceq	r0, r8, r0
     a08:	00010000 	andeq	r0, r1, r0
     a0c:	0000a850 	andeq	sl, r0, r0, asr r8
     a10:	0000aa00 	andeq	sl, r0, r0, lsl #20
     a14:	f3000400 	vshl.u8	d0, d0, d0
     a18:	aa9f5001 	bge	fe7d4a24 <__bss_end+0x7e6d2e10>
     a1c:	ba000000 	blt	a24 <shift+0xa24>
     a20:	01000000 	mrseq	r0, (UNDEF: 0)
     a24:	00ba5000 	adcseq	r5, sl, r0
     a28:	00bc0000 	adcseq	r0, ip, r0
     a2c:	00040000 	andeq	r0, r4, r0
     a30:	9f5001f3 	svcls	0x005001f3
     a34:	000000bc 	strheq	r0, [r0], -ip
     a38:	000000c0 	andeq	r0, r0, r0, asr #1
     a3c:	c0500001 	subsgt	r0, r0, r1
     a40:	c2000000 	andgt	r0, r0, #0
     a44:	04000000 	streq	r0, [r0], #-0
     a48:	5001f300 	andpl	pc, r1, r0, lsl #6
     a4c:	0000009f 	muleq	r0, pc, r0	; <UNPREDICTABLE>
     a50:	00000000 	andeq	r0, r0, r0
     a54:	00006c00 	andeq	r6, r0, r0, lsl #24
     a58:	00009400 	andeq	r9, r0, r0, lsl #8
     a5c:	51000100 	mrspl	r0, (UNDEF: 16)
     a60:	00000094 	muleq	r0, r4, r0
     a64:	000000aa 	andeq	r0, r0, sl, lsr #1
     a68:	01f30004 	mvnseq	r0, r4
     a6c:	00aa9f51 	adceq	r9, sl, r1, asr pc
     a70:	00c20000 	sbceq	r0, r2, r0
     a74:	00010000 	andeq	r0, r1, r0
     a78:	00000051 	andeq	r0, r0, r1, asr r0
     a7c:	00000000 	andeq	r0, r0, r0
     a80:	00009000 	andeq	r9, r0, r0
     a84:	00009400 	andeq	r9, r0, r0, lsl #8
     a88:	51000100 	mrspl	r0, (UNDEF: 16)
     a8c:	00000094 	muleq	r0, r4, r0
     a90:	000000a6 	andeq	r0, r0, r6, lsr #1
     a94:	01f30004 	mvnseq	r0, r4
     a98:	00009f51 	andeq	r9, r0, r1, asr pc
     a9c:	00000000 	andeq	r0, r0, r0
     aa0:	00900000 	addseq	r0, r0, r0
     aa4:	00a60000 	adceq	r0, r6, r0
     aa8:	00010000 	andeq	r0, r1, r0
     aac:	00000050 	andeq	r0, r0, r0, asr r0
     ab0:	00000000 	andeq	r0, r0, r0
     ab4:	0000c400 	andeq	ip, r0, r0, lsl #8
     ab8:	0000e400 	andeq	lr, r0, r0, lsl #8
     abc:	50000100 	andpl	r0, r0, r0, lsl #2
     ac0:	000000e4 	andeq	r0, r0, r4, ror #1
     ac4:	000000e6 	andeq	r0, r0, r6, ror #1
     ac8:	01f30004 	mvnseq	r0, r4
     acc:	00e69f50 	rsceq	r9, r6, r0, asr pc
     ad0:	00e80000 	rsceq	r0, r8, r0
     ad4:	00010000 	andeq	r0, r1, r0
     ad8:	0000e850 	andeq	lr, r0, r0, asr r8
     adc:	0000ea00 	andeq	lr, r0, r0, lsl #20
     ae0:	f3000400 	vshl.u8	d0, d0, d0
     ae4:	009f5001 	addseq	r5, pc, r1
     ae8:	00000000 	andeq	r0, r0, r0
     aec:	c4000000 	strgt	r0, [r0], #-0
     af0:	d6000000 	strle	r0, [r0], -r0
     af4:	04000000 	streq	r0, [r0], #-0
     af8:	ffff0a00 			; <UNDEFINED> instruction: 0xffff0a00
     afc:	0000d69f 	muleq	r0, pc, r6	; <UNPREDICTABLE>
     b00:	0000d800 	andeq	sp, r0, r0, lsl #16
     b04:	52000100 	andpl	r0, r0, #0, 2
     b08:	000000d8 	ldrdeq	r0, [r0], -r8
     b0c:	000000da 	ldrdeq	r0, [r0], -sl
     b10:	01720003 	cmneq	r2, r3
     b14:	0000da9f 	muleq	r0, pc, sl	; <UNPREDICTABLE>
     b18:	0000e600 	andeq	lr, r0, r0, lsl #12
     b1c:	52000100 	andpl	r0, r0, #0, 2
     b20:	000000e6 	andeq	r0, r0, r6, ror #1
     b24:	000000ea 	andeq	r0, r0, sl, ror #1
     b28:	01720003 	cmneq	r2, r3
     b2c:	0000009f 	muleq	r0, pc, r0	; <UNPREDICTABLE>
     b30:	00000000 	andeq	r0, r0, r0
     b34:	0000ec00 	andeq	lr, r0, r0, lsl #24
     b38:	0000fe00 	andeq	pc, r0, r0, lsl #28
     b3c:	50000100 	andpl	r0, r0, r0, lsl #2
     b40:	000000fe 	strdeq	r0, [r0], -lr
     b44:	0000010a 	andeq	r0, r0, sl, lsl #2
     b48:	0a530001 	beq	14c0b54 <shift+0x14c0b54>
     b4c:	0e000001 	cdpeq	0, 0, cr0, cr0, cr1, {0}
     b50:	01000001 	tsteq	r0, r1
     b54:	010e5000 	mrseq	r5, (UNDEF: 14)
     b58:	01240000 			; <UNDEFINED> instruction: 0x01240000
     b5c:	00010000 	andeq	r0, r1, r0
     b60:	00000053 	andeq	r0, r0, r3, asr r0
     b64:	00000000 	andeq	r0, r0, r0
     b68:	00010a00 	andeq	r0, r1, r0, lsl #20
     b6c:	00010e00 	andeq	r0, r1, r0, lsl #28
     b70:	50000100 	andpl	r0, r0, r0, lsl #2
     b74:	0000010e 	andeq	r0, r0, lr, lsl #2
     b78:	00000122 	andeq	r0, r0, r2, lsr #2
     b7c:	00530001 	subseq	r0, r3, r1
     b80:	00000000 	andeq	r0, r0, r0
     b84:	24000000 	strcs	r0, [r0], #-0
     b88:	30000001 	andcc	r0, r0, r1
     b8c:	01000001 	tsteq	r0, r1
     b90:	01305000 	teqeq	r0, r0
     b94:	01520000 	cmpeq	r2, r0
     b98:	00010000 	andeq	r0, r1, r0
     b9c:	00015253 	andeq	r5, r1, r3, asr r2
     ba0:	00015c00 	andeq	r5, r1, r0, lsl #24
     ba4:	50000100 	andpl	r0, r0, r0, lsl #2
     ba8:	0000015c 	andeq	r0, r0, ip, asr r1
     bac:	00000160 	andeq	r0, r0, r0, ror #2
     bb0:	01f30004 	mvnseq	r0, r4
     bb4:	00009f50 	andeq	r9, r0, r0, asr pc
     bb8:	00000000 	andeq	r0, r0, r0
     bbc:	01520000 	cmpeq	r2, r0
     bc0:	015c0000 	cmpeq	ip, r0
     bc4:	00010000 	andeq	r0, r1, r0
     bc8:	00015c50 	andeq	r5, r1, r0, asr ip
     bcc:	00016000 	andeq	r6, r1, r0
     bd0:	f3000400 	vshl.u8	d0, d0, d0
     bd4:	009f5001 	addseq	r5, pc, r1
     bd8:	00000000 	andeq	r0, r0, r0
     bdc:	80000000 	andhi	r0, r0, r0
     be0:	83000001 	movwhi	r0, #1
     be4:	02000001 	andeq	r0, r0, #1
     be8:	00649100 	rsbeq	r9, r4, r0, lsl #2
     bec:	00000000 	andeq	r0, r0, r0
     bf0:	a0000000 	andge	r0, r0, r0
     bf4:	a5000001 	strge	r0, [r0, #-1]
     bf8:	02000001 	andeq	r0, r0, #1
     bfc:	00609100 	rsbeq	r9, r0, r0, lsl #2
     c00:	00000000 	andeq	r0, r0, r0
     c04:	ae000000 	cdpge	0, 0, cr0, cr0, cr0, {0}
     c08:	b3000001 	movwlt	r0, #1
     c0c:	02000001 	andeq	r0, r0, #1
     c10:	005c9100 	subseq	r9, ip, r0, lsl #2
     c14:	00000000 	andeq	r0, r0, r0
     c18:	bc000000 	stclt	0, cr0, [r0], {-0}
     c1c:	c1000001 	tstgt	r0, r1
     c20:	02000001 	andeq	r0, r0, #1
     c24:	00589100 	subseq	r9, r8, r0, lsl #2
     c28:	00000000 	andeq	r0, r0, r0
     c2c:	d4000000 	strle	r0, [r0], #-0
     c30:	d7000001 	strle	r0, [r0, -r1]
     c34:	02000001 	andeq	r0, r0, #1
     c38:	00549100 	subseq	r9, r4, r0, lsl #2
     c3c:	00000000 	andeq	r0, r0, r0
     c40:	ea000000 	b	c48 <shift+0xc48>
     c44:	ed000001 	stc	0, cr0, [r0, #-4]
     c48:	02000001 	andeq	r0, r0, #1
     c4c:	00509100 	subseq	r9, r0, r0, lsl #2
	...
     c58:	03000002 	movweq	r0, #2
     c5c:	02000002 	andeq	r0, r0, #2
     c60:	004c9100 	subeq	r9, ip, r0, lsl #2
     c64:	00000000 	andeq	r0, r0, r0
     c68:	16000000 	strne	r0, [r0], -r0
     c6c:	19000002 	stmdbne	r0, {r1}
     c70:	02000002 	andeq	r0, r0, #2
     c74:	00489100 	subeq	r9, r8, r0, lsl #2
     c78:	00000000 	andeq	r0, r0, r0
     c7c:	2c000000 	stccs	0, cr0, [r0], {-0}
     c80:	2f000002 	svccs	0x00000002
     c84:	02000002 	andeq	r0, r0, #2
     c88:	00449100 	subeq	r9, r4, r0, lsl #2
     c8c:	00000000 	andeq	r0, r0, r0
     c90:	42000000 	andmi	r0, r0, #0
     c94:	45000002 	strmi	r0, [r0, #-2]
     c98:	02000002 	andeq	r0, r0, #2
     c9c:	00409100 	subeq	r9, r0, r0, lsl #2
     ca0:	00000000 	andeq	r0, r0, r0
     ca4:	58000000 	stmdapl	r0, {}	; <UNPREDICTABLE>
     ca8:	5b000002 	blpl	cb8 <shift+0xcb8>
     cac:	03000002 	movweq	r0, #2
     cb0:	7fbc9100 	svcvc	0x00bc9100
	...
     cbc:	0000026c 	andeq	r0, r0, ip, ror #4
     cc0:	0000026f 	andeq	r0, r0, pc, ror #4
     cc4:	b8910003 	ldmlt	r1, {r0, r1}
     cc8:	0000007f 	andeq	r0, r0, pc, ror r0
     ccc:	00000000 	andeq	r0, r0, r0
     cd0:	00028000 	andeq	r8, r2, r0
     cd4:	00028300 	andeq	r8, r2, r0, lsl #6
     cd8:	91000300 	mrsls	r0, LR_irq
     cdc:	00007fb4 			; <UNDEFINED> instruction: 0x00007fb4
     ce0:	00000000 	andeq	r0, r0, r0
     ce4:	02920000 	addseq	r0, r2, #0
     ce8:	02950000 	addseq	r0, r5, #0
     cec:	00010000 	andeq	r0, r1, r0
     cf0:	00000050 	andeq	r0, r0, r0, asr r0
     cf4:	00000000 	andeq	r0, r0, r0
     cf8:	00009000 	andeq	r9, r0, r0
     cfc:	00009600 	andeq	r9, r0, r0, lsl #12
     d00:	50000100 	andpl	r0, r0, r0, lsl #2
     d04:	00000096 	muleq	r0, r6, r0
     d08:	000000a0 	andeq	r0, r0, r0, lsr #1
     d0c:	a0540001 	subsge	r0, r4, r1
     d10:	aa000000 	bge	d18 <shift+0xd18>
     d14:	03000000 	movweq	r0, #0
     d18:	9f017400 	svcls	0x00017400
     d1c:	000000ae 	andeq	r0, r0, lr, lsr #1
     d20:	000000c4 	andeq	r0, r0, r4, asr #1
     d24:	c4540001 	ldrbgt	r0, [r4], #-1
     d28:	cc000000 	stcgt	0, cr0, [r0], {-0}
     d2c:	03000000 	movweq	r0, #0
     d30:	9f7f7400 	svcls	0x007f7400
     d34:	00000102 	andeq	r0, r0, r2, lsl #2
     d38:	0000010e 	andeq	r0, r0, lr, lsl #2
     d3c:	00540001 	subseq	r0, r4, r1
     d40:	00000000 	andeq	r0, r0, r0
     d44:	90000000 	andls	r0, r0, r0
     d48:	9c000000 	stcls	0, cr0, [r0], {-0}
     d4c:	01000000 	mrseq	r0, (UNDEF: 0)
     d50:	009c5100 	addseq	r5, ip, r0, lsl #2
     d54:	010a0000 	mrseq	r0, (UNDEF: 10)
     d58:	00010000 	andeq	r0, r1, r0
     d5c:	00010e56 	andeq	r0, r1, r6, asr lr
     d60:	00014200 	andeq	r4, r1, r0, lsl #4
     d64:	56000100 	strpl	r0, [r0], -r0, lsl #2
     d68:	00000142 	andeq	r0, r0, r2, asr #2
     d6c:	0000014a 	andeq	r0, r0, sl, asr #2
     d70:	4a550001 	bmi	1540d7c <shift+0x1540d7c>
     d74:	50000001 	andpl	r0, r0, r1
     d78:	01000001 	tsteq	r0, r1
     d7c:	00005600 	andeq	r5, r0, r0, lsl #12
     d80:	00000000 	andeq	r0, r0, r0
     d84:	00900000 	addseq	r0, r0, r0
     d88:	009c0000 	addseq	r0, ip, r0
     d8c:	00030000 	andeq	r0, r3, r0
     d90:	a09f2008 	addsge	r2, pc, r8
     d94:	ac000000 	stcge	0, cr0, [r0], {-0}
     d98:	03000000 	movweq	r0, #0
     d9c:	9f200800 	svcls	0x00200800
     da0:	000000ac 	andeq	r0, r0, ip, lsr #1
     da4:	000000b2 	strheq	r0, [r0], -r2
     da8:	30080003 	andcc	r0, r8, r3
     dac:	0000b29f 	muleq	r0, pc, r2	; <UNPREDICTABLE>
     db0:	0000c000 	andeq	ip, r0, r0
     db4:	52000100 	andpl	r0, r0, #0, 2
	...
     dc0:	00000090 	muleq	r0, r0, r0
     dc4:	0000009c 	muleq	r0, ip, r0
     dc8:	9f300002 	svcls	0x00300002
     dcc:	000000a0 	andeq	r0, r0, r0, lsr #1
     dd0:	000000c0 	andeq	r0, r0, r0, asr #1
     dd4:	9f300002 	svcls	0x00300002
     dd8:	000000c0 	andeq	r0, r0, r0, asr #1
     ddc:	000000c8 	andeq	r0, r0, r8, asr #1
     de0:	c8530001 	ldmdagt	r3, {r0}^
     de4:	cc000000 	stcgt	0, cr0, [r0], {-0}
     de8:	05000000 	streq	r0, [r0, #-0]
     dec:	31007300 	mrscc	r7, LR_irq
     df0:	00cc9f24 	sbceq	r9, ip, r4, lsr #30
     df4:	00d60000 	sbcseq	r0, r6, r0
     df8:	00010000 	andeq	r0, r1, r0
     dfc:	00000053 	andeq	r0, r0, r3, asr r0
     e00:	00000000 	andeq	r0, r0, r0
     e04:	00011200 	andeq	r1, r1, r0, lsl #4
     e08:	00012000 	andeq	r2, r1, r0
     e0c:	55000100 	strpl	r0, [r0, #-256]	; 0xffffff00
     e10:	00000120 	andeq	r0, r0, r0, lsr #2
     e14:	00000126 	andeq	r0, r0, r6, lsr #2
     e18:	7f750003 	svcvc	0x00750003
     e1c:	0000009f 	muleq	r0, pc, r0	; <UNPREDICTABLE>
     e20:	00000000 	andeq	r0, r0, r0
     e24:	00014200 	andeq	r4, r1, r0, lsl #4
     e28:	00014500 	andeq	r4, r1, r0, lsl #10
     e2c:	50000100 	andpl	r0, r0, r0, lsl #2
	...
     e38:	0000014a 	andeq	r0, r0, sl, asr #2
     e3c:	0000014d 	andeq	r0, r0, sp, asr #2
     e40:	00700006 	rsbseq	r0, r0, r6
     e44:	9f1aff08 	svcls	0x001aff08
	...
     e54:	0000000c 	andeq	r0, r0, ip
     e58:	0c500001 	mrrceq	0, 0, r0, r0, cr1	; <UNPREDICTABLE>
     e5c:	90000000 	andls	r0, r0, r0
     e60:	01000000 	mrseq	r0, (UNDEF: 0)
     e64:	00005b00 	andeq	r5, r0, r0, lsl #22
	...
     e70:	00280000 	eoreq	r0, r8, r0
     e74:	00010000 	andeq	r0, r1, r0
     e78:	00002851 	andeq	r2, r0, r1, asr r8
     e7c:	00009000 	andeq	r9, r0, r0
     e80:	57000100 	strpl	r0, [r0, -r0, lsl #2]
	...
     e90:	00000028 	andeq	r0, r0, r8, lsr #32
     e94:	28520001 	ldmdacs	r2, {r0}^
     e98:	90000000 	andls	r0, r0, r0
     e9c:	04000000 	streq	r0, [r0], #-0
     ea0:	5201f300 	andpl	pc, r1, #0, 6
     ea4:	0000009f 	muleq	r0, pc, r0	; <UNPREDICTABLE>
	...
     eb0:	00002800 	andeq	r2, r0, r0, lsl #16
     eb4:	53000100 	movwpl	r0, #256	; 0x100
     eb8:	00000028 	andeq	r0, r0, r8, lsr #32
     ebc:	00000090 	muleq	r0, r0, r0
     ec0:	005a0001 	subseq	r0, sl, r1
	...
     ecc:	28000000 	stmdacs	r0, {}	; <UNPREDICTABLE>
     ed0:	02000000 	andeq	r0, r0, #0
     ed4:	289f3000 	ldmcs	pc, {ip, sp}	; <UNPREDICTABLE>
     ed8:	42000000 	andmi	r0, r0, #0
     edc:	01000000 	mrseq	r0, (UNDEF: 0)
     ee0:	00425400 	subeq	r5, r2, r0, lsl #8
     ee4:	007a0000 	rsbseq	r0, sl, r0
     ee8:	00010000 	andeq	r0, r1, r0
     eec:	00000050 	andeq	r0, r0, r0, asr r0
     ef0:	00000000 	andeq	r0, r0, r0
     ef4:	00001600 	andeq	r1, r0, r0, lsl #12
     ef8:	00002800 	andeq	r2, r0, r0, lsl #16
     efc:	91000300 	mrsls	r0, LR_irq
     f00:	00289f57 	eoreq	r9, r8, r7, asr pc
     f04:	003e0000 	eorseq	r0, lr, r0
     f08:	00010000 	andeq	r0, r1, r0
     f0c:	00003e55 	andeq	r3, r0, r5, asr lr
     f10:	00005200 	andeq	r5, r0, r0, lsl #4
     f14:	75000300 	strvc	r0, [r0, #-768]	; 0xfffffd00
     f18:	00529f01 	subseq	r9, r2, r1, lsl #30
     f1c:	005c0000 	subseq	r0, ip, r0
     f20:	00010000 	andeq	r0, r1, r0
     f24:	00005c55 	andeq	r5, r0, r5, asr ip
     f28:	00006600 	andeq	r6, r0, r0, lsl #12
     f2c:	53000100 	movwpl	r0, #256	; 0x100
     f30:	00000066 	andeq	r0, r0, r6, rrx
     f34:	00000090 	muleq	r0, r0, r0
     f38:	7f750003 	svcvc	0x00750003
     f3c:	0000009f 	muleq	r0, pc, r0	; <UNPREDICTABLE>
	...
     f48:	00002800 	andeq	r2, r0, r0, lsl #16
     f4c:	30000200 	andcc	r0, r0, r0, lsl #4
     f50:	0000289f 	muleq	r0, pc, r8	; <UNPREDICTABLE>
     f54:	00005600 	andeq	r5, r0, r0, lsl #12
     f58:	56000100 	strpl	r0, [r0], -r0, lsl #2
	...
     f68:	00000052 	andeq	r0, r0, r2, asr r0
     f6c:	9f300002 	svcls	0x00300002
     f70:	00000052 	andeq	r0, r0, r2, asr r0
     f74:	00000056 	andeq	r0, r0, r6, asr r0
     f78:	007a0006 	rsbseq	r0, sl, r6
     f7c:	9f1c0076 	svcls	0x001c0076
     f80:	00000056 	andeq	r0, r0, r6, asr r0
     f84:	0000005c 	andeq	r0, r0, ip, asr r0
     f88:	00560001 	subseq	r0, r6, r1
     f8c:	00000000 	andeq	r0, r0, r0
     f90:	74000000 	strvc	r0, [r0], #-0
     f94:	84000000 	strhi	r0, [r0], #-0
     f98:	01000000 	mrseq	r0, (UNDEF: 0)
     f9c:	00845400 	addeq	r5, r4, r0, lsl #8
     fa0:	00880000 	addeq	r0, r8, r0
     fa4:	00030000 	andeq	r0, r3, r0
     fa8:	009f7f74 	addseq	r7, pc, r4, ror pc	; <UNPREDICTABLE>
     fac:	00000000 	andeq	r0, r0, r0
     fb0:	50000000 	andpl	r0, r0, r0
     fb4:	5b000001 	blpl	fc0 <shift+0xfc0>
     fb8:	02000001 	andeq	r0, r0, #1
     fbc:	00709100 	rsbseq	r9, r0, r0, lsl #2
     fc0:	00000000 	andeq	r0, r0, r0
     fc4:	54000000 	strpl	r0, [r0], #-0
     fc8:	56000001 	strpl	r0, [r0], -r1
     fcc:	03000001 	movweq	r0, #1
     fd0:	9f549100 	svcls	0x00549100
     fd4:	00000156 	andeq	r0, r0, r6, asr r1
     fd8:	0000015b 	andeq	r0, r0, fp, asr r1
     fdc:	5b510001 	blpl	1440fe8 <shift+0x1440fe8>
     fe0:	5c000001 	stcpl	0, cr0, [r0], {1}
     fe4:	03000001 	movweq	r0, #1
     fe8:	9f549100 	svcls	0x00549100
     fec:	0000015c 	andeq	r0, r0, ip, asr r1
     ff0:	00000166 	andeq	r0, r0, r6, ror #2
     ff4:	9f300002 	svcls	0x00300002
	...
    1000:	00000144 	andeq	r0, r0, r4, asr #2
    1004:	00000146 	andeq	r0, r0, r6, asr #2
    1008:	46500001 	ldrbmi	r0, [r0], -r1
    100c:	48000001 	stmdami	r0, {r0}
    1010:	04000001 	streq	r0, [r0], #-1
    1014:	5001f300 	andpl	pc, r1, r0, lsl #6
    1018:	0000009f 	muleq	r0, pc, r0	; <UNPREDICTABLE>
    101c:	00000000 	andeq	r0, r0, r0
    1020:	0000cc00 	andeq	ip, r0, r0, lsl #24
    1024:	0000d600 	andeq	sp, r0, r0, lsl #12
    1028:	50000100 	andpl	r0, r0, r0, lsl #2
    102c:	000000d6 	ldrdeq	r0, [r0], -r6
    1030:	0000010a 	andeq	r0, r0, sl, lsl #2
    1034:	00570001 	subseq	r0, r7, r1
    1038:	00000000 	andeq	r0, r0, r0
    103c:	cc000000 	stcgt	0, cr0, [r0], {-0}
    1040:	d6000000 	strle	r0, [r0], -r0
    1044:	02000000 	andeq	r0, r0, #0
    1048:	d69f3000 	ldrle	r3, [pc], r0
    104c:	0a000000 	beq	1054 <shift+0x1054>
    1050:	01000001 	tsteq	r0, r1
    1054:	00005500 	andeq	r5, r0, r0, lsl #10
    1058:	00000000 	andeq	r0, r0, r0
    105c:	00d60000 	sbcseq	r0, r6, r0
    1060:	00e00000 	rsceq	r0, r0, r0
    1064:	00010000 	andeq	r0, r1, r0
    1068:	0000e654 	andeq	lr, r0, r4, asr r6
    106c:	00010a00 	andeq	r0, r1, r0, lsl #20
    1070:	54000100 	strpl	r0, [r0], #-256	; 0xffffff00
	...
    1080:	0000002a 	andeq	r0, r0, sl, lsr #32
    1084:	2a500001 	bcs	1401090 <shift+0x1401090>
    1088:	2e000000 	cdpcs	0, 0, cr0, cr0, cr0, {0}
    108c:	03000000 	movweq	r0, #0
    1090:	9f7f7000 	svcls	0x007f7000
    1094:	0000003a 	andeq	r0, r0, sl, lsr r0
    1098:	0000005a 	andeq	r0, r0, sl, asr r0
    109c:	62500001 	subsvs	r0, r0, #1
    10a0:	66000000 	strvs	r0, [r0], -r0
    10a4:	01000000 	mrseq	r0, (UNDEF: 0)
    10a8:	00665000 	rsbeq	r5, r6, r0
    10ac:	008e0000 	addeq	r0, lr, r0
    10b0:	00010000 	andeq	r0, r1, r0
    10b4:	00008e57 	andeq	r8, r0, r7, asr lr
    10b8:	00009400 	andeq	r9, r0, r0, lsl #8
    10bc:	50000100 	andpl	r0, r0, r0, lsl #2
    10c0:	00000094 	muleq	r0, r4, r0
    10c4:	0000009e 	muleq	r0, lr, r0
    10c8:	9e570001 	cdpls	0, 5, cr0, cr7, cr1, {0}
    10cc:	b0000000 	andlt	r0, r0, r0
    10d0:	01000000 	mrseq	r0, (UNDEF: 0)
    10d4:	00005000 	andeq	r5, r0, r0
	...
    10e0:	001c0000 	andseq	r0, ip, r0
    10e4:	00010000 	andeq	r0, r1, r0
    10e8:	00001c52 	andeq	r1, r0, r2, asr ip
    10ec:	00002000 	andeq	r2, r0, r0
    10f0:	f3000400 	vshl.u8	d0, d0, d0
    10f4:	209f5201 	addscs	r5, pc, r1, lsl #4
    10f8:	26000000 	strcs	r0, [r0], -r0
    10fc:	01000000 	mrseq	r0, (UNDEF: 0)
    1100:	002e5200 	eoreq	r5, lr, r0, lsl #4
    1104:	003a0000 	eorseq	r0, sl, r0
    1108:	00010000 	andeq	r0, r1, r0
    110c:	00006252 	andeq	r6, r0, r2, asr r2
    1110:	00008c00 	andeq	r8, r0, r0, lsl #24
    1114:	52000100 	andpl	r0, r0, #0, 2
    1118:	0000008c 	andeq	r0, r0, ip, lsl #1
    111c:	00000094 	muleq	r0, r4, r0
    1120:	9f400002 	svcls	0x00400002
    1124:	00000094 	muleq	r0, r4, r0
    1128:	000000a0 	andeq	r0, r0, r0, lsr #1
    112c:	a0520001 	subsge	r0, r2, r1
    1130:	a6000000 	strge	r0, [r0], -r0
    1134:	04000000 	streq	r0, [r0], #-0
    1138:	5201f300 	andpl	pc, r1, #0, 6
    113c:	0000a69f 	muleq	r0, pc, r6	; <UNPREDICTABLE>
    1140:	0000b000 	andeq	fp, r0, r0
    1144:	52000100 	andpl	r0, r0, #0, 2
	...
    1154:	00000026 	andeq	r0, r0, r6, lsr #32
    1158:	9f300002 	svcls	0x00300002
    115c:	00000026 	andeq	r0, r0, r6, lsr #32
    1160:	0000005a 	andeq	r0, r0, sl, asr r0
    1164:	62570001 	subsvs	r0, r7, #1
    1168:	b0000000 	andlt	r0, r0, r0
    116c:	02000000 	andeq	r0, r0, #0
    1170:	009f3000 	addseq	r3, pc, r0
    1174:	00000000 	andeq	r0, r0, r0
    1178:	26000000 	strcs	r0, [r0], -r0
    117c:	3a000000 	bcc	1184 <shift+0x1184>
    1180:	01000000 	mrseq	r0, (UNDEF: 0)
    1184:	00565400 	subseq	r5, r6, r0, lsl #8
    1188:	005a0000 	subseq	r0, sl, r0
    118c:	00010000 	andeq	r0, r1, r0
    1190:	00000054 	andeq	r0, r0, r4, asr r0
    1194:	00000000 	andeq	r0, r0, r0
    1198:	0000b000 	andeq	fp, r0, r0
    119c:	0000bf00 	andeq	fp, r0, r0, lsl #30
    11a0:	50000100 	andpl	r0, r0, r0, lsl #2
    11a4:	000000bf 	strheq	r0, [r0], -pc	; <UNPREDICTABLE>
    11a8:	000000c0 	andeq	r0, r0, r0, asr #1
    11ac:	01f30004 	mvnseq	r0, r4
    11b0:	00c09f50 	sbceq	r9, r0, r0, asr pc
    11b4:	00c20000 	sbceq	r0, r2, r0
    11b8:	00010000 	andeq	r0, r1, r0
    11bc:	0000c250 	andeq	ip, r0, r0, asr r2
    11c0:	0000ca00 	andeq	ip, r0, r0, lsl #20
    11c4:	f3000400 	vshl.u8	d0, d0, d0
    11c8:	009f5001 	addseq	r5, pc, r1
    11cc:	00000000 	andeq	r0, r0, r0
    11d0:	b0000000 	andlt	r0, r0, r0
    11d4:	bf000000 	svclt	0x00000000
    11d8:	01000000 	mrseq	r0, (UNDEF: 0)
    11dc:	00bf5200 	adcseq	r5, pc, r0, lsl #4
    11e0:	00c00000 	sbceq	r0, r0, r0
    11e4:	00040000 	andeq	r0, r4, r0
    11e8:	9f5201f3 	svcls	0x005201f3
    11ec:	000000c0 	andeq	r0, r0, r0, asr #1
    11f0:	000000c5 	andeq	r0, r0, r5, asr #1
    11f4:	c5520001 	ldrbgt	r0, [r2, #-1]
    11f8:	ca000000 	bgt	1200 <shift+0x1200>
    11fc:	04000000 	streq	r0, [r0], #-0
    1200:	5201f300 	andpl	pc, r1, #0, 6
    1204:	0000009f 	muleq	r0, pc, r0	; <UNPREDICTABLE>
    1208:	00000000 	andeq	r0, r0, r0
    120c:	0000c000 	andeq	ip, r0, r0
    1210:	0000c200 	andeq	ip, r0, r0, lsl #4
    1214:	50000100 	andpl	r0, r0, r0, lsl #2
    1218:	000000c2 	andeq	r0, r0, r2, asr #1
    121c:	000000c5 	andeq	r0, r0, r5, asr #1
    1220:	7f700003 	svcvc	0x00700003
    1224:	0000c59f 	muleq	r0, pc, r5	; <UNPREDICTABLE>
    1228:	0000c800 	andeq	ip, r0, r0, lsl #16
    122c:	f3000400 	vshl.u8	d0, d0, d0
    1230:	009f5001 	addseq	r5, pc, r1
    1234:	00000000 	andeq	r0, r0, r0
    1238:	6c000000 	stcvs	0, cr0, [r0], {-0}
    123c:	80000001 	andhi	r0, r0, r1
    1240:	01000001 	tsteq	r0, r1
    1244:	01805000 	orreq	r5, r0, r0
    1248:	02820000 	addeq	r0, r2, #0
    124c:	00040000 	andeq	r0, r4, r0
    1250:	9f5001f3 	svcls	0x005001f3
	...
    125c:	0000016c 	andeq	r0, r0, ip, ror #2
    1260:	0000018a 	andeq	r0, r0, sl, lsl #3
    1264:	8a510001 	bhi	1441270 <shift+0x1441270>
    1268:	82000001 	andhi	r0, r0, #1
    126c:	04000002 	streq	r0, [r0], #-2
    1270:	5101f300 	mrspl	pc, SP_irq	; <UNPREDICTABLE>
    1274:	0000009f 	muleq	r0, pc, r0	; <UNPREDICTABLE>
    1278:	00000000 	andeq	r0, r0, r0
    127c:	00013c00 	andeq	r3, r1, r0, lsl #24
    1280:	00015200 	andeq	r5, r1, r0, lsl #4
    1284:	30000200 	andcc	r0, r0, r0, lsl #4
    1288:	0000009f 	muleq	r0, pc, r0	; <UNPREDICTABLE>
    128c:	00000000 	andeq	r0, r0, r0
    1290:	00013c00 	andeq	r3, r1, r0, lsl #24
    1294:	00015200 	andeq	r5, r1, r0, lsl #4
    1298:	35000200 	strcc	r0, [r0, #-512]	; 0xfffffe00
    129c:	0000009f 	muleq	r0, pc, r0	; <UNPREDICTABLE>
    12a0:	00000000 	andeq	r0, r0, r0
    12a4:	00013c00 	andeq	r3, r1, r0, lsl #24
    12a8:	00015200 	andeq	r5, r1, r0, lsl #4
    12ac:	0c000600 	stceq	6, cr0, [r0], {-0}
    12b0:	020e01b8 	andeq	r0, lr, #184, 2	; 0x2e
    12b4:	0000009f 	muleq	r0, pc, r0	; <UNPREDICTABLE>
    12b8:	00000000 	andeq	r0, r0, r0
    12bc:	0000c800 	andeq	ip, r0, r0, lsl #16
    12c0:	0000d000 	andeq	sp, r0, r0
    12c4:	50000100 	andpl	r0, r0, r0, lsl #2
    12c8:	000000d0 	ldrdeq	r0, [r0], -r0	; <UNPREDICTABLE>
    12cc:	0000013a 	andeq	r0, r0, sl, lsr r1
    12d0:	00540001 	subseq	r0, r4, r1
    12d4:	00000000 	andeq	r0, r0, r0
    12d8:	20000000 	andcs	r0, r0, r0
    12dc:	24000001 	strcs	r0, [r0], #-1
    12e0:	0a000001 	beq	12ec <shift+0x12ec>
    12e4:	94629100 	strbtls	r9, [r2], #-256	; 0xffffff00
    12e8:	1aff0801 	bne	fffc32f4 <__bss_end+0x7fec16e0>
    12ec:	009f2437 	addseq	r2, pc, r7, lsr r4	; <UNPREDICTABLE>
    12f0:	00000000 	andeq	r0, r0, r0
    12f4:	48000000 	stmdami	r0, {}	; <UNPREDICTABLE>
    12f8:	50000000 	andpl	r0, r0, r0
    12fc:	01000000 	mrseq	r0, (UNDEF: 0)
    1300:	00505000 	subseq	r5, r0, r0
    1304:	00b40000 	adcseq	r0, r4, r0
    1308:	00010000 	andeq	r0, r1, r0
    130c:	0000b454 	andeq	fp, r0, r4, asr r4
    1310:	0000b800 	andeq	fp, r0, r0, lsl #16
    1314:	50000100 	andpl	r0, r0, r0, lsl #2
    1318:	000000b8 	strheq	r0, [r0], -r8
    131c:	000000c6 	andeq	r0, r0, r6, asr #1
    1320:	01f30004 	mvnseq	r0, r4
    1324:	00009f50 	andeq	r9, r0, r0, asr pc
    1328:	00000000 	andeq	r0, r0, r0
	...

Disassembly of section .debug_ranges:

00000000 <.debug_ranges>:
   0:	8010133c 	andshi	r1, r0, ip, lsr r3
   4:	8010140c 	andshi	r1, r0, ip, lsl #8
	...
  10:	00000074 	andeq	r0, r0, r4, ror r0
  14:	00000086 	andeq	r0, r0, r6, lsl #1
  18:	0000008a 	andeq	r0, r0, sl, lsl #1
  1c:	0000008c 	andeq	r0, r0, ip, lsl #1
  20:	00000098 	muleq	r0, r8, r0
  24:	0000009c 	muleq	r0, ip, r0
  28:	000000a0 	andeq	r0, r0, r0, lsr #1
  2c:	000000a2 	andeq	r0, r0, r2, lsr #1
  30:	000000a6 	andeq	r0, r0, r6, lsr #1
  34:	000000aa 	andeq	r0, r0, sl, lsr #1
	...
  40:	00000086 	andeq	r0, r0, r6, lsl #1
  44:	0000008a 	andeq	r0, r0, sl, lsl #1
  48:	0000008c 	andeq	r0, r0, ip, lsl #1
  4c:	00000098 	muleq	r0, r8, r0
  50:	0000009c 	muleq	r0, ip, r0
  54:	000000a0 	andeq	r0, r0, r0, lsr #1
  58:	000000a2 	andeq	r0, r0, r2, lsr #1
  5c:	000000a6 	andeq	r0, r0, r6, lsr #1
  60:	000000aa 	andeq	r0, r0, sl, lsr #1
  64:	000000d8 	ldrdeq	r0, [r0], -r8
	...
  70:	000000d8 	ldrdeq	r0, [r0], -r8
  74:	000000ea 	andeq	r0, r0, sl, ror #1
  78:	000000fe 	strdeq	r0, [r0], -lr
  7c:	00000102 	andeq	r0, r0, r2, lsl #2
  80:	00000106 	andeq	r0, r0, r6, lsl #2
  84:	00000118 	andeq	r0, r0, r8, lsl r1
	...
  90:	000000ea 	andeq	r0, r0, sl, ror #1
  94:	000000fa 	strdeq	r0, [r0], -sl
  98:	00000118 	andeq	r0, r0, r8, lsl r1
  9c:	00000122 	andeq	r0, r0, r2, lsr #2
  a0:	00000124 	andeq	r0, r0, r4, lsr #2
  a4:	00000128 	andeq	r0, r0, r8, lsr #2
	...
  b0:	000000fa 	strdeq	r0, [r0], -sl
  b4:	000000fe 	strdeq	r0, [r0], -lr
  b8:	00000102 	andeq	r0, r0, r2, lsl #2
  bc:	00000106 	andeq	r0, r0, r6, lsl #2
  c0:	00000128 	andeq	r0, r0, r8, lsr #2
  c4:	00000138 	andeq	r0, r0, r8, lsr r1
	...
  d0:	0000003e 	andeq	r0, r0, lr, lsr r0
  d4:	00000084 	andeq	r0, r0, r4, lsl #1
  d8:	00000086 	andeq	r0, r0, r6, lsl #1
  dc:	00000096 	muleq	r0, r6, r0
	...
  e8:	00000084 	andeq	r0, r0, r4, lsl #1
  ec:	00000086 	andeq	r0, r0, r6, lsl #1
  f0:	00000096 	muleq	r0, r6, r0
  f4:	000000a2 	andeq	r0, r0, r2, lsr #1
	...
 100:	000000a8 	andeq	r0, r0, r8, lsr #1
 104:	000000ac 	andeq	r0, r0, ip, lsr #1
 108:	000000b2 	strheq	r0, [r0], -r2
 10c:	000000b6 	strheq	r0, [r0], -r6
 110:	000000b8 	strheq	r0, [r0], -r8
 114:	000000c6 	andeq	r0, r0, r6, asr #1
	...
 120:	000000c6 	andeq	r0, r0, r6, asr #1
 124:	000000d2 	ldrdeq	r0, [r0], -r2
 128:	000000d6 	ldrdeq	r0, [r0], -r6
 12c:	000000dc 	ldrdeq	r0, [r0], -ip
 130:	000000de 	ldrdeq	r0, [r0], -lr
 134:	000000e2 	andeq	r0, r0, r2, ror #1
	...
 140:	00000002 	andeq	r0, r0, r2
 144:	00000020 	andeq	r0, r0, r0, lsr #32
 148:	00000022 	andeq	r0, r0, r2, lsr #32
 14c:	00000028 	andeq	r0, r0, r8, lsr #32
 150:	0000002c 	andeq	r0, r0, ip, lsr #32
 154:	0000004a 	andeq	r0, r0, sl, asr #32
 158:	0000004c 	andeq	r0, r0, ip, asr #32
 15c:	00000050 	andeq	r0, r0, r0, asr r0
	...
 168:	00000002 	andeq	r0, r0, r2
 16c:	00000012 	andeq	r0, r0, r2, lsl r0
 170:	00000022 	andeq	r0, r0, r2, lsr #32
 174:	00000028 	andeq	r0, r0, r8, lsr #32
 178:	0000002c 	andeq	r0, r0, ip, lsr #32
 17c:	00000030 	andeq	r0, r0, r0, lsr r0
	...
 188:	00000012 	andeq	r0, r0, r2, lsl r0
 18c:	00000018 	andeq	r0, r0, r8, lsl r0
 190:	00000030 	andeq	r0, r0, r0, lsr r0
 194:	00000034 	andeq	r0, r0, r4, lsr r0
 198:	0000003c 	andeq	r0, r0, ip, lsr r0
 19c:	00000040 	andeq	r0, r0, r0, asr #32
 1a0:	00000044 	andeq	r0, r0, r4, asr #32
 1a4:	0000004a 	andeq	r0, r0, sl, asr #32
	...
 1b0:	00000018 	andeq	r0, r0, r8, lsl r0
 1b4:	0000001c 	andeq	r0, r0, ip, lsl r0
 1b8:	00000038 	andeq	r0, r0, r8, lsr r0
 1bc:	0000003c 	andeq	r0, r0, ip, lsr r0
 1c0:	00000040 	andeq	r0, r0, r0, asr #32
 1c4:	00000044 	andeq	r0, r0, r4, asr #32
 1c8:	0000004c 	andeq	r0, r0, ip, asr #32
 1cc:	0000004e 	andeq	r0, r0, lr, asr #32
	...
 1d8:	0000001c 	andeq	r0, r0, ip, lsl r0
 1dc:	00000020 	andeq	r0, r0, r0, lsr #32
 1e0:	00000034 	andeq	r0, r0, r4, lsr r0
 1e4:	00000038 	andeq	r0, r0, r8, lsr r0
 1e8:	0000004e 	andeq	r0, r0, lr, asr #32
 1ec:	00000050 	andeq	r0, r0, r0, asr r0
	...
 1f8:	00000020 	andeq	r0, r0, r0, lsr #32
 1fc:	00000022 	andeq	r0, r0, r2, lsr #32
 200:	00000028 	andeq	r0, r0, r8, lsr #32
 204:	0000002c 	andeq	r0, r0, ip, lsr #32
 208:	0000004a 	andeq	r0, r0, sl, asr #32
 20c:	0000004c 	andeq	r0, r0, ip, asr #32
 210:	00000050 	andeq	r0, r0, r0, asr r0
 214:	0000006a 	andeq	r0, r0, sl, rrx
	...
 220:	00000090 	muleq	r0, r0, r0
 224:	00000094 	muleq	r0, r4, r0
 228:	00000098 	muleq	r0, r8, r0
 22c:	000000a6 	andeq	r0, r0, r6, lsr #1
	...
 238:	0000013e 	andeq	r0, r0, lr, lsr r1
 23c:	00000140 	andeq	r0, r0, r0, asr #2
 240:	00000142 	andeq	r0, r0, r2, asr #2
 244:	00000146 	andeq	r0, r0, r6, asr #2
	...
 250:	0000013e 	andeq	r0, r0, lr, lsr r1
 254:	00000142 	andeq	r0, r0, r2, asr #2
 258:	00000146 	andeq	r0, r0, r6, asr #2
 25c:	0000014a 	andeq	r0, r0, sl, asr #2
 260:	0000014e 	andeq	r0, r0, lr, asr #2
 264:	00000152 	andeq	r0, r0, r2, asr r1
	...

Disassembly of section .debug_str:

00000000 <.debug_str>:
       0:	75716572 	ldrbvc	r6, [r1, #-1394]!	; 0xfffffa8e
       4:	5f747365 	svcpl	0x00747365
       8:	00717269 	rsbseq	r7, r1, r9, ror #4
       c:	354d5750 	strbcc	r5, [sp, #-1872]	; 0xfffff8b0
      10:	5152495f 	cmppl	r2, pc, asr r9
      14:	4155006e 	cmpmi	r5, lr, rrx
      18:	5f325452 	svcpl	0x00325452
      1c:	6e515249 	cdpvs	2, 5, cr5, cr1, cr9, {2}
      20:	415a5400 	cmpmi	sl, r0, lsl #8
      24:	495f4353 	ldmdbmi	pc, {r0, r1, r4, r6, r8, r9, lr}^	; <UNPREDICTABLE>
      28:	006e5152 	rsbeq	r5, lr, r2, asr r1
      2c:	5f495343 	svcpl	0x00495343
      30:	6e515249 	cdpvs	2, 5, cr5, cr1, cr9, {2}
      34:	52415500 	subpl	r5, r1, #0, 10
      38:	495f3854 	ldmdbmi	pc, {r2, r4, r6, fp, ip, sp}^	; <UNPREDICTABLE>
      3c:	006e5152 	rsbeq	r5, lr, r2, asr r1
      40:	48425041 	stmdami	r2, {r0, r6, ip, lr}^
      44:	5152495f 	cmppl	r2, pc, asr r9
      48:	6e69006e 	cdpvs	0, 6, cr0, cr9, cr14, {3}
      4c:	615f7469 	cmpvs	pc, r9, ror #8
      50:	31323370 	teqcc	r2, r0, ror r3
      54:	50006336 	andpl	r6, r0, r6, lsr r3
      58:	495f554d 	ldmdbmi	pc, {r0, r2, r3, r6, r8, sl, ip, lr}^	; <UNPREDICTABLE>
      5c:	5f325152 	svcpl	0x00325152
      60:	6e515249 	cdpvs	2, 5, cr5, cr1, cr9, {2}
      64:	4f445700 	svcmi	0x00445700
      68:	495f3247 	ldmdbmi	pc, {r0, r1, r2, r6, r9, ip, sp}^	; <UNPREDICTABLE>
      6c:	006e5152 	rsbeq	r5, lr, r2, asr r1
      70:	4f495047 	svcmi	0x00495047
      74:	4e495f31 	mcrmi	15, 2, r5, cr9, cr1, {1}
      78:	495f3454 	ldmdbmi	pc, {r2, r4, r6, sl, ip, sp}^	; <UNPREDICTABLE>
      7c:	006e5152 	rsbeq	r5, lr, r2, asr r1
      80:	676e6f6c 	strbvs	r6, [lr, -ip, ror #30]!
      84:	6e6f6c20 	cdpvs	12, 6, cr6, cr15, cr0, {1}
      88:	6e752067 	cdpvs	0, 7, cr2, cr5, cr7, {3}
      8c:	6e676973 			; <UNDEFINED> instruction: 0x6e676973
      90:	69206465 	stmdbvs	r0!, {r0, r2, r5, r6, sl, sp, lr}
      94:	5500746e 	strpl	r7, [r0, #-1134]	; 0xfffffb92
      98:	505f4253 	subspl	r4, pc, r3, asr r2	; <UNPREDICTABLE>
      9c:	5f325948 	svcpl	0x00325948
      a0:	6e515249 	cdpvs	2, 5, cr5, cr1, cr9, {2}
      a4:	6f682f00 	svcvs	0x00682f00
      a8:	662f656d 	strtvs	r6, [pc], -sp, ror #10
      ac:	73757074 	cmnvc	r5, #116	; 0x74
      b0:	772f7265 	strvc	r7, [pc, -r5, ror #4]!
      b4:	2f6b726f 	svccs	0x006b726f
      b8:	5f786d69 	svcpl	0x00786d69
      bc:	736f6f6e 	cmnvc	pc, #440	; 0x1b8
      c0:	52415500 	subpl	r5, r1, #0, 10
      c4:	495f3754 	ldmdbmi	pc, {r2, r4, r6, r8, r9, sl, ip, sp}^	; <UNPREDICTABLE>
      c8:	006e5152 	rsbeq	r5, lr, r2, asr r1
      cc:	74666f53 	strbtvc	r6, [r6], #-3923	; 0xfffff0ad
      d0:	65726177 	ldrbvs	r6, [r2, #-375]!	; 0xfffffe89
      d4:	495f3131 	ldmdbmi	pc, {r0, r4, r5, r8, ip, sp}^	; <UNPREDICTABLE>
      d8:	006e5152 	rsbeq	r5, lr, r2, asr r1
      dc:	65736552 	ldrbvs	r6, [r3, #-1362]!	; 0xfffffaae
      e0:	64657672 	strbtvs	r7, [r5], #-1650	; 0xfffff98e
      e4:	495f3434 	ldmdbmi	pc, {r2, r4, r5, sl, ip, sp}^	; <UNPREDICTABLE>
      e8:	006e5152 	rsbeq	r5, lr, r2, asr r1
      ec:	74666f53 	strbtvc	r6, [r6], #-3923	; 0xfffff0ad
      f0:	65726177 	ldrbvs	r6, [r2, #-375]!	; 0xfffffe89
      f4:	52495f35 	subpl	r5, r9, #53, 30	; 0xd4
      f8:	64006e51 	strvs	r6, [r0], #-3665	; 0xfffff1af
      fc:	79616c65 	stmdbvc	r1!, {r0, r2, r5, r6, sl, fp, sp, lr}^
     100:	73655200 	cmnvc	r5, #0, 4
     104:	65767265 	ldrbvs	r7, [r6, #-613]!	; 0xfffffd9b
     108:	35323164 	ldrcc	r3, [r2, #-356]!	; 0xfffffe9c
     10c:	5152495f 	cmppl	r2, pc, asr r9
     110:	6956006e 	ldmdbvs	r6, {r1, r2, r3, r5, r6}^
     114:	61757472 	cmnvs	r5, r2, ror r4
     118:	69614d6c 	stmdbvs	r1!, {r2, r3, r5, r6, r8, sl, fp, lr}^
     11c:	6e65746e 	cdpvs	4, 6, cr7, cr5, cr14, {3}
     120:	65636e61 	strbvs	r6, [r3, #-3681]!	; 0xfffff19f
     124:	5152495f 	cmppl	r2, pc, asr r9
     128:	5047006e 	subpl	r0, r7, lr, rrx
     12c:	5f324f49 	svcpl	0x00324f49
     130:	626d6f43 	rsbvs	r6, sp, #268	; 0x10c
     134:	64656e69 	strbtvs	r6, [r5], #-3689	; 0xfffff197
     138:	5f36315f 	svcpl	0x0036315f
     13c:	495f3133 	ldmdbmi	pc, {r0, r1, r4, r5, r8, ip, sp}^	; <UNPREDICTABLE>
     140:	006e5152 	rsbeq	r5, lr, r2, asr r1
     144:	54524155 	ldrbpl	r4, [r2], #-341	; 0xfffffeab
     148:	52495f33 	subpl	r5, r9, #51, 30	; 0xcc
     14c:	6c006e51 	stcvs	14, cr6, [r0], {81}	; 0x51
     150:	20676e6f 	rsbcs	r6, r7, pc, ror #28
     154:	676e6f6c 	strbvs	r6, [lr, -ip, ror #30]!
     158:	746e6920 	strbtvc	r6, [lr], #-2336	; 0xfffff6e0
     15c:	43535400 	cmpmi	r3, #0, 8
     160:	5152495f 	cmppl	r2, pc, asr r9
     164:	5047006e 	subpl	r0, r7, lr, rrx
     168:	5f334f49 	svcpl	0x00334f49
     16c:	626d6f43 	rsbvs	r6, sp, #268	; 0x10c
     170:	64656e69 	strbtvs	r6, [r5], #-3689	; 0xfffff197
     174:	315f305f 	cmpcc	pc, pc, asr r0	; <UNPREDICTABLE>
     178:	52495f35 	subpl	r5, r9, #53, 30	; 0xd4
     17c:	51006e51 	tstpl	r0, r1, asr lr
     180:	5f495053 	svcpl	0x00495053
     184:	6e515249 	cdpvs	2, 5, cr5, cr1, cr9, {2}
     188:	474e5200 	strbmi	r5, [lr, -r0, lsl #4]
     18c:	52495f42 	subpl	r5, r9, #264	; 0x108
     190:	50006e51 	andpl	r6, r0, r1, asr lr
     194:	495f554d 	ldmdbmi	pc, {r0, r2, r3, r6, r8, sl, ip, lr}^	; <UNPREDICTABLE>
     198:	5f315152 	svcpl	0x00315152
     19c:	6e515249 	cdpvs	2, 5, cr5, cr1, cr9, {2}
     1a0:	454e4500 	strbmi	r4, [lr, #-1280]	; 0xfffffb00
     1a4:	315f3154 	cmpcc	pc, r4, asr r1	; <UNPREDICTABLE>
     1a8:	5f383835 	svcpl	0x00383835
     1ac:	6e515249 	cdpvs	2, 5, cr5, cr1, cr9, {2}
     1b0:	564e5300 	strbpl	r5, [lr], -r0, lsl #6
     1b4:	52495f53 	subpl	r5, r9, #332	; 0x14c
     1b8:	43006e51 	movwmi	r6, #3665	; 0xe51
     1bc:	495f4d43 	ldmdbmi	pc, {r0, r1, r6, r8, sl, fp, lr}^	; <UNPREDICTABLE>
     1c0:	5f315152 	svcpl	0x00315152
     1c4:	6e515249 	cdpvs	2, 5, cr5, cr1, cr9, {2}
     1c8:	73655200 	cmnvc	r5, #0, 4
     1cc:	65767265 	ldrbvs	r7, [r6, #-613]!	; 0xfffffd9b
     1d0:	34333164 	ldrtcc	r3, [r3], #-356	; 0xfffffe9c
     1d4:	5152495f 	cmppl	r2, pc, asr r9
     1d8:	5750006e 	ldrbpl	r0, [r0, -lr, rrx]
     1dc:	495f314d 	ldmdbmi	pc, {r0, r2, r3, r6, r8, ip, sp}^	; <UNPREDICTABLE>
     1e0:	006e5152 	rsbeq	r5, lr, r2, asr r1
     1e4:	74666f53 	strbtvc	r6, [r6], #-3923	; 0xfffff0ad
     1e8:	65726177 	ldrbvs	r6, [r2, #-375]!	; 0xfffffe89
     1ec:	495f3231 	ldmdbmi	pc, {r0, r4, r5, r9, ip, sp}^	; <UNPREDICTABLE>
     1f0:	006e5152 	rsbeq	r5, lr, r2, asr r1
     1f4:	74666f53 	strbtvc	r6, [r6], #-3923	; 0xfffff0ad
     1f8:	65726177 	ldrbvs	r6, [r2, #-375]!	; 0xfffffe89
     1fc:	52495f36 	subpl	r5, r9, #54, 30	; 0xd8
     200:	52006e51 	andpl	r6, r0, #1296	; 0x510
     204:	72657365 	rsbvc	r7, r5, #-1811939327	; 0x94000001
     208:	31646576 	smccc	18006	; 0x4656
     20c:	495f3131 	ldmdbmi	pc, {r0, r4, r5, r8, ip, sp}^	; <UNPREDICTABLE>
     210:	006e5152 	rsbeq	r5, lr, r2, asr r1
     214:	65736552 	ldrbvs	r6, [r3, #-1362]!	; 0xfffffaae
     218:	64657672 	strbtvs	r7, [r5], #-1650	; 0xfffff98e
     21c:	5f343231 	svcpl	0x00343231
     220:	6e515249 	cdpvs	2, 5, cr5, cr1, cr9, {2}
     224:	43324900 	teqmi	r2, #0, 18
     228:	52495f33 	subpl	r5, r9, #51, 30	; 0xcc
     22c:	55006e51 	strpl	r6, [r0, #-3665]	; 0xfffff1af
     230:	34545241 	ldrbcc	r5, [r4], #-577	; 0xfffffdbf
     234:	5152495f 	cmppl	r2, pc, asr r9
     238:	6d69006e 	stclvs	0, cr0, [r9, #-440]!	; 0xfffffe48
     23c:	6c753678 	ldclvs	6, cr3, [r5], #-480	; 0xfffffe20
     240:	6c635f6c 	stclvs	15, cr5, [r3], #-432	; 0xfffffe50
     244:	5f6b636f 	svcpl	0x006b636f
     248:	74696e69 	strbtvc	r6, [r9], #-3689	; 0xfffff197
     24c:	4d455400 	cfstrdmi	mvd5, [r5, #-0]
     250:	4e4f4d50 	mcrmi	13, 2, r4, cr15, cr0, {2}
     254:	5152495f 	cmppl	r2, pc, asr r9
     258:	4453006e 	ldrbmi	r0, [r3], #-110	; 0xffffff92
     25c:	495f414d 	ldmdbmi	pc, {r0, r2, r3, r6, r8, lr}^	; <UNPREDICTABLE>
     260:	006e5152 	rsbeq	r5, lr, r2, asr r1
     264:	53564e53 	cmppl	r6, #1328	; 0x530
     268:	6365535f 	cmnvs	r5, #2080374785	; 0x7c000001
     26c:	74697275 	strbtvc	r7, [r9], #-629	; 0xfffffd8b
     270:	52495f79 	subpl	r5, r9, #484	; 0x1e4
     274:	52006e51 	andpl	r6, r0, #1296	; 0x510
     278:	72657365 	rsbvc	r7, r5, #-1811939327	; 0x94000001
     27c:	38646576 	stmdacc	r4!, {r1, r2, r4, r5, r6, r8, sl, sp, lr}^
     280:	52495f35 	subpl	r5, r9, #53, 30	; 0xd4
     284:	53006e51 	movwpl	r6, #3665	; 0xe51
     288:	7774666f 	ldrbvc	r6, [r4, -pc, ror #12]!
     28c:	31657261 	cmncc	r5, r1, ror #4
     290:	52495f30 	subpl	r5, r9, #48, 30	; 0xc0
     294:	47006e51 	smlsdmi	r0, r1, lr, r6
     298:	314f4950 	cmpcc	pc, r0, asr r9	; <UNPREDICTABLE>
     29c:	544e495f 	strbpl	r4, [lr], #-2399	; 0xfffff6a1
     2a0:	52495f30 	subpl	r5, r9, #48, 30	; 0xc0
     2a4:	6b006e51 	blvs	1bbf0 <shift+0x1bbf0>
     2a8:	475f7965 	ldrbmi	r7, [pc, -r5, ror #18]
     2ac:	354f4950 	strbcc	r4, [pc, #-2384]	; fffff964 <__bss_end+0x7fefdd50>
     2b0:	695f315f 	ldmdbvs	pc, {r0, r1, r2, r3, r4, r6, r8, ip, sp}^	; <UNPREDICTABLE>
     2b4:	0074696e 	rsbseq	r6, r4, lr, ror #18
     2b8:	5f633269 	svcpl	0x00633269
     2bc:	74696e69 	strbtvc	r6, [r9], #-3689	; 0xfffff197
     2c0:	666f5300 	strbtvs	r5, [pc], -r0, lsl #6
     2c4:	72617774 	rsbvc	r7, r1, #116, 14	; 0x1d00000
     2c8:	495f3165 	ldmdbmi	pc, {r0, r2, r5, r6, r8, ip, sp}^	; <UNPREDICTABLE>
     2cc:	006e5152 	rsbeq	r5, lr, r2, asr r1
     2d0:	5f4d4343 	svcpl	0x004d4343
     2d4:	32515249 	subscc	r5, r1, #-1879048188	; 0x90000004
     2d8:	5152495f 	cmppl	r2, pc, asr r9
     2dc:	6552006e 	ldrbvs	r0, [r2, #-110]	; 0xffffff92
     2e0:	76726573 			; <UNDEFINED> instruction: 0x76726573
     2e4:	35316465 	ldrcc	r6, [r1, #-1125]!	; 0xfffffb9b
     2e8:	52495f38 	subpl	r5, r9, #56, 30	; 0xe0
     2ec:	50006e51 	andpl	r6, r0, r1, asr lr
     2f0:	5f324d57 	svcpl	0x00324d57
     2f4:	6e515249 	cdpvs	2, 5, cr5, cr1, cr9, {2}
     2f8:	54435300 	strbpl	r5, [r3], #-768	; 0xfffffd00
     2fc:	52495f52 	subpl	r5, r9, #328	; 0x148
     300:	495f3051 	ldmdbmi	pc, {r0, r4, r6, ip, sp}^	; <UNPREDICTABLE>
     304:	006e5152 	rsbeq	r5, lr, r2, asr r1
     308:	49415345 	stmdbmi	r1, {r0, r2, r6, r8, r9, ip, lr}^
     30c:	5152495f 	cmppl	r2, pc, asr r9
     310:	6f53006e 	svcvs	0x0053006e
     314:	61777466 	cmnvs	r7, r6, ror #8
     318:	33316572 	teqcc	r1, #478150656	; 0x1c800000
     31c:	5152495f 	cmppl	r2, pc, asr r9
     320:	4153006e 	cmpmi	r3, lr, rrx
     324:	495f3149 	ldmdbmi	pc, {r0, r3, r6, r8, ip, sp}^	; <UNPREDICTABLE>
     328:	006e5152 	rsbeq	r5, lr, r2, asr r1
     32c:	4f495047 	svcmi	0x00495047
     330:	4e495f31 	mcrmi	15, 2, r5, cr9, cr1, {1}
     334:	495f3154 	ldmdbmi	pc, {r2, r4, r6, r8, ip, sp}^	; <UNPREDICTABLE>
     338:	006e5152 	rsbeq	r5, lr, r2, asr r1
     33c:	5f555043 	svcpl	0x00555043
     340:	5f495443 	svcpl	0x00495443
     344:	67697254 			; <UNDEFINED> instruction: 0x67697254
     348:	5f726567 	svcpl	0x00726567
     34c:	6e515249 	cdpvs	2, 5, cr5, cr1, cr9, {2}
     350:	43324900 	teqmi	r2, #0, 18
     354:	52495f34 	subpl	r5, r9, #52, 30	; 0xd0
     358:	47006e51 	smlsdmi	r0, r1, lr, r6
     35c:	354f4950 	strbcc	r4, [pc, #-2384]	; fffffa14 <__bss_end+0x7fefde00>
     360:	6d6f435f 	stclvs	3, cr4, [pc, #-380]!	; 1ec <shift+0x1ec>
     364:	656e6962 	strbvs	r6, [lr, #-2402]!	; 0xfffff69e
     368:	36315f64 	ldrtcc	r5, [r1], -r4, ror #30
     36c:	5f31335f 	svcpl	0x0031335f
     370:	6e515249 	cdpvs	2, 5, cr5, cr1, cr9, {2}
     374:	73655200 	cmnvc	r5, #0, 4
     378:	65767265 	ldrbvs	r7, [r6, #-613]!	; 0xfffffd9b
     37c:	31333164 	teqcc	r3, r4, ror #2
     380:	5152495f 	cmppl	r2, pc, asr r9
     384:	6873006e 	ldmdavs	r3!, {r1, r2, r3, r5, r6}^
     388:	2074726f 	rsbscs	r7, r4, pc, ror #4
     38c:	69736e75 	ldmdbvs	r3!, {r0, r2, r4, r5, r6, r9, sl, fp, sp, lr}^
     390:	64656e67 	strbtvs	r6, [r5], #-3687	; 0xfffff199
     394:	746e6920 	strbtvc	r6, [lr], #-2336	; 0xfffff6e0
     398:	55534300 	ldrbpl	r4, [r3, #-768]	; 0xfffffd00
     39c:	5152495f 	cmppl	r2, pc, asr r9
     3a0:	6552006e 	ldrbvs	r0, [r2, #-110]	; 0xffffff92
     3a4:	76726573 			; <UNDEFINED> instruction: 0x76726573
     3a8:	31316465 	teqcc	r1, r5, ror #8
     3ac:	52495f30 	subpl	r5, r9, #48, 30	; 0xc0
     3b0:	47006e51 	smlsdmi	r0, r1, lr, r6
     3b4:	334f4950 	movtcc	r4, #63824	; 0xf950
     3b8:	6d6f435f 	stclvs	3, cr4, [pc, #-380]!	; 244 <shift+0x244>
     3bc:	656e6962 	strbvs	r6, [lr, #-2402]!	; 0xfffff69e
     3c0:	36315f64 	ldrtcc	r5, [r1], -r4, ror #30
     3c4:	5f31335f 	svcpl	0x0031335f
     3c8:	6e515249 	cdpvs	2, 5, cr5, cr1, cr9, {2}
     3cc:	454e4500 	strbmi	r4, [lr, #-1280]	; 0xfffffb00
     3d0:	495f3154 	ldmdbmi	pc, {r2, r4, r6, r8, ip, sp}^	; <UNPREDICTABLE>
     3d4:	006e5152 	rsbeq	r5, lr, r2, asr r1
     3d8:	6167654c 	cmnvs	r7, ip, asr #10
     3dc:	52497963 	subpl	r7, r9, #1622016	; 0x18c000
     3e0:	52495f51 	subpl	r5, r9, #324	; 0x144
     3e4:	65006e51 	strvs	r6, [r0, #-3665]	; 0xfffff1af
     3e8:	49505343 	ldmdbmi	r0, {r0, r1, r6, r8, r9, ip, lr}^
     3ec:	52495f33 	subpl	r5, r9, #51, 30	; 0xcc
     3f0:	43006e51 	movwmi	r6, #3665	; 0xe51
     3f4:	5f314e41 	svcpl	0x00314e41
     3f8:	6e515249 	cdpvs	2, 5, cr5, cr1, cr9, {2}
     3fc:	42535500 	subsmi	r5, r3, #0, 10
     400:	47544f5f 			; <UNDEFINED> instruction: 0x47544f5f
     404:	52495f31 	subpl	r5, r9, #49, 30	; 0xc4
     408:	5f006e51 	svcpl	0x00006e51
     40c:	32337061 	eorscc	r7, r3, #97	; 0x61
     410:	5f633631 	svcpl	0x00633631
     414:	756c6156 	strbvc	r6, [ip, #-342]!	; 0xfffffeaa
     418:	57500065 	ldrbpl	r0, [r0, -r5, rrx]
     41c:	495f364d 	ldmdbmi	pc, {r0, r2, r3, r6, r9, sl, ip, sp}^	; <UNPREDICTABLE>
     420:	006e5152 	rsbeq	r5, lr, r2, asr r1
     424:	48445355 	stmdami	r4, {r0, r2, r4, r6, r8, r9, ip, lr}^
     428:	495f3143 	ldmdbmi	pc, {r0, r1, r6, r8, ip, sp}^	; <UNPREDICTABLE>
     42c:	006e5152 	rsbeq	r5, lr, r2, asr r1
     430:	74666f53 	strbtvc	r6, [r6], #-3923	; 0xfffff0ad
     434:	65726177 	ldrbvs	r6, [r2, #-375]!	; 0xfffffe89
     438:	52495f32 	subpl	r5, r9, #50, 30	; 0xc8
     43c:	73006e51 	movwvc	r6, #3665	; 0xe51
     440:	74726f68 	ldrbtvc	r6, [r2], #-3944	; 0xfffff098
     444:	746e6920 	strbtvc	r6, [lr], #-2336	; 0xfffff6e0
     448:	73655200 	cmnvc	r5, #0, 4
     44c:	65767265 	ldrbvs	r7, [r6, #-613]!	; 0xfffffd9b
     450:	32323164 	eorscc	r3, r2, #100, 2
     454:	5152495f 	cmppl	r2, pc, asr r9
     458:	6552006e 	ldrbvs	r0, [r2, #-110]	; 0xffffff92
     45c:	76726573 			; <UNDEFINED> instruction: 0x76726573
     460:	30316465 	eorscc	r6, r1, r5, ror #8
     464:	52495f38 	subpl	r5, r9, #56, 30	; 0xe0
     468:	4e006e51 	mcrmi	14, 0, r6, cr0, cr1, {2}
     46c:	7641746f 	strbvc	r7, [r1], -pc, ror #8
     470:	5f6c6961 	svcpl	0x006c6961
     474:	6e515249 	cdpvs	2, 5, cr5, cr1, cr9, {2}
     478:	44505300 	ldrbmi	r5, [r0], #-768	; 0xfffffd00
     47c:	495f4649 	ldmdbmi	pc, {r0, r3, r6, r9, sl, lr}^	; <UNPREDICTABLE>
     480:	006e5152 	rsbeq	r5, lr, r2, asr r1
     484:	52544353 	subspl	r4, r4, #1275068417	; 0x4c000001
     488:	5152495f 	cmppl	r2, pc, asr r9
     48c:	52495f31 	subpl	r5, r9, #49, 30	; 0xc4
     490:	55006e51 	strpl	r6, [r0, #-3665]	; 0xfffff1af
     494:	505f4253 	subspl	r4, pc, r3, asr r2	; <UNPREDICTABLE>
     498:	5f315948 	svcpl	0x00315948
     49c:	6e515249 	cdpvs	2, 5, cr5, cr1, cr9, {2}
     4a0:	49415300 	stmdbmi	r1, {r8, r9, ip, lr}^
     4a4:	52495f32 	subpl	r5, r9, #50, 30	; 0xc8
     4a8:	47006e51 	smlsdmi	r0, r1, lr, r6
     4ac:	314f4950 	cmpcc	pc, r0, asr r9	; <UNPREDICTABLE>
     4b0:	6d6f435f 	stclvs	3, cr4, [pc, #-380]!	; 33c <shift+0x33c>
     4b4:	656e6962 	strbvs	r6, [lr, #-2402]!	; 0xfffff69e
     4b8:	5f305f64 	svcpl	0x00305f64
     4bc:	495f3531 	ldmdbmi	pc, {r0, r4, r5, r8, sl, ip, sp}^	; <UNPREDICTABLE>
     4c0:	006e5152 	rsbeq	r5, lr, r2, asr r1
     4c4:	4f495047 	svcmi	0x00495047
     4c8:	6f435f34 	svcvs	0x00435f34
     4cc:	6e69626d 	cdpvs	2, 6, cr6, cr9, cr13, {3}
     4d0:	305f6465 	subscc	r6, pc, r5, ror #8
     4d4:	5f35315f 	svcpl	0x0035315f
     4d8:	6e515249 	cdpvs	2, 5, cr5, cr1, cr9, {2}
     4dc:	44434c00 	strbmi	r4, [r3], #-3072	; 0xfffff400
     4e0:	495f4649 	ldmdbmi	pc, {r0, r3, r6, r9, sl, lr}^	; <UNPREDICTABLE>
     4e4:	006e5152 	rsbeq	r5, lr, r2, asr r1
     4e8:	474f4457 	smlsldmi	r4, pc, r7, r4	; <UNPREDICTABLE>
     4ec:	52495f33 	subpl	r5, r9, #51, 30	; 0xcc
     4f0:	47006e51 	smlsdmi	r0, r1, lr, r6
     4f4:	314f4950 	cmpcc	pc, r0, asr r9	; <UNPREDICTABLE>
     4f8:	544e495f 	strbpl	r4, [lr], #-2399	; 0xfffff6a1
     4fc:	52495f35 	subpl	r5, r9, #53, 30	; 0xd4
     500:	43006e51 	movwmi	r6, #3665	; 0xe51
     504:	5f4d4141 	svcpl	0x004d4141
     508:	5f626f4a 	svcpl	0x00626f4a
     50c:	676e6952 			; <UNDEFINED> instruction: 0x676e6952
     510:	52495f30 	subpl	r5, r9, #48, 30	; 0xc0
     514:	53006e51 	movwpl	r6, #3665	; 0xe51
     518:	495f434a 	ldmdbmi	pc, {r1, r3, r6, r8, r9, lr}^	; <UNPREDICTABLE>
     51c:	006e5152 	rsbeq	r5, lr, r2, asr r1
     520:	54454e45 	strbpl	r4, [r5], #-3653	; 0xfffff1bb
     524:	52495f32 	subpl	r5, r9, #50, 30	; 0xc8
     528:	52006e51 	andpl	r6, r0, #1296	; 0x510
     52c:	72657365 	rsbvc	r7, r5, #-1811939327	; 0x94000001
     530:	37646576 			; <UNDEFINED> instruction: 0x37646576
     534:	52495f33 	subpl	r5, r9, #51, 30	; 0xcc
     538:	65006e51 	strvs	r6, [r0, #-3665]	; 0xfffff1af
     53c:	49505343 	ldmdbmi	r0, {r0, r1, r6, r8, r9, ip, lr}^
     540:	52495f34 	subpl	r5, r9, #52, 30	; 0xd0
     544:	61006e51 	tstvs	r0, r1, asr lr
     548:	31323370 	teqcc	r2, r0, ror r3
     54c:	725f6336 	subsvc	r6, pc, #-671088640	; 0xd8000000
     550:	00646165 	rsbeq	r6, r4, r5, ror #2
     554:	6167654c 	cmnvs	r7, ip, asr #10
     558:	61467963 	cmpvs	r6, r3, ror #18
     55c:	6e497473 	mcrvs	4, 2, r7, cr9, cr3, {3}
     560:	52495f74 	subpl	r5, r9, #116, 30	; 0x1d0
     564:	44006e51 	strmi	r6, [r0], #-3665	; 0xfffff1af
     568:	535f5043 	cmppl	pc, #67	; 0x43
     56c:	495f4345 	ldmdbmi	pc, {r0, r2, r6, r8, r9, lr}^	; <UNPREDICTABLE>
     570:	495f5152 	ldmdbmi	pc, {r1, r4, r6, r8, ip, lr}^	; <UNPREDICTABLE>
     574:	006e5152 	rsbeq	r5, lr, r2, asr r1
     578:	65736552 	ldrbvs	r6, [r3, #-1362]!	; 0xfffffaae
     57c:	64657672 	strbtvs	r7, [r5], #-1650	; 0xfffff98e
     580:	5f343531 	svcpl	0x00343531
     584:	6e515249 	cdpvs	2, 5, cr5, cr1, cr9, {2}
     588:	554e4700 	strbpl	r4, [lr, #-1792]	; 0xfffff900
     58c:	31314320 	teqcc	r1, r0, lsr #6
     590:	322e3620 	eorcc	r3, lr, #32, 12	; 0x2000000
     594:	3220312e 	eorcc	r3, r0, #-2147483637	; 0x8000000b
     598:	31363130 	teqcc	r6, r0, lsr r1
     59c:	20363130 	eorscs	r3, r6, r0, lsr r1
     5a0:	72616d2d 	rsbvc	r6, r1, #2880	; 0xb40
     5a4:	613d6863 	teqvs	sp, r3, ror #16
     5a8:	37766d72 			; <UNDEFINED> instruction: 0x37766d72
     5ac:	2d20612d 	stfcss	f6, [r0, #-180]!	; 0xffffff4c
     5b0:	6e75746d 	cdpvs	4, 7, cr7, cr5, cr13, {3}
     5b4:	6f633d65 	svcvs	0x00633d65
     5b8:	78657472 	stmdavc	r5!, {r1, r4, r5, r6, sl, ip, sp, lr}^
     5bc:	2039612d 	eorscs	r6, r9, sp, lsr #2
     5c0:	6c666d2d 	stclvs	13, cr6, [r6], #-180	; 0xffffff4c
     5c4:	2d74616f 	ldfcse	f6, [r4, #-444]!	; 0xfffffe44
     5c8:	3d696261 	sfmcc	f6, 2, [r9, #-388]!	; 0xfffffe7c
     5cc:	64726168 	ldrbtvs	r6, [r2], #-360	; 0xfffffe98
     5d0:	666d2d20 	strbtvs	r2, [sp], -r0, lsr #26
     5d4:	763d7570 			; <UNDEFINED> instruction: 0x763d7570
     5d8:	33767066 	cmncc	r6, #102	; 0x66
     5dc:	3631642d 	ldrtcc	r6, [r1], -sp, lsr #8
     5e0:	746d2d20 	strbtvc	r2, [sp], #-3360	; 0xfffff2e0
     5e4:	626d7568 	rsbvs	r7, sp, #104, 10	; 0x1a000000
     5e8:	746d2d20 	strbtvc	r2, [sp], #-3360	; 0xfffff2e0
     5ec:	642d736c 	strtvs	r7, [sp], #-876	; 0xfffffc94
     5f0:	656c6169 	strbvs	r6, [ip, #-361]!	; 0xfffffe97
     5f4:	673d7463 	ldrvs	r7, [sp, -r3, ror #8]!
     5f8:	2d20756e 	cfstr32cs	mvfx7, [r0, #-440]!	; 0xfffffe48
     5fc:	4f2d2067 	svcmi	0x002d2067
     600:	662d2032 			; <UNDEFINED> instruction: 0x662d2032
     604:	622d6f6e 	eorvs	r6, sp, #440	; 0x1b8
     608:	746c6975 	strbtvc	r6, [ip], #-2421	; 0xfffff68b
     60c:	44006e69 	strmi	r6, [r0], #-3689	; 0xfffff197
     610:	565f5043 	ldrbpl	r5, [pc], -r3, asr #32
     614:	495f494d 	ldmdbmi	pc, {r0, r2, r3, r6, r8, fp, lr}^	; <UNPREDICTABLE>
     618:	495f5152 	ldmdbmi	pc, {r1, r4, r6, r8, ip, lr}^	; <UNPREDICTABLE>
     61c:	006e5152 	rsbeq	r5, lr, r2, asr r1
     620:	374d5750 	smlsldcc	r5, sp, r0, r7
     624:	5152495f 	cmppl	r2, pc, asr r9
     628:	4e53006e 	cdpmi	0, 5, cr0, cr3, cr14, {3}
     62c:	435f5356 	cmpmi	pc, #1476395009	; 0x58000001
     630:	6f736e6f 	svcvs	0x00736e6f
     634:	6164696c 	cmnvs	r4, ip, ror #18
     638:	5f646574 	svcpl	0x00646574
     63c:	6e515249 	cdpvs	2, 5, cr5, cr1, cr9, {2}
     640:	33706100 	cmncc	r0, #0, 2
     644:	63363132 	teqvs	r6, #-2147483636	; 0x8000000c
     648:	6c61565f 	stclvs	6, cr5, [r1], #-380	; 0xfffffe84
     64c:	745f6575 	ldrbvc	r6, [pc], #-1397	; 654 <shift+0x654>
     650:	70794800 	rsbsvc	r4, r9, r0, lsl #16
     654:	69767265 	ldmdbvs	r6!, {r0, r2, r5, r6, r9, ip, sp, lr}^
     658:	54726f73 	ldrbtpl	r6, [r2], #-3955	; 0xfffff08d
     65c:	72656d69 	rsbvc	r6, r5, #6720	; 0x1a40
     660:	5152495f 	cmppl	r2, pc, asr r9
     664:	6f53006e 	svcvs	0x0053006e
     668:	61777466 	cmnvs	r7, r6, ror #8
     66c:	5f336572 	svcpl	0x00336572
     670:	6e515249 	cdpvs	2, 5, cr5, cr1, cr9, {2}
     674:	534c4100 	movtpl	r4, #49408	; 0xc100
     678:	756c6156 	strbvc	r6, [ip, #-342]!	; 0xfffffeaa
     67c:	504b0065 	subpl	r0, fp, r5, rrx
     680:	52495f50 	subpl	r5, r9, #80, 30	; 0x140
     684:	55006e51 	strpl	r6, [r0, #-3665]	; 0xfffff1af
     688:	31545241 	cmpcc	r4, r1, asr #4
     68c:	5152495f 	cmppl	r2, pc, asr r9
     690:	4153006e 	cmpmi	r3, lr, rrx
     694:	525f3349 	subspl	r3, pc, #603979777	; 0x24000001
     698:	52495f58 	subpl	r5, r9, #88, 30	; 0x160
     69c:	47006e51 	smlsdmi	r0, r1, lr, r6
     6a0:	5f315450 	svcpl	0x00315450
     6a4:	6e515249 	cdpvs	2, 5, cr5, cr1, cr9, {2}
     6a8:	4e414300 	cdpmi	3, 4, cr4, cr1, cr0, {0}
     6ac:	52495f32 	subpl	r5, r9, #50, 30	; 0xc8
     6b0:	56006e51 			; <UNDEFINED> instruction: 0x56006e51
     6b4:	75747269 	ldrbvc	r7, [r4, #-617]!	; 0xfffffd97
     6b8:	69546c61 	ldmdbvs	r4, {r0, r5, r6, sl, fp, sp, lr}^
     6bc:	5f72656d 	svcpl	0x0072656d
     6c0:	6e515249 	cdpvs	2, 5, cr5, cr1, cr9, {2}
     6c4:	49415300 	stmdbmi	r1, {r8, r9, ip, lr}^
     6c8:	58545f33 	ldmdapl	r4, {r0, r1, r4, r5, r8, r9, sl, fp, ip, lr}^
     6cc:	5152495f 	cmppl	r2, pc, asr r9
     6d0:	5850006e 	ldmdapl	r0, {r1, r2, r3, r5, r6}^
     6d4:	52495f50 	subpl	r5, r9, #80, 30	; 0x140
     6d8:	495f3051 	ldmdbmi	pc, {r0, r4, r6, ip, sp}^	; <UNPREDICTABLE>
     6dc:	006e5152 	rsbeq	r5, lr, r2, asr r1
     6e0:	5f64656c 	svcpl	0x0064656c
     6e4:	74696e69 	strbtvc	r6, [r9], #-3689	; 0xfffff197
     6e8:	57415200 	strbpl	r5, [r1, -r0, lsl #4]
     6ec:	444e414e 	strbmi	r4, [lr], #-334	; 0xfffffeb2
     6f0:	4843425f 	stmdami	r3, {r0, r1, r2, r3, r4, r6, r9, lr}^
     6f4:	5152495f 	cmppl	r2, pc, asr r9
     6f8:	5047006e 	subpl	r0, r7, lr, rrx
     6fc:	5f314f49 	svcpl	0x00314f49
     700:	36544e49 	ldrbcc	r4, [r4], -r9, asr #28
     704:	5152495f 	cmppl	r2, pc, asr r9
     708:	4143006e 	cmpmi	r3, lr, rrx
     70c:	4a5f4d41 	bmi	17d3c18 <shift+0x17d3c18>
     710:	525f626f 	subspl	r6, pc, #-268435450	; 0xf0000006
     714:	31676e69 	cmncc	r7, r9, ror #28
     718:	5152495f 	cmppl	r2, pc, asr r9
     71c:	6552006e 	ldrbvs	r0, [r2, #-110]	; 0xffffff92
     720:	76726573 			; <UNDEFINED> instruction: 0x76726573
     724:	33316465 	teqcc	r1, #1694498816	; 0x65000000
     728:	52495f35 	subpl	r5, r9, #53, 30	; 0xd4
     72c:	75006e51 	strvc	r6, [r0, #-3665]	; 0xfffff1af
     730:	6769736e 	strbvs	r7, [r9, -lr, ror #6]!
     734:	2064656e 	rsbcs	r6, r4, lr, ror #10
     738:	72616863 	rsbvc	r6, r1, #6488064	; 0x630000
     73c:	666f5300 	strbtvs	r5, [pc], -r0, lsl #6
     740:	72617774 	rsbvc	r7, r1, #116, 14	; 0x1d00000
     744:	495f3765 	ldmdbmi	pc, {r0, r2, r5, r6, r8, r9, sl, ip, sp}^	; <UNPREDICTABLE>
     748:	006e5152 	rsbeq	r5, lr, r2, asr r1
     74c:	65736552 	ldrbvs	r6, [r3, #-1362]!	; 0xfffffaae
     750:	64657672 	strbtvs	r7, [r5], #-1650	; 0xfffff98e
     754:	5f353531 	svcpl	0x00353531
     758:	6e515249 	cdpvs	2, 5, cr5, cr1, cr9, {2}
     75c:	43444100 	movtmi	r4, #16640	; 0x4100
     760:	52495f31 	subpl	r5, r9, #49, 30	; 0xc4
     764:	50006e51 	andpl	r6, r0, r1, asr lr
     768:	5f384d57 	svcpl	0x00384d57
     76c:	6e515249 	cdpvs	2, 5, cr5, cr1, cr9, {2}
     770:	52415500 	subpl	r5, r1, #0, 10
     774:	495f3554 	ldmdbmi	pc, {r2, r4, r6, r8, sl, ip, sp}^	; <UNPREDICTABLE>
     778:	006e5152 	rsbeq	r5, lr, r2, asr r1
     77c:	656a624f 	strbvs	r6, [sl, #-591]!	; 0xfffffdb1
     780:	645f7463 	ldrbvs	r7, [pc], #-1123	; 788 <shift+0x788>
     784:	63657465 	cmnvs	r5, #1694498816	; 0x65000000
     788:	6f530074 	svcvs	0x00530074
     78c:	61777466 	cmnvs	r7, r6, ror #8
     790:	5f396572 	svcpl	0x00396572
     794:	6e515249 	cdpvs	2, 5, cr5, cr1, cr9, {2}
     798:	43324900 	teqmi	r2, #0, 18
     79c:	52495f31 	subpl	r5, r9, #49, 30	; 0xc4
     7a0:	47006e51 	smlsdmi	r0, r1, lr, r6
     7a4:	314f4950 	cmpcc	pc, r0, asr r9	; <UNPREDICTABLE>
     7a8:	6d6f435f 	stclvs	3, cr4, [pc, #-380]!	; 634 <shift+0x634>
     7ac:	656e6962 	strbvs	r6, [lr, #-2402]!	; 0xfffff69e
     7b0:	36315f64 	ldrtcc	r5, [r1], -r4, ror #30
     7b4:	5f31335f 	svcpl	0x0031335f
     7b8:	6e515249 	cdpvs	2, 5, cr5, cr1, cr9, {2}
     7bc:	54504700 	ldrbpl	r4, [r0], #-1792	; 0xfffff900
     7c0:	52495f32 	subpl	r5, r9, #50, 30	; 0xc8
     7c4:	49006e51 	stmdbmi	r0, {r0, r4, r6, r9, sl, fp, sp, lr}
     7c8:	58554d4f 	ldmdapl	r5, {r0, r1, r2, r3, r6, r8, sl, fp, lr}^
     7cc:	52495f43 	subpl	r5, r9, #268	; 0x10c
     7d0:	52006e51 	andpl	r6, r0, #1296	; 0x510
     7d4:	72657365 	rsbvc	r7, r5, #-1811939327	; 0x94000001
     7d8:	31646576 	smccc	18006	; 0x4656
     7dc:	495f3434 	ldmdbmi	pc, {r2, r4, r5, sl, ip, sp}^	; <UNPREDICTABLE>
     7e0:	006e5152 	rsbeq	r5, lr, r2, asr r1
     7e4:	5f505850 	svcpl	0x00505850
     7e8:	31515249 	cmpcc	r1, r9, asr #4
     7ec:	5152495f 	cmppl	r2, pc, asr r9
     7f0:	5043006e 	subpl	r0, r3, lr, rrx
     7f4:	65505f55 	ldrbvs	r5, [r0, #-3925]	; 0xfffff0ab
     7f8:	726f6672 	rsbvc	r6, pc, #119537664	; 0x7200000
     7fc:	636e616d 	cmnvs	lr, #1073741851	; 0x4000001b
     800:	696e5565 	stmdbvs	lr!, {r0, r2, r5, r6, r8, sl, ip, lr}^
     804:	52495f74 	subpl	r5, r9, #116, 30	; 0x1d0
     808:	47006e51 	smlsdmi	r0, r1, lr, r6
     80c:	344f4950 	strbcc	r4, [pc], #-2384	; 814 <shift+0x814>
     810:	5f36315f 	svcpl	0x0036315f
     814:	74696e69 	strbtvc	r6, [r9], #-3689	; 0xfffff197
     818:	4d575000 	ldclmi	0, cr5, [r7, #-0]
     81c:	52495f33 	subpl	r5, r9, #51, 30	; 0xcc
     820:	41006e51 	tstmi	r0, r1, asr lr
     824:	5f435253 	svcpl	0x00435253
     828:	6e515249 	cdpvs	2, 5, cr5, cr1, cr9, {2}
     82c:	666f5300 	strbtvs	r5, [pc], -r0, lsl #6
     830:	72617774 	rsbvc	r7, r1, #116, 14	; 0x1d00000
     834:	5f343165 	svcpl	0x00343165
     838:	6e515249 	cdpvs	2, 5, cr5, cr1, cr9, {2}
     83c:	666f5300 	strbtvs	r5, [pc], -r0, lsl #6
     840:	72617774 	rsbvc	r7, r1, #116, 14	; 0x1d00000
     844:	495f3865 	ldmdbmi	pc, {r0, r2, r5, r6, fp, ip, sp}^	; <UNPREDICTABLE>
     848:	006e5152 	rsbeq	r5, lr, r2, asr r1
     84c:	5f434441 	svcpl	0x00434441
     850:	5f434835 	svcpl	0x00434835
     854:	6e515249 	cdpvs	2, 5, cr5, cr1, cr9, {2}
     858:	73655200 	cmnvc	r5, #0, 4
     85c:	65767265 	ldrbvs	r7, [r6, #-613]!	; 0xfffffd9b
     860:	36353164 	ldrtcc	r3, [r5], -r4, ror #2
     864:	5152495f 	cmppl	r2, pc, asr r9
     868:	5045006e 	subpl	r0, r5, lr, rrx
     86c:	5f315449 	svcpl	0x00315449
     870:	6e515249 	cdpvs	2, 5, cr5, cr1, cr9, {2}
     874:	50434400 	subpl	r4, r3, r0, lsl #8
     878:	5152495f 	cmppl	r2, pc, asr r9
     87c:	5152495f 	cmppl	r2, pc, asr r9
     880:	4155006e 	cmpmi	r5, lr, rrx
     884:	5f365452 	svcpl	0x00365452
     888:	6e515249 	cdpvs	2, 5, cr5, cr1, cr9, {2}
     88c:	49504700 	ldmdbmi	r0, {r8, r9, sl, lr}^
     890:	435f324f 	cmpmi	pc, #-268435452	; 0xf0000004
     894:	69626d6f 	stmdbvs	r2!, {r0, r1, r2, r3, r5, r6, r8, sl, fp, sp, lr}^
     898:	5f64656e 	svcpl	0x0064656e
     89c:	35315f30 	ldrcc	r5, [r1, #-3888]!	; 0xfffff0d0
     8a0:	5152495f 	cmppl	r2, pc, asr r9
     8a4:	6155006e 	cmpvs	r5, lr, rrx
     8a8:	495f7472 	ldmdbmi	pc, {r1, r4, r5, r6, sl, ip, sp, lr}^	; <UNPREDICTABLE>
     8ac:	0074696e 	rsbseq	r6, r4, lr, ror #18
     8b0:	4f495047 	svcmi	0x00495047
     8b4:	6f435f35 	svcvs	0x00435f35
     8b8:	6e69626d 	cdpvs	2, 6, cr6, cr9, cr13, {3}
     8bc:	305f6465 	subscc	r6, pc, r5, ror #8
     8c0:	5f35315f 	svcpl	0x0035315f
     8c4:	6e515249 	cdpvs	2, 5, cr5, cr1, cr9, {2}
     8c8:	43324900 	teqmi	r2, #0, 18
     8cc:	52495f32 	subpl	r5, r9, #50, 30	; 0xc8
     8d0:	44006e51 	strmi	r6, [r0], #-3665	; 0xfffff1af
     8d4:	495f5041 	ldmdbmi	pc, {r0, r6, ip, lr}^	; <UNPREDICTABLE>
     8d8:	006e5152 	rsbeq	r5, lr, r2, asr r1
     8dc:	4f495047 	svcmi	0x00495047
     8e0:	4e495f31 	mcrmi	15, 2, r5, cr9, cr1, {1}
     8e4:	495f3254 	ldmdbmi	pc, {r2, r4, r6, r9, ip, sp}^	; <UNPREDICTABLE>
     8e8:	006e5152 	rsbeq	r5, lr, r2, asr r1
     8ec:	5f425355 	svcpl	0x00425355
     8f0:	3247544f 	subcc	r5, r7, #1325400064	; 0x4f000000
     8f4:	5152495f 	cmppl	r2, pc, asr r9
     8f8:	5355006e 	cmppl	r5, #110	; 0x6e
     8fc:	32434844 	subcc	r4, r3, #68, 16	; 0x440000
     900:	5152495f 	cmppl	r2, pc, asr r9
     904:	616d006e 	cmnvs	sp, lr, rrx
     908:	632e6e69 			; <UNDEFINED> instruction: 0x632e6e69
     90c:	53436500 	movtpl	r6, #13568	; 0x3500
     910:	5f314950 	svcpl	0x00314950
     914:	6e515249 	cdpvs	2, 5, cr5, cr1, cr9, {2}
     918:	49504700 	ldmdbmi	r0, {r8, r9, sl, lr}^
     91c:	495f314f 	ldmdbmi	pc, {r0, r1, r2, r3, r6, r8, ip, sp}^	; <UNPREDICTABLE>
     920:	5f37544e 	svcpl	0x0037544e
     924:	6e515249 	cdpvs	2, 5, cr5, cr1, cr9, {2}
     928:	49455700 	stmdbmi	r5, {r8, r9, sl, ip, lr}^
     92c:	52495f4d 	subpl	r5, r9, #308	; 0x134
     930:	52006e51 	andpl	r6, r0, #1296	; 0x510
     934:	72657365 	rsbvc	r7, r5, #-1811939327	; 0x94000001
     938:	31646576 	smccc	18006	; 0x4656
     93c:	495f3930 	ldmdbmi	pc, {r4, r5, r8, fp, ip, sp}^	; <UNPREDICTABLE>
     940:	006e5152 	rsbeq	r5, lr, r2, asr r1
     944:	344d5750 	strbcc	r5, [sp], #-1872	; 0xfffff8b0
     948:	5152495f 	cmppl	r2, pc, asr r9
     94c:	6552006e 	ldrbvs	r0, [r2, #-110]	; 0xffffff92
     950:	76726573 			; <UNDEFINED> instruction: 0x76726573
     954:	34316465 	ldrtcc	r6, [r1], #-1125	; 0xfffffb9b
     958:	52495f35 	subpl	r5, r9, #53, 30	; 0xd4
     95c:	49006e51 	stmdbmi	r0, {r0, r4, r6, r9, sl, fp, sp, lr}
     960:	6c615652 	stclvs	6, cr5, [r1], #-328	; 0xfffffeb8
     964:	53006575 	movwpl	r6, #1397	; 0x575
     968:	7774666f 	ldrbvc	r6, [r4, -pc, ror #12]!
     96c:	30657261 	rsbcc	r7, r5, r1, ror #4
     970:	5152495f 	cmppl	r2, pc, asr r9
     974:	6f4e006e 	svcvs	0x004e006e
     978:	6365536e 	cmnvs	r5, #-1207959551	; 0xb8000001
     97c:	50657275 	rsbpl	r7, r5, r5, ror r2
     980:	69547968 	ldmdbvs	r4, {r3, r5, r6, r8, fp, ip, sp, lr}^
     984:	5f72656d 	svcpl	0x0072656d
     988:	6e515249 	cdpvs	2, 5, cr5, cr1, cr9, {2}
     98c:	43525300 	cmpmi	r2, #0, 6
     990:	6d6f435f 	stclvs	3, cr4, [pc, #-380]!	; 81c <shift+0x81c>
     994:	656e6962 	strbvs	r6, [lr, #-2402]!	; 0xfffff69e
     998:	52495f64 	subpl	r5, r9, #100, 30	; 0x190
     99c:	52006e51 	andpl	r6, r0, #1296	; 0x510
     9a0:	72657365 	rsbvc	r7, r5, #-1811939327	; 0x94000001
     9a4:	31646576 	smccc	18006	; 0x4656
     9a8:	495f3735 	ldmdbmi	pc, {r0, r2, r4, r5, r8, r9, sl, ip, sp}^	; <UNPREDICTABLE>
     9ac:	006e5152 	rsbeq	r5, lr, r2, asr r1
     9b0:	54495045 	strbpl	r5, [r9], #-69	; 0xffffffbb
     9b4:	52495f32 	subpl	r5, r9, #50, 30	; 0xc8
     9b8:	73006e51 	movwvc	r6, #3665	; 0xe51
     9bc:	74657a69 	strbtvc	r7, [r5], #-2665	; 0xfffff597
     9c0:	00657079 	rsbeq	r7, r5, r9, ror r0
     9c4:	61565350 	cmpvs	r6, r0, asr r3
     9c8:	0065756c 	rsbeq	r7, r5, ip, ror #10
     9cc:	54454e45 	strbpl	r4, [r5], #-3653	; 0xfffff1bb
     9d0:	35315f32 	ldrcc	r5, [r1, #-3890]!	; 0xfffff0ce
     9d4:	495f3838 	ldmdbmi	pc, {r3, r4, r5, fp, ip, sp}^	; <UNPREDICTABLE>
     9d8:	006e5152 	rsbeq	r5, lr, r2, asr r1
     9dc:	5f435047 	svcpl	0x00435047
     9e0:	6e515249 	cdpvs	2, 5, cr5, cr1, cr9, {2}
     9e4:	4f445700 	svcmi	0x00445700
     9e8:	495f3147 	ldmdbmi	pc, {r0, r1, r2, r6, r8, ip, sp}^	; <UNPREDICTABLE>
     9ec:	006e5152 	rsbeq	r5, lr, r2, asr r1
     9f0:	4e574152 	mrcmi	1, 2, r4, cr7, cr2, {2}
     9f4:	5f444e41 	svcpl	0x00444e41
     9f8:	494d5047 	stmdbmi	sp, {r0, r1, r2, r6, ip, lr}^
     9fc:	5152495f 	cmppl	r2, pc, asr r9
     a00:	5047006e 	subpl	r0, r7, lr, rrx
     a04:	5f344f49 	svcpl	0x00344f49
     a08:	626d6f43 	rsbvs	r6, sp, #268	; 0x10c
     a0c:	64656e69 	strbtvs	r6, [r5], #-3689	; 0xfffff197
     a10:	5f36315f 	svcpl	0x0036315f
     a14:	495f3133 	ldmdbmi	pc, {r0, r1, r4, r5, r8, ip, sp}^	; <UNPREDICTABLE>
     a18:	006e5152 	rsbeq	r5, lr, r2, asr r1
     a1c:	4f495047 	svcmi	0x00495047
     a20:	4e495f31 	mcrmi	15, 2, r5, cr9, cr1, {1}
     a24:	495f3354 	ldmdbmi	pc, {r2, r4, r6, r8, r9, ip, sp}^	; <UNPREDICTABLE>
     a28:	006e5152 	rsbeq	r5, lr, r2, asr r1
     a2c:	6e69616d 	powvsez	f6, f1, #5.0
     a30:	53436500 	movtpl	r6, #13568	; 0x3500
     a34:	5f324950 	svcpl	0x00324950
     a38:	6e515249 	cdpvs	2, 5, cr5, cr1, cr9, {2}
     a3c:	666f5300 	strbtvs	r5, [pc], -r0, lsl #6
     a40:	72617774 	rsbvc	r7, r1, #116, 14	; 0x1d00000
     a44:	495f3465 	ldmdbmi	pc, {r0, r2, r5, r6, sl, ip, sp}^	; <UNPREDICTABLE>
     a48:	006e5152 	rsbeq	r5, lr, r2, asr r1
     a4c:	74666f53 	strbtvc	r6, [r6], #-3923	; 0xfffff0ad
     a50:	65726177 	ldrbvs	r6, [r2, #-375]!	; 0xfffffe89
     a54:	495f3531 	ldmdbmi	pc, {r0, r4, r5, r8, sl, ip, sp}^	; <UNPREDICTABLE>
     a58:	006e5152 	rsbeq	r5, lr, r2, asr r1
     a5c:	5f746e69 	svcpl	0x00746e69
     a60:	74696e69 	strbtvc	r6, [r9], #-3689	; 0xfffff197
     a64:	72757400 	rsbsvc	r7, r5, #0, 8
     a68:	666f5f6e 	strbtvs	r5, [pc], -lr, ror #30
     a6c:	656c5f66 	strbvs	r5, [ip, #-3942]!	; 0xfffff09a
     a70:	67003264 	strvs	r3, [r0, -r4, ror #4]
     a74:	5f6f6970 	svcpl	0x006f6970
     a78:	5f746573 	svcpl	0x00746573
     a7c:	5f6e6970 	svcpl	0x006e6970
     a80:	756c6176 	strbvc	r6, [ip, #-374]!	; 0xfffffe8a
     a84:	75740065 	ldrbvc	r0, [r4, #-101]!	; 0xffffff9b
     a88:	6f5f6e72 	svcvs	0x005f6e72
     a8c:	656c5f6e 	strbvs	r5, [ip, #-3950]!	; 0xfffff092
     a90:	47003264 	strmi	r3, [r0, -r4, ror #4]
     a94:	5f4f4950 	svcpl	0x004f4950
     a98:	31524349 	cmpcc	r2, r9, asr #6
     a9c:	49504700 	ldmdbmi	r0, {r8, r9, sl, lr}^
     aa0:	43495f4f 	movtmi	r5, #40783	; 0x9f4f
     aa4:	47003252 	smlsdmi	r0, r2, r2, r3
     aa8:	5f4f4950 	svcpl	0x004f4950
     aac:	00524d49 	subseq	r4, r2, r9, asr #26
     ab0:	45544e49 	ldrbmi	r4, [r4, #-3657]	; 0xfffff1b7
     ab4:	50555252 	subspl	r5, r5, r2, asr r2
     ab8:	656c0054 	strbvs	r0, [ip, #-84]!	; 0xffffffac
     abc:	74635f64 	strbtvc	r5, [r3], #-3940	; 0xfffff09c
     ac0:	656c006c 	strbvs	r0, [ip, #-108]!	; 0xffffff94
     ac4:	00632e64 	rsbeq	r2, r3, r4, ror #28
     ac8:	4f495047 	svcmi	0x00495047
     acc:	5253495f 	subspl	r4, r3, #1556480	; 0x17c000
     ad0:	504e4900 	subpl	r4, lr, r0, lsl #18
     ad4:	47005455 	smlsdmi	r0, r5, r4, r5
     ad8:	5f4f4950 	svcpl	0x004f4950
     adc:	45474445 	strbmi	r4, [r7, #-1093]	; 0xfffffbbb
     ae0:	4c45535f 	mcrrmi	3, 5, r5, r5, cr15
     ae4:	70675f00 	rsbvc	r5, r7, r0, lsl #30
     ae8:	6d5f6f69 	ldclvs	15, cr6, [pc, #-420]	; 94c <shift+0x94c>
     aec:	0065646f 	rsbeq	r6, r5, pc, ror #8
     af0:	6f697067 	svcvs	0x00697067
     af4:	7465735f 	strbtvc	r7, [r5], #-863	; 0xfffffca1
     af8:	6e69705f 	mcrvs	0, 3, r7, cr9, cr15, {2}
     afc:	646f6d5f 	strbtvs	r6, [pc], #-3423	; b04 <shift+0xb04>
     b00:	50470065 	subpl	r0, r7, r5, rrx
     b04:	475f4f49 	ldrbmi	r4, [pc, -r9, asr #30]
     b08:	70756f72 	rsbsvc	r6, r5, r2, ror pc
     b0c:	4700745f 	smlsdmi	r0, pc, r4, r7	; <UNPREDICTABLE>
     b10:	5f4f4950 	svcpl	0x004f4950
     b14:	52494447 	subpl	r4, r9, #1191182336	; 0x47000000
     b18:	49504700 	ldmdbmi	r0, {r8, r9, sl, lr}^
     b1c:	53505f4f 	cmppl	r0, #316	; 0x13c
     b20:	50470052 	subpl	r0, r7, r2, asr r0
     b24:	445f4f49 	ldrbmi	r4, [pc], #-3913	; b2c <shift+0xb2c>
     b28:	554f0052 	strbpl	r0, [pc, #-82]	; ade <shift+0xade>
     b2c:	54555054 	ldrbpl	r5, [r5], #-84	; 0xffffffac
     b30:	49504700 	ldmdbmi	r0, {r8, r9, sl, lr}^
     b34:	475f354f 	ldrbmi	r3, [pc, -pc, asr #10]
     b38:	70756f72 	rsbsvc	r6, r5, r2, ror pc
     b3c:	69706700 	ldmdbvs	r0!, {r8, r9, sl, sp, lr}^
     b40:	6f6d5f6f 	svcvs	0x006d5f6f
     b44:	745f6564 	ldrbvc	r6, [pc], #-1380	; b4c <shift+0xb4c>
     b48:	574f4c00 	strbpl	r4, [pc, -r0, lsl #24]
     b4c:	56454c5f 			; <UNDEFINED> instruction: 0x56454c5f
     b50:	64004c45 	strvs	r4, [r0], #-3141	; 0xfffff3bb
     b54:	00617461 	rsbeq	r7, r1, r1, ror #8
     b58:	49534952 	ldmdbmi	r3, {r1, r4, r6, r8, fp, lr}^
     b5c:	455f474e 	ldrbmi	r4, [pc, #-1870]	; 416 <shift+0x416>
     b60:	00454744 	subeq	r4, r5, r4, asr #14
     b64:	6f697067 	svcvs	0x00697067
     b68:	4600632e 	strmi	r6, [r0], -lr, lsr #6
     b6c:	494c4c41 	stmdbmi	ip, {r0, r6, sl, fp, lr}^
     b70:	455f474e 	ldrbmi	r4, [pc, #-1870]	; 42a <shift+0x42a>
     b74:	00454744 	subeq	r4, r5, r4, asr #14
     b78:	536e6970 	cmnpl	lr, #112, 18	; 0x1c0000
     b7c:	74666968 	strbtvc	r6, [r6], #-2408	; 0xfffff698
     b80:	47494800 	strbmi	r4, [r9, -r0, lsl #16]
     b84:	454c5f48 	strbmi	r5, [ip, #-3912]	; 0xfffff0b8
     b88:	004c4556 	subeq	r4, ip, r6, asr r5
     b8c:	6f697067 	svcvs	0x00697067
     b90:	746e695f 	strbtvc	r6, [lr], #-2399	; 0xfffff6a1
     b94:	65646f4d 	strbvs	r6, [r4, #-3917]!	; 0xfffff0b3
     b98:	4700745f 	smlsdmi	r0, pc, r4, r7	; <UNPREDICTABLE>
     b9c:	784f4950 	stmdavc	pc, {r4, r6, r8, fp, lr}^	; <UNPREDICTABLE>
     ba0:	69706700 	ldmdbvs	r0!, {r8, r9, sl, sp, lr}^
     ba4:	65735f6f 	ldrbvs	r5, [r3, #-3951]!	; 0xfffff091
     ba8:	6e695f74 	mcrvs	15, 3, r5, cr9, cr4, {3}
     bac:	646f4d74 	strbtvs	r4, [pc], #-3444	; bb4 <shift+0xbb4>
     bb0:	70670065 	rsbvc	r0, r7, r5, rrx
     bb4:	675f6f69 	ldrbvs	r6, [pc, -r9, ror #30]
     bb8:	705f7465 	subsvc	r7, pc, r5, ror #8
     bbc:	765f6e69 	ldrbvc	r6, [pc], -r9, ror #28
     bc0:	65756c61 	ldrbvs	r6, [r5, #-3169]!	; 0xfffff39f
     bc4:	70675f00 	rsbvc	r5, r7, r0, lsl #30
     bc8:	695f6f69 	ldmdbvs	pc, {r0, r3, r5, r6, r8, r9, sl, fp, sp, lr}^	; <UNPREDICTABLE>
     bcc:	6f4d746e 	svcvs	0x004d746e
     bd0:	50006564 	andpl	r6, r0, r4, ror #10
     bd4:	5f334c4c 	svcpl	0x00334c4c
     bd8:	5f444650 	svcpl	0x00444650
     bdc:	74696e69 	strbtvc	r6, [r9], #-3689	; 0xfffff197
     be0:	42484100 	submi	r4, r8, #0, 2
     be4:	4b4c435f 	blmi	1311968 <shift+0x1311968>
     be8:	4f4f525f 	svcmi	0x004f525f
     bec:	6e695f54 	mcrvs	15, 3, r5, cr9, cr4, {2}
     bf0:	63007469 	movwvs	r7, #1129	; 0x469
     bf4:	6b636f6c 	blvs	18dc9ac <shift+0x18dc9ac>
     bf8:	696e695f 	stmdbvs	lr!, {r0, r1, r2, r3, r4, r6, r8, fp, sp, lr}^
     bfc:	00632e74 	rsbeq	r2, r3, r4, ror lr
     c00:	54524155 	ldrbpl	r4, [r2], #-341	; 0xfffffeab
     c04:	4b4c435f 	blmi	1311988 <shift+0x1311988>
     c08:	4f4f525f 	svcmi	0x004f525f
     c0c:	6e695f54 	mcrvs	15, 3, r5, cr9, cr4, {2}
     c10:	50007469 	andpl	r7, r0, r9, ror #8
     c14:	4c435245 	sfmmi	f5, 2, [r3], {69}	; 0x45
     c18:	4c435f4b 	mcrrmi	15, 4, r5, r3, cr11
     c1c:	4f525f4b 	svcmi	0x00525f4b
     c20:	695f544f 	ldmdbvs	pc, {r0, r1, r2, r3, r6, sl, ip, lr}^	; <UNPREDICTABLE>
     c24:	0074696e 	rsbseq	r6, r4, lr, ror #18
     c28:	324c4c50 	subcc	r4, ip, #80, 24	; 0x5000
     c2c:	4446505f 	strbmi	r5, [r6], #-95	; 0xffffffa1
     c30:	696e695f 	stmdbvs	lr!, {r0, r1, r2, r3, r4, r6, r8, fp, sp, lr}^
     c34:	4f490074 	svcmi	0x00490074
     c38:	4358554d 	cmpmi	r8, #322961408	; 0x13400000
     c3c:	5f57535f 	svcpl	0x0057535f
     c40:	5f58554d 	svcpl	0x0058554d
     c44:	5f4c5443 	svcpl	0x004c5443
     c48:	5f444150 	svcpl	0x00444150
     c4c:	54524155 	ldrbpl	r4, [r2], #-341	; 0xfffffeab
     c50:	58545f31 	ldmdapl	r4, {r0, r4, r5, r8, r9, sl, fp, ip, lr}^
     c54:	5441445f 	strbpl	r4, [r1], #-1119	; 0xfffffba1
     c58:	41550041 	cmpmi	r5, r1, asr #32
     c5c:	545f5452 	ldrbpl	r5, [pc], #-1106	; c64 <shift+0xc64>
     c60:	00657079 	rsbeq	r7, r5, r9, ror r0
     c64:	43524255 	cmpmi	r2, #1342177285	; 0x50000005
     c68:	72617500 	rsbvc	r7, r1, #0, 10
     c6c:	00632e74 	rsbeq	r2, r3, r4, ror lr
     c70:	52434d55 	subpl	r4, r3, #5440	; 0x1540
     c74:	74654700 	strbtvc	r4, [r5], #-1792	; 0xfffff900
     c78:	72616843 	rsbvc	r6, r1, #4390912	; 0x430000
     c7c:	58525500 	ldmdapl	r2, {r8, sl, ip, lr}^
     c80:	43550044 	cmpmi	r5, #68	; 0x44
     c84:	55003152 	strpl	r3, [r0, #-338]	; 0xfffffeae
     c88:	00325243 	eorseq	r5, r2, r3, asr #4
     c8c:	33524355 	cmpcc	r2, #1409286145	; 0x54000001
     c90:	52435500 	subpl	r5, r3, #0, 10
     c94:	75500034 	ldrbvc	r0, [r0, #-52]	; 0xffffffcc
     c98:	72745374 	rsbsvc	r5, r4, #116, 6	; 0xd0000001
     c9c:	49425500 	stmdbmi	r2, {r8, sl, ip, lr}^
     ca0:	54550052 	ldrbpl	r0, [r5], #-82	; 0xffffffae
     ca4:	55004458 	strpl	r4, [r0, #-1112]	; 0xfffffba8
     ca8:	004d4954 	subeq	r4, sp, r4, asr r9
     cac:	746e6975 	strbtvc	r6, [lr], #-2421	; 0xfffff68b
     cb0:	00745f38 	rsbseq	r5, r4, r8, lsr pc
     cb4:	524d4255 	subpl	r4, sp, #1342177285	; 0x50000005
     cb8:	4d4f4900 	vstrmi.16	s9, [pc, #-0]	; cc0 <shift+0xcc0>	; <UNPREDICTABLE>
     cbc:	5f435855 	svcpl	0x00435855
     cc0:	4d5f5753 	ldclmi	7, cr5, [pc, #-332]	; b7c <shift+0xb7c>
     cc4:	435f5855 	cmpmi	pc, #5570560	; 0x550000
     cc8:	505f4c54 	subspl	r4, pc, r4, asr ip	; <UNPREDICTABLE>
     ccc:	555f4441 	ldrbpl	r4, [pc, #-1089]	; 893 <shift+0x893>
     cd0:	31545241 	cmpcc	r4, r1, asr #4
     cd4:	5f58525f 	svcpl	0x0058525f
     cd8:	41544144 	cmpmi	r4, r4, asr #2
     cdc:	53455500 	movtpl	r5, #21760	; 0x5500
     ce0:	46550043 	ldrbmi	r0, [r5], -r3, asr #32
     ce4:	50005243 	andpl	r5, r0, r3, asr #4
     ce8:	68437475 	stmdavs	r3, {r0, r2, r4, r5, r6, sl, ip, sp, lr}^
     cec:	75007261 	strvc	r7, [r0, #-609]	; 0xfffffd9f
     cf0:	33746e69 	cmncc	r4, #1680	; 0x690
     cf4:	00745f32 	rsbseq	r5, r4, r2, lsr pc
     cf8:	4d454e4f 	stclmi	14, cr4, [r5, #-316]	; 0xfffffec4
     cfc:	53550053 	cmppl	r5, #83	; 0x53
     d00:	55003152 	strpl	r3, [r0, #-338]	; 0xfffffeae
     d04:	00325253 	eorseq	r5, r2, r3, asr r2
     d08:	45534552 	ldrbmi	r4, [r3, #-1362]	; 0xfffffaae
     d0c:	44455652 	strbmi	r5, [r5], #-1618	; 0xfffff9ae
     d10:	5200305f 	andpl	r3, r0, #95	; 0x5f
     d14:	52455345 	subpl	r5, r5, #335544321	; 0x14000001
     d18:	5f444556 	svcpl	0x00444556
     d1c:	69670031 	stmdbvs	r7!, {r0, r4, r5}^
     d20:	00632e63 	rsbeq	r2, r3, r3, ror #28
     d24:	50485f43 	subpl	r5, r8, r3, asr #30
     d28:	00524950 	subseq	r4, r2, r0, asr r9
     d2c:	5f746567 	svcpl	0x00746567
     d30:	5f636967 	svcpl	0x00636967
     d34:	65736162 	ldrbvs	r6, [r3, #-354]!	; 0xfffffe9e
     d38:	495f4400 	ldmdbmi	pc, {sl, lr}^	; <UNPREDICTABLE>
     d3c:	54434153 	strbpl	r4, [r3], #-339	; 0xfffffead
     d40:	52455649 	subpl	r5, r5, #76546048	; 0x4900000
     d44:	435f4400 	cmpmi	pc, #0, 8
     d48:	30524449 	subscc	r4, r2, r9, asr #8
     d4c:	435f4400 	cmpmi	pc, #0, 8
     d50:	31524449 	cmpcc	r2, r9, asr #8
     d54:	435f4400 	cmpmi	pc, #0, 8
     d58:	32524449 	subscc	r4, r2, #1224736768	; 0x49000000
     d5c:	435f4400 	cmpmi	pc, #0, 8
     d60:	33524449 	cmpcc	r2, #1224736768	; 0x49000000
     d64:	67657200 	strbvs	r7, [r5, -r0, lsl #4]!
     d68:	65747369 	ldrbvs	r7, [r4, #-873]!	; 0xfffffc97
     d6c:	72695f72 	rsbvc	r5, r9, #456	; 0x1c8
     d70:	5f430071 	svcpl	0x00430071
     d74:	00524944 	subseq	r4, r2, r4, asr #18
     d78:	49495f44 	stmdbmi	r9, {r2, r6, r8, r9, sl, fp, ip, lr}^
     d7c:	69005244 	stmdbvs	r0, {r2, r6, r9, ip, lr}
     d80:	685f7172 	ldmdavs	pc, {r1, r4, r5, r6, r8, ip, sp, lr}^	; <UNPREDICTABLE>
     d84:	6c646e61 	stclvs	14, cr6, [r4], #-388	; 0xfffffe7c
     d88:	52007265 	andpl	r7, r0, #1342177286	; 0x50000006
     d8c:	52455345 	subpl	r5, r5, #335544321	; 0x14000001
     d90:	38444556 	stmdacc	r4, {r1, r2, r4, r6, r8, sl, lr}^
     d94:	63696700 	cmnvs	r9, #0, 14
     d98:	616e655f 	cmnvs	lr, pc, asr r5
     d9c:	5f656c62 	svcpl	0x00656c62
     da0:	00717269 	rsbseq	r7, r1, r9, ror #4
     da4:	63636967 	cmnvs	r3, #1687552	; 0x19c000
     da8:	00726169 	rsbseq	r6, r2, r9, ror #2
     dac:	50525f43 	subspl	r5, r2, r3, asr #30
     db0:	5f430052 	svcpl	0x00430052
     db4:	00524d50 	subseq	r4, r2, r0, asr sp
     db8:	61666564 	cmnvs	r6, r4, ror #10
     dbc:	5f746c75 	svcpl	0x00746c75
     dc0:	00727369 	rsbseq	r7, r2, r9, ror #6
     dc4:	5f717269 	svcpl	0x00717269
     dc8:	63736564 	cmnvs	r3, #100, 10	; 0x19000000
     dcc:	51524900 	cmppl	r2, r0, lsl #18
     dd0:	79545f6e 	ldmdbvc	r4, {r1, r2, r3, r5, r6, r8, r9, sl, fp, ip, lr}^
     dd4:	44006570 	strmi	r6, [r0], #-1392	; 0xfffffa90
     dd8:	5059545f 	subspl	r5, r9, pc, asr r4
     ddc:	69005245 	stmdbvs	r0, {r0, r2, r6, r9, ip, lr}
     de0:	61547172 	cmpvs	r4, r2, ror r1
     de4:	00656c62 	rsbeq	r6, r5, r2, ror #24
     de8:	5f434947 	svcpl	0x00434947
     dec:	65707954 	ldrbvs	r7, [r0, #-2388]!	; 0xfffff6ac
     df0:	535f4400 	cmppl	pc, #0, 8
     df4:	444e4550 	strbmi	r4, [lr], #-1360	; 0xfffffab0
     df8:	52494753 	subpl	r4, r9, #21757952	; 0x14c0000
     dfc:	495f4400 	ldmdbmi	pc, {sl, lr}^	; <UNPREDICTABLE>
     e00:	4e455053 	mcrmi	0, 2, r5, cr5, cr3, {2}
     e04:	43005244 	movwmi	r5, #580	; 0x244
     e08:	5048415f 	subpl	r4, r8, pc, asr r1
     e0c:	00524950 	subseq	r4, r2, r0, asr r9
     e10:	5f636967 	svcpl	0x00636967
     e14:	74696e69 	strbtvc	r6, [r9], #-3689	; 0xfffff197
     e18:	71726900 	cmnvc	r2, r0, lsl #18
     e1c:	6c626154 	stfvse	f6, [r2], #-336	; 0xfffffeb0
     e20:	6e695f65 	cdpvs	15, 6, cr5, cr9, cr5, {3}
     e24:	75007469 	strvc	r7, [r0, #-1129]	; 0xfffffb97
     e28:	50726573 	rsbspl	r6, r2, r3, ror r5
     e2c:	6d617261 	sfmvs	f7, 2, [r1, #-388]!	; 0xfffffe7c
     e30:	535f4400 	cmppl	pc, #0, 8
     e34:	00524947 	subseq	r4, r2, r7, asr #18
     e38:	53495f44 	movtpl	r5, #40772	; 0x9f44
     e3c:	42414e45 	submi	r4, r1, #1104	; 0x450
     e40:	0052454c 	subseq	r4, r2, ip, asr #10
     e44:	49505f44 	ldmdbmi	r0, {r2, r6, r8, r9, sl, fp, ip, lr}^
     e48:	00305244 	eorseq	r5, r0, r4, asr #4
     e4c:	49505f44 	ldmdbmi	r0, {r2, r6, r8, r9, sl, fp, ip, lr}^
     e50:	00315244 	eorseq	r5, r1, r4, asr #4
     e54:	49505f44 	ldmdbmi	r0, {r2, r6, r8, r9, sl, fp, ip, lr}^
     e58:	00325244 	eorseq	r5, r2, r4, asr #4
     e5c:	49505f44 	ldmdbmi	r0, {r2, r6, r8, r9, sl, fp, ip, lr}^
     e60:	00335244 	eorseq	r5, r3, r4, asr #4
     e64:	49505f44 	ldmdbmi	r0, {r2, r6, r8, r9, sl, fp, ip, lr}^
     e68:	00345244 	eorseq	r5, r4, r4, asr #4
     e6c:	49505f44 	ldmdbmi	r0, {r2, r6, r8, r9, sl, fp, ip, lr}^
     e70:	00355244 	eorseq	r5, r5, r4, asr #4
     e74:	49505f44 	ldmdbmi	r0, {r2, r6, r8, r9, sl, fp, ip, lr}^
     e78:	00365244 	eorseq	r5, r6, r4, asr #4
     e7c:	49505f44 	ldmdbmi	r0, {r2, r6, r8, r9, sl, fp, ip, lr}^
     e80:	00375244 	eorseq	r5, r7, r4, asr #4
     e84:	49495f43 	stmdbmi	r9, {r0, r1, r6, r8, r9, sl, fp, ip, lr}^
     e88:	43005244 	movwmi	r5, #580	; 0x244
     e8c:	5250415f 	subspl	r4, r0, #-1073741801	; 0xc0000017
     e90:	5f440030 	svcpl	0x00440030
     e94:	53495053 	movtpl	r5, #36947	; 0x9053
     e98:	5f440052 	svcpl	0x00440052
     e9c:	47464349 	strbmi	r4, [r6, -r9, asr #6]
     ea0:	45520052 	ldrbmi	r0, [r2, #-82]	; 0xffffffae
     ea4:	56524553 			; <UNDEFINED> instruction: 0x56524553
     ea8:	00304445 	eorseq	r4, r0, r5, asr #8
     eac:	45534552 	ldrbmi	r4, [r3, #-1362]	; 0xfffffaae
     eb0:	44455652 	strbmi	r5, [r5], #-1618	; 0xfffff9ae
     eb4:	45520031 	ldrbmi	r0, [r2, #-49]	; 0xffffffcf
     eb8:	56524553 			; <UNDEFINED> instruction: 0x56524553
     ebc:	00324445 	eorseq	r4, r2, r5, asr #8
     ec0:	45534552 	ldrbmi	r4, [r3, #-1362]	; 0xfffffaae
     ec4:	44455652 	strbmi	r5, [r5], #-1618	; 0xfffff9ae
     ec8:	45520033 	ldrbmi	r0, [r2, #-51]	; 0xffffffcd
     ecc:	56524553 			; <UNDEFINED> instruction: 0x56524553
     ed0:	00344445 	eorseq	r4, r4, r5, asr #8
     ed4:	45534552 	ldrbmi	r4, [r3, #-1362]	; 0xfffffaae
     ed8:	44455652 	strbmi	r5, [r5], #-1618	; 0xfffff9ae
     edc:	45520035 	ldrbmi	r0, [r2, #-53]	; 0xffffffcb
     ee0:	56524553 			; <UNDEFINED> instruction: 0x56524553
     ee4:	00364445 	eorseq	r4, r6, r5, asr #8
     ee8:	45534552 	ldrbmi	r4, [r3, #-1362]	; 0xfffffaae
     eec:	44455652 	strbmi	r5, [r5], #-1618	; 0xfffff9ae
     ef0:	5f440037 	svcpl	0x00440037
     ef4:	53495050 	movtpl	r5, #36944	; 0x9050
     ef8:	45520052 	ldrbmi	r0, [r2, #-82]	; 0xffffffae
     efc:	56524553 			; <UNDEFINED> instruction: 0x56524553
     f00:	00394445 	eorseq	r4, r9, r5, asr #8
     f04:	41495f43 	cmpmi	r9, r3, asr #30
     f08:	5f430052 	svcpl	0x00430052
     f0c:	494f4541 	stmdbmi	pc, {r0, r6, r8, sl, lr}^	; <UNPREDICTABLE>
     f10:	5f430052 	svcpl	0x00430052
     f14:	5041534e 	subpl	r5, r1, lr, asr #6
     f18:	49003052 	stmdbmi	r0, {r1, r4, r6, ip, sp}
     f1c:	485f5152 	ldmdami	pc, {r1, r4, r6, r8, ip, lr}^	; <UNPREDICTABLE>
     f20:	6c646e61 	stclvs	14, cr6, [r4], #-388	; 0xfffffe7c
     f24:	745f7265 	ldrbvc	r7, [pc], #-613	; f2c <shift+0xf2c>
     f28:	495f4400 	ldmdbmi	pc, {sl, lr}^	; <UNPREDICTABLE>
     f2c:	554f5247 	strbpl	r5, [pc, #-583]	; ced <shift+0xced>
     f30:	43005250 	movwmi	r5, #592	; 0x250
     f34:	4149415f 	cmpmi	r9, pc, asr r1
     f38:	5f440052 	svcpl	0x00440052
     f3c:	4e454349 	cdpmi	3, 4, cr4, cr5, cr9, {2}
     f40:	454c4241 	strbmi	r4, [ip, #-577]	; 0xfffffdbf
     f44:	5f440052 	svcpl	0x00440052
     f48:	45504349 	ldrbmi	r4, [r0, #-841]	; 0xfffffcb7
     f4c:	0052444e 	subseq	r4, r2, lr, asr #8
     f50:	646e6148 	strbtvs	r6, [lr], #-328	; 0xfffffeb8
     f54:	495f656c 	ldmdbmi	pc, {r2, r3, r5, r6, r8, sl, sp, lr}^	; <UNPREDICTABLE>
     f58:	635f5152 	cmpvs	pc, #-2147483628	; 0x80000014
     f5c:	495f4400 	ldmdbmi	pc, {sl, lr}^	; <UNPREDICTABLE>
     f60:	47524154 			; <UNDEFINED> instruction: 0x47524154
     f64:	52535445 	subspl	r5, r3, #1157627904	; 0x45000000
     f68:	435f4400 	cmpmi	pc, #0, 8
     f6c:	444e4550 	strbmi	r4, [lr], #-1360	; 0xfffffab0
     f70:	52494753 	subpl	r4, r9, #21757952	; 0x14c0000
     f74:	53455200 	movtpl	r5, #20992	; 0x5200
     f78:	45565245 	ldrbmi	r5, [r6, #-581]	; 0xfffffdbb
     f7c:	00303144 	eorseq	r3, r0, r4, asr #2
     f80:	45534552 	ldrbmi	r4, [r3, #-1362]	; 0xfffffaae
     f84:	44455652 	strbmi	r5, [r5], #-1618	; 0xfffff9ae
     f88:	52003131 	andpl	r3, r0, #1073741836	; 0x4000000c
     f8c:	52455345 	subpl	r5, r5, #335544321	; 0x14000001
     f90:	31444556 	cmpcc	r4, r6, asr r5
     f94:	45520032 	ldrbmi	r0, [r2, #-50]	; 0xffffffce
     f98:	56524553 			; <UNDEFINED> instruction: 0x56524553
     f9c:	33314445 	teqcc	r1, #1157627904	; 0x45000000
     fa0:	53455200 	movtpl	r5, #20992	; 0x5200
     fa4:	45565245 	ldrbmi	r5, [r6, #-581]	; 0xfffffdbb
     fa8:	00343144 	eorseq	r3, r4, r4, asr #2
     fac:	45534552 	ldrbmi	r4, [r3, #-1362]	; 0xfffffaae
     fb0:	44455652 	strbmi	r5, [r5], #-1618	; 0xfffff9ae
     fb4:	52003531 	andpl	r3, r0, #205520896	; 0xc400000
     fb8:	52455345 	subpl	r5, r5, #335544321	; 0x14000001
     fbc:	31444556 	cmpcc	r4, r6, asr r5
     fc0:	45520036 	ldrbmi	r0, [r2, #-54]	; 0xffffffca
     fc4:	56524553 			; <UNDEFINED> instruction: 0x56524553
     fc8:	37314445 	ldrcc	r4, [r1, -r5, asr #8]!
     fcc:	53455200 	movtpl	r5, #20992	; 0x5200
     fd0:	45565245 	ldrbmi	r5, [r6, #-581]	; 0xfffffdbb
     fd4:	00383144 	eorseq	r3, r8, r4, asr #2
     fd8:	5f717269 	svcpl	0x00717269
     fdc:	006d756e 	rsbeq	r7, sp, lr, ror #10
     fe0:	50425f43 	subpl	r5, r2, r3, asr #30
     fe4:	5f440052 	svcpl	0x00440052
     fe8:	49525049 	ldmdbmi	r2, {r0, r3, r6, ip, lr}^
     fec:	5449524f 	strbpl	r5, [r9], #-591	; 0xfffffdb1
     ff0:	43005259 	movwmi	r5, #601	; 0x259
     ff4:	5042415f 	subpl	r4, r2, pc, asr r1
     ff8:	5f430052 	svcpl	0x00430052
     ffc:	52494f45 	subpl	r4, r9, #276	; 0x114
    1000:	435f4400 	cmpmi	pc, #0, 8
    1004:	00524c54 	subseq	r4, r2, r4, asr ip
    1008:	5f636967 	svcpl	0x00636967
    100c:	61736964 	cmnvs	r3, r4, ror #18
    1010:	5f656c62 	svcpl	0x00656c62
    1014:	00717269 	rsbseq	r7, r1, r9, ror #4
    1018:	54435f43 	strbpl	r5, [r3], #-3907	; 0xfffff0bd
    101c:	4400524c 	strmi	r5, [r0], #-588	; 0xfffffdb4
    1020:	4143495f 	cmpmi	r3, pc, asr r9
    1024:	56495443 	strbpl	r5, [r9], -r3, asr #8
    1028:	63005245 	movwvs	r5, #581	; 0x245
    102c:	746e756f 	strbtvc	r7, [lr], #-1391	; 0xfffffa91
    1030:	79656b00 	stmdbvc	r5!, {r8, r9, fp, sp, lr}^
    1034:	7172695f 	cmnvc	r2, pc, asr r9
    1038:	646e6148 	strbtvs	r6, [lr], #-328	; 0xfffffeb8
    103c:	0072656c 	rsbseq	r6, r2, ip, ror #10
    1040:	5f79656b 	svcpl	0x0079656b
    1044:	65746e69 	ldrbvs	r6, [r4, #-3689]!	; 0xfffff197
    1048:	70757272 	rsbsvc	r7, r5, r2, ror r2
    104c:	00632e74 	rsbeq	r2, r3, r4, ror lr
    1050:	4f495047 	svcmi	0x00495047
    1054:	6f72475f 	svcvs	0x0072475f
    1058:	49007075 	stmdbmi	r0, {r0, r2, r4, r5, r6, ip, sp, lr}
    105c:	00524332 	subseq	r4, r2, r2, lsr r3
    1060:	2e633269 	cdpcs	2, 6, cr3, cr3, cr9, {3}
    1064:	32490063 	subcc	r0, r9, #99	; 0x63
    1068:	52575f43 	subspl	r5, r7, #268	; 0x10c
    106c:	00455449 	subeq	r5, r5, r9, asr #8
    1070:	5f433249 	svcpl	0x00433249
    1074:	44414552 	strbmi	r4, [r1], #-1362	; 0xfffffaae
    1078:	706e6900 	rsbvc	r6, lr, r0, lsl #18
    107c:	65527475 	ldrbvs	r7, [r2, #-1141]	; 0xfffffb8b
    1080:	74736967 	ldrbtvc	r6, [r3], #-2407	; 0xfffff699
    1084:	6d007265 	sfmvs	f7, 4, [r0, #-404]	; 0xfffffe6c
    1088:	6f4d7875 	svcvs	0x004d7875
    108c:	49006564 	stmdbmi	r0, {r2, r5, r6, r8, sl, sp, lr}
    1090:	58554d4f 	ldmdapl	r5, {r0, r1, r2, r3, r6, r8, sl, fp, lr}^
    1094:	65535f43 	ldrbvs	r5, [r3, #-3907]	; 0xfffff0bd
    1098:	6e695074 	mcrvs	0, 3, r5, cr9, cr4, {3}
    109c:	0078754d 	rsbseq	r7, r8, sp, asr #10
    10a0:	6f727265 	svcvs	0x00727265
    10a4:	68635f72 	stmdavs	r3!, {r1, r4, r5, r6, r8, r9, sl, fp, ip, lr}^
    10a8:	006b6365 	rsbeq	r6, fp, r5, ror #6
    10ac:	52443249 	subpl	r3, r4, #-1879048188	; 0x90000004
    10b0:	53324900 	teqpl	r2, #0, 18
    10b4:	756d0052 	strbvc	r0, [sp, #-82]!	; 0xffffffae
    10b8:	67655278 			; <UNDEFINED> instruction: 0x67655278
    10bc:	65747369 	ldrbvs	r7, [r4, #-873]!	; 0xfffffc97
    10c0:	32490072 	subcc	r0, r9, #114	; 0x72
    10c4:	79545f43 	ldmdbvc	r4, {r0, r1, r6, r8, r9, sl, fp, ip, lr}^
    10c8:	63006570 	movwvs	r6, #1392	; 0x570
    10cc:	69666e6f 	stmdbvs	r6!, {r0, r1, r2, r3, r5, r6, r9, sl, fp, sp, lr}^
    10d0:	6c615667 	stclvs	6, cr5, [r1], #-412	; 0xfffffe64
    10d4:	69006575 	stmdbvs	r0, {r0, r2, r4, r5, r6, r8, sl, sp, lr}
    10d8:	725f6332 	subsvc	r6, pc, #-939524096	; 0xc8000000
    10dc:	61657065 	cmnvs	r5, r5, rrx
    10e0:	61745374 	cmnvs	r4, r4, ror r3
    10e4:	69007472 	stmdbvs	r0, {r1, r4, r5, r6, sl, ip, sp, lr}
    10e8:	775f6332 	smmlarvc	pc, r2, r3, r6	; <UNPREDICTABLE>
    10ec:	65746972 	ldrbvs	r6, [r4, #-2418]!	; 0xfffff68e
    10f0:	656e6f5f 	strbvs	r6, [lr, #-3935]!	; 0xfffff0a1
    10f4:	65747942 	ldrbvs	r7, [r4, #-2370]!	; 0xfffff6be
    10f8:	6d756400 	cfldrdvs	mvd6, [r5, #-0]
    10fc:	6900796d 	stmdbvs	r0, {r0, r2, r3, r5, r6, r8, fp, ip, sp, lr}
    1100:	735f6332 	cmpvc	pc, #-939524096	; 0xc8000000
    1104:	00706f74 	rsbseq	r6, r0, r4, ror pc
    1108:	76616c73 			; <UNDEFINED> instruction: 0x76616c73
    110c:	72646441 	rsbvc	r6, r4, #1090519040	; 0x41000000
    1110:	63326900 	teqvs	r2, #0, 18
    1114:	6972775f 	ldmdbvs	r2!, {r0, r1, r2, r3, r4, r6, r8, r9, sl, ip, sp, lr}^
    1118:	49006574 	stmdbmi	r0, {r2, r4, r5, r6, r8, sl, sp, lr}
    111c:	00524441 	subseq	r4, r2, r1, asr #8
    1120:	746e6975 	strbtvc	r6, [lr], #-2421	; 0xfffff68b
    1124:	745f3631 	ldrbvc	r3, [pc], #-1585	; 112c <shift+0x112c>
    1128:	63326900 	teqvs	r2, #0, 18
    112c:	6765725f 			; <UNDEFINED> instruction: 0x6765725f
    1130:	6e695f73 	mcrvs	15, 3, r5, cr9, cr3, {3}
    1134:	69007469 	stmdbvs	r0, {r0, r3, r5, r6, sl, ip, sp, lr}
    1138:	735f6332 	cmpvc	pc, #-939524096	; 0xc8000000
    113c:	74726174 	ldrbtvc	r6, [r2], #-372	; 0xfffffe8c
    1140:	67657200 	strbvs	r7, [r5, -r0, lsl #4]!
    1144:	72646441 	rsbvc	r6, r4, #1090519040	; 0x41000000
    1148:	67657200 	strbvs	r7, [r5, -r0, lsl #4]!
    114c:	006e654c 	rsbeq	r6, lr, ip, asr #10
    1150:	45534552 	ldrbmi	r4, [r3, #-1362]	; 0xfffffaae
    1154:	44455652 	strbmi	r5, [r5], #-1618	; 0xfffff9ae
    1158:	5200325f 	andpl	r3, r0, #-268435451	; 0xf0000005
    115c:	52455345 	subpl	r5, r5, #335544321	; 0x14000001
    1160:	5f444556 	svcpl	0x00444556
    1164:	32690033 	rsbcc	r0, r9, #51	; 0x33
    1168:	6f695f63 	svcvs	0x00695f63
    116c:	696e695f 	stmdbvs	lr!, {r0, r1, r2, r3, r4, r6, r8, fp, sp, lr}^
    1170:	46490074 			; <UNDEFINED> instruction: 0x46490074
    1174:	69005244 	stmdbvs	r0, {r2, r6, r9, ip, lr}
    1178:	745f6332 	ldrbvc	r6, [pc], #-818	; 1180 <shift+0x1180>
    117c:	736e6172 	cmnvc	lr, #-2147483620	; 0x8000001c
    1180:	5f726566 	svcpl	0x00726566
    1184:	4f490074 	svcmi	0x00490074
    1188:	4358554d 	cmpmi	r8, #322961408	; 0x13400000
    118c:	7465535f 	strbtvc	r5, [r5], #-863	; 0xfffffca1
    1190:	436e6950 	cmnmi	lr, #80, 18	; 0x140000
    1194:	69666e6f 	stmdbvs	r6!, {r0, r1, r2, r3, r5, r6, r9, sl, fp, sp, lr}^
    1198:	6e690067 	cdpvs	0, 6, cr0, cr9, cr7, {3}
    119c:	4f747570 	svcmi	0x00747570
    11a0:	6569666e 	strbvs	r6, [r9, #-1646]!	; 0xfffff992
    11a4:	6900646c 	stmdbvs	r0, {r2, r3, r5, r6, sl, sp, lr}
    11a8:	725f6332 	subsvc	r6, pc, #-939524096	; 0xc8000000
    11ac:	5f646165 	svcpl	0x00646165
    11b0:	42656e6f 	rsbmi	r6, r5, #1776	; 0x6f0
    11b4:	00657479 	rsbeq	r7, r5, r9, ror r4
    11b8:	666e6f63 	strbtvs	r6, [lr], -r3, ror #30
    11bc:	65526769 	ldrbvs	r6, [r2, #-1897]	; 0xfffff897
    11c0:	74736967 	ldrbtvc	r6, [r3], #-2407	; 0xfffff699
    11c4:	5f007265 	svcpl	0x00007265
    11c8:	5f633269 	svcpl	0x00633269
    11cc:	6e617274 	mcrvs	2, 3, r7, cr1, cr4, {3}
    11d0:	72656673 	rsbvc	r6, r5, #120586240	; 0x7300000
    11d4:	706e6900 	rsbvc	r6, lr, r0, lsl #18
    11d8:	61447475 	hvcvs	18245	; 0x4745
    11dc:	00797369 	rsbseq	r7, r9, r9, ror #6
    11e0:	656d6974 	strbvs	r6, [sp, #-2420]!	; 0xfffff68c
    11e4:	0074756f 	rsbseq	r7, r4, pc, ror #10
    11e8:	5f633269 	svcpl	0x00633269
    11ec:	64616572 	strbtvs	r6, [r1], #-1394	; 0xfffffa8e
    11f0:	74756f00 	ldrbtvc	r6, [r5], #-3840	; 0xfffff100
    11f4:	6d756e5f 	ldclvs	14, cr6, [r5, #-380]!	; 0xfffffe84
    11f8:	5f796d00 	svcpl	0x00796d00
    11fc:	69727076 	ldmdbvs	r2!, {r1, r2, r4, r5, r6, ip, sp, lr}^
    1200:	0066746e 	rsbeq	r7, r6, lr, ror #8
    1204:	6c5f6176 	ldfvse	f6, [pc], {118}	; 0x76
    1208:	00747369 	rsbseq	r7, r4, r9, ror #6
    120c:	6461656c 	strbtvs	r6, [r1], #-1388	; 0xfffffa94
    1210:	78616d00 	stmdavc	r1!, {r8, sl, fp, sp, lr}^
    1214:	74646977 	strbtvc	r6, [r4], #-2423	; 0xfffff689
    1218:	756f0068 	strbvc	r0, [pc, #-104]!	; 11b8 <shift+0x11b8>
    121c:	6d006374 	stcvs	3, cr6, [r0, #-464]	; 0xfffffe30
    1220:	72705f79 	rsbsvc	r5, r0, #484	; 0x1e4
    1224:	66746e69 	ldrbtvs	r6, [r4], -r9, ror #28
    1228:	6f00632e 	svcvs	0x0000632e
    122c:	00737475 	rsbseq	r7, r3, r5, ror r4
    1230:	5f786568 	svcpl	0x00786568
    1234:	00626174 	rsbeq	r6, r2, r4, ror r1
    1238:	705f796d 	subsvc	r7, pc, sp, ror #18
    123c:	746e6972 	strbtvc	r6, [lr], #-2418	; 0xfffff68e
    1240:	65745f66 	ldrbvs	r5, [r4, #-3942]!	; 0xfffff09a
    1244:	67007473 	smlsdxvs	r0, r3, r4, r7
    1248:	695f7465 	ldmdbvs	pc, {r0, r2, r5, r6, sl, ip, sp, lr}^	; <UNPREDICTABLE>
    124c:	7200746e 	andvc	r7, r0, #1845493760	; 0x6e000000
    1250:	65736961 	ldrbvs	r6, [r3, #-2401]!	; 0xfffff69f
    1254:	74656700 	strbtvc	r6, [r5], #-1792	; 0xfffff900
    1258:	6e69755f 	mcrvs	5, 3, r7, cr9, cr15, {2}
    125c:	69730074 	ldmdbvs	r3!, {r2, r4, r5, r6}^
    1260:	656c706d 	strbvs	r7, [ip, #-109]!	; 0xffffff93
    1264:	7274735f 	rsbsvc	r7, r4, #2080374785	; 0x7c000001
    1268:	6c756f74 	ldclvs	15, cr6, [r5], #-464	; 0xfffffe30
    126c:	745f5f00 	ldrbvc	r5, [pc], #-3840	; 1274 <shift+0x1274>
    1270:	7070756f 	rsbsvc	r7, r0, pc, ror #10
    1274:	73007265 	movwvc	r7, #613	; 0x265
    1278:	6e697274 	mcrvs	2, 3, r7, cr9, cr4, {3}
    127c:	74755f67 	ldrbtvc	r5, [r5], #-3943	; 0xfffff099
    1280:	2e736c69 	cdpcs	12, 7, cr6, cr3, cr9, {3}
    1284:	65670063 	strbvs	r0, [r7, #-99]!	; 0xffffff9d
    1288:	73007374 	movwvc	r7, #884	; 0x374
    128c:	6c706d69 	ldclvs	13, cr6, [r0], #-420	; 0xfffffe5c
    1290:	74735f65 	ldrbtvc	r5, [r3], #-3941	; 0xfffff09b
    1294:	6c6f7472 	cfstrdvs	mvd7, [pc], #-456	; 10d4 <shift+0x10d4>
    1298:	73657200 	cmnvc	r5, #0, 4
    129c:	00746c75 	rsbseq	r6, r4, r5, ror ip
    12a0:	70646e65 	rsbvc	r6, r4, r5, ror #28
    12a4:	74635f00 	strbtvc	r5, [r3], #-3840	; 0xfffff100
    12a8:	00657079 	rsbeq	r7, r5, r9, ror r0
    12ac:	6e676973 			; <UNDEFINED> instruction: 0x6e676973
    12b0:	49006d75 	stmdbmi	r0, {r0, r2, r4, r5, r6, r8, sl, fp, sp, lr}
    12b4:	6c43544e 	cfstrdvs	mvd5, [r3], {78}	; 0x4e
    12b8:	4d726165 	ldfmie	f6, [r2, #-404]!	; 0xfffffe6c
    12bc:	656e6e61 	strbvs	r6, [lr, #-3681]!	; 0xfffff19f
    12c0:	52490072 	subpl	r0, r9, #114	; 0x72
    12c4:	61746144 	cmnvs	r4, r4, asr #2
    12c8:	00776f4c 	rsbseq	r6, r7, ip, asr #30
    12cc:	53746e69 	cmnpl	r4, #1680	; 0x690
    12d0:	75746174 	ldrbvc	r6, [r4, #-372]!	; 0xfffffe8c
    12d4:	70610073 	rsbvc	r0, r1, r3, ror r0
    12d8:	36313233 			; <UNDEFINED> instruction: 0x36313233
    12dc:	72695f63 	rsbvc	r5, r9, #396	; 0x18c
    12e0:	6e614871 	mcrvs	8, 3, r4, cr1, cr1, {3}
    12e4:	72656c64 	rsbvc	r6, r5, #100, 24	; 0x6400
    12e8:	73795300 	cmnvc	r9, #0, 6
    12ec:	666e6f43 	strbtvs	r6, [lr], -r3, asr #30
    12f0:	41006769 	tstmi	r0, r9, ror #14
    12f4:	6144534c 	cmpvs	r4, ip, asr #6
    12f8:	69486174 	stmdbvs	r8, {r2, r4, r5, r6, r8, sp, lr}^
    12fc:	74006867 	strvc	r6, [r0], #-2151	; 0xfffff799
    1300:	00706d65 	rsbseq	r6, r0, r5, ror #26
    1304:	64616572 	strbtvs	r6, [r1], #-1394	; 0xfffffa8e
    1308:	3370615f 	cmncc	r0, #-1073741801	; 0xc0000017
    130c:	63363132 	teqvs	r6, #-2147483636	; 0x8000000c
    1310:	6765725f 			; <UNDEFINED> instruction: 0x6765725f
    1314:	53500073 	cmppl	r0, #115	; 0x73
    1318:	61746144 	cmnvs	r4, r4, asr #2
    131c:	00776f4c 	rsbseq	r6, r7, ip, asr #30
    1320:	32337061 	eorscc	r7, r3, #97	; 0x61
    1324:	5f633631 	svcpl	0x00633631
    1328:	73676572 	cmnvc	r7, #478150656	; 0x1c800000
    132c:	4900745f 	stmdbmi	r0, {r0, r1, r2, r3, r4, r6, sl, ip, sp, lr}
    1330:	74614452 	strbtvc	r4, [r1], #-1106	; 0xfffffbae
    1334:	67694861 	strbvs	r4, [r9, -r1, ror #16]!
    1338:	70610068 	rsbvc	r0, r1, r8, rrx
    133c:	36313233 			; <UNDEFINED> instruction: 0x36313233
    1340:	00632e63 	rsbeq	r2, r3, r3, ror #28
    1344:	61445350 	cmpvs	r4, r0, asr r3
    1348:	69486174 	stmdbvs	r8, {r2, r4, r5, r6, r8, sp, lr}^
    134c:	47006867 	strmi	r6, [r0, -r7, ror #16]
    1350:	5f4f4950 	svcpl	0x004f4950
    1354:	65707954 	ldrbvs	r7, [r0, #-2388]!	; 0xfffff6ac
    1358:	544e4900 	strbpl	r4, [lr], #-2304	; 0xfffff700
    135c:	74617453 	strbtvc	r7, [r1], #-1107	; 0xfffffbad
    1360:	41007375 	tstmi	r0, r5, ror r3
    1364:	6144534c 	cmpvs	r4, ip, asr #6
    1368:	6f4c6174 	svcvs	0x004c6174
    136c:	Address 0x000000000000136c is out of bounds.


Disassembly of section .debug_frame:

00000000 <.debug_frame>:
   0:	0000000c 	andeq	r0, r0, ip
   4:	ffffffff 			; <UNDEFINED> instruction: 0xffffffff
   8:	7c020001 	stcvc	0, cr0, [r2], {1}
   c:	000d0c0e 	andeq	r0, sp, lr, lsl #24
  10:	00000024 	andeq	r0, r0, r4, lsr #32
  14:	00000000 	andeq	r0, r0, r0
  18:	8010133c 	andshi	r1, r0, ip, lsr r3
  1c:	000000d0 	ldrdeq	r0, [r0], -r0	; <UNPREDICTABLE>
  20:	84180e42 	ldrhi	r0, [r8], #-3650	; 0xfffff1be
  24:	86058506 	strhi	r8, [r5], -r6, lsl #10
  28:	88038704 	stmdahi	r3, {r2, r8, r9, sl, pc}
  2c:	41018e02 	tstmi	r1, r2, lsl #28
  30:	6302300e 	movwvs	r3, #8206	; 0x200e
  34:	0000180e 	andeq	r1, r0, lr, lsl #16
  38:	0000000c 	andeq	r0, r0, ip
  3c:	ffffffff 			; <UNDEFINED> instruction: 0xffffffff
  40:	7c020001 	stcvc	0, cr0, [r2], {1}
  44:	000d0c0e 	andeq	r0, sp, lr, lsl #24
  48:	00000024 	andeq	r0, r0, r4, lsr #32
  4c:	00000038 	andeq	r0, r0, r8, lsr r0
  50:	8010017c 	andshi	r0, r0, ip, ror r1
  54:	00000044 	andeq	r0, r0, r4, asr #32
  58:	83180e41 	tsthi	r8, #1040	; 0x410
  5c:	85058406 	strhi	r8, [r5, #-1030]	; 0xfffffbfa
  60:	87038604 	strhi	r8, [r3, -r4, lsl #12]
  64:	5f018e02 	svcpl	0x00018e02
  68:	c5c6c7ce 	strbgt	ip, [r6, #1998]	; 0x7ce
  6c:	000ec3c4 	andeq	ip, lr, r4, asr #7
  70:	0000000c 	andeq	r0, r0, ip
  74:	00000038 	andeq	r0, r0, r8, lsr r0
  78:	801001c0 	andshi	r0, r0, r0, asr #3
  7c:	0000001e 	andeq	r0, r0, lr, lsl r0
  80:	0000000c 	andeq	r0, r0, ip
  84:	00000038 	andeq	r0, r0, r8, lsr r0
  88:	801001e0 	andshi	r0, r0, r0, ror #3
  8c:	00000014 	andeq	r0, r0, r4, lsl r0
  90:	0000000c 	andeq	r0, r0, ip
  94:	00000038 	andeq	r0, r0, r8, lsr r0
  98:	801001f4 			; <UNDEFINED> instruction: 0x801001f4
  9c:	00000014 	andeq	r0, r0, r4, lsl r0
  a0:	0000000c 	andeq	r0, r0, ip
  a4:	ffffffff 			; <UNDEFINED> instruction: 0xffffffff
  a8:	7c020001 	stcvc	0, cr0, [r2], {1}
  ac:	000d0c0e 	andeq	r0, sp, lr, lsl #24
  b0:	00000020 	andeq	r0, r0, r0, lsr #32
  b4:	000000a0 	andeq	r0, r0, r0, lsr #1
  b8:	80100208 	andshi	r0, r0, r8, lsl #4
  bc:	00000052 	andeq	r0, r0, r2, asr r0
  c0:	84080e4b 	strhi	r0, [r8], #-3659	; 0xfffff1b5
  c4:	52018502 	andpl	r8, r1, #8388608	; 0x800000
  c8:	0ec4c50a 	cdpeq	5, 12, cr12, cr4, cr10, {0}
  cc:	440b4100 	strmi	r4, [fp], #-256	; 0xffffff00
  d0:	000ec5c4 	andeq	ip, lr, r4, asr #11
  d4:	0000001c 	andeq	r0, r0, ip, lsl r0
  d8:	000000a0 	andeq	r0, r0, r0, lsr #1
  dc:	8010025c 	andshi	r0, r0, ip, asr r2
  e0:	0000003c 	andeq	r0, r0, ip, lsr r0
  e4:	84040e42 	strhi	r0, [r4], #-3650	; 0xfffff1be
  e8:	c40a4c01 	strgt	r4, [sl], #-3073	; 0xfffff3ff
  ec:	0b43000e 	bleq	10c012c <shift+0x10c012c>
  f0:	000ec44a 	andeq	ip, lr, sl, asr #8
  f4:	00000018 	andeq	r0, r0, r8, lsl r0
  f8:	000000a0 	andeq	r0, r0, r0, lsr #1
  fc:	80100298 	mulshi	r0, r8, r2
 100:	00000018 	andeq	r0, r0, r8, lsl r0
 104:	84040e41 	strhi	r0, [r4], #-3649	; 0xfffff1bf
 108:	0ec44801 	cdpeq	8, 12, cr4, cr4, cr1, {0}
 10c:	00000000 	andeq	r0, r0, r0
 110:	0000000c 	andeq	r0, r0, ip
 114:	000000a0 	andeq	r0, r0, r0, lsr #1
 118:	801002b0 			; <UNDEFINED> instruction: 0x801002b0
 11c:	0000000a 	andeq	r0, r0, sl
 120:	0000000c 	andeq	r0, r0, ip
 124:	ffffffff 			; <UNDEFINED> instruction: 0xffffffff
 128:	7c020001 	stcvc	0, cr0, [r2], {1}
 12c:	000d0c0e 	andeq	r0, sp, lr, lsl #24
 130:	0000001c 	andeq	r0, r0, ip, lsl r0
 134:	00000120 	andeq	r0, r0, r0, lsr #2
 138:	801002bc 			; <UNDEFINED> instruction: 0x801002bc
 13c:	0000013a 	andeq	r0, r0, sl, lsr r1
 140:	840c0e43 	strhi	r0, [ip], #-3651	; 0xfffff1bd
 144:	86028503 	strhi	r8, [r2], -r3, lsl #10
 148:	c68f0201 	strgt	r0, [pc], r1, lsl #4
 14c:	000ec4c5 	andeq	ip, lr, r5, asr #9
 150:	0000000c 	andeq	r0, r0, ip
 154:	ffffffff 			; <UNDEFINED> instruction: 0xffffffff
 158:	7c020001 	stcvc	0, cr0, [r2], {1}
 15c:	000d0c0e 	andeq	r0, sp, lr, lsl #24
 160:	00000018 	andeq	r0, r0, r8, lsl r0
 164:	00000150 	andeq	r0, r0, r0, asr r1
 168:	801003f8 			; <UNDEFINED> instruction: 0x801003f8
 16c:	0000006a 	andeq	r0, r0, sl, rrx
 170:	84040e4b 	strhi	r0, [r4], #-3659	; 0xfffff1b5
 174:	0ec46501 	cdpeq	5, 12, cr6, cr4, cr1, {0}
 178:	00000000 	andeq	r0, r0, r0
 17c:	0000000c 	andeq	r0, r0, ip
 180:	00000150 	andeq	r0, r0, r0, asr r1
 184:	80100464 	andshi	r0, r0, r4, ror #8
 188:	00000014 	andeq	r0, r0, r4, lsl r0
 18c:	0000000c 	andeq	r0, r0, ip
 190:	00000150 	andeq	r0, r0, r0, asr r1
 194:	80100478 	andshi	r0, r0, r8, ror r4
 198:	00000014 	andeq	r0, r0, r4, lsl r0
 19c:	0000000c 	andeq	r0, r0, ip
 1a0:	00000150 	andeq	r0, r0, r0, asr r1
 1a4:	8010048c 	andshi	r0, r0, ip, lsl #9
 1a8:	0000001e 	andeq	r0, r0, lr, lsl r0
 1ac:	0000000c 	andeq	r0, r0, ip
 1b0:	ffffffff 			; <UNDEFINED> instruction: 0xffffffff
 1b4:	7c020001 	stcvc	0, cr0, [r2], {1}
 1b8:	000d0c0e 	andeq	r0, sp, lr, lsl #24
 1bc:	0000000c 	andeq	r0, r0, ip
 1c0:	000001ac 	andeq	r0, r0, ip, lsr #3
 1c4:	801004ac 	andshi	r0, r0, ip, lsr #9
 1c8:	00000002 	andeq	r0, r0, r2
 1cc:	0000000c 	andeq	r0, r0, ip
 1d0:	000001ac 	andeq	r0, r0, ip, lsr #3
 1d4:	801004b0 			; <UNDEFINED> instruction: 0x801004b0
 1d8:	0000001a 	andeq	r0, r0, sl, lsl r0
 1dc:	0000000c 	andeq	r0, r0, ip
 1e0:	000001ac 	andeq	r0, r0, ip, lsr #3
 1e4:	801004cc 	andshi	r0, r0, ip, asr #9
 1e8:	0000001a 	andeq	r0, r0, sl, lsl r0
 1ec:	00000020 	andeq	r0, r0, r0, lsr #32
 1f0:	000001ac 	andeq	r0, r0, ip, lsr #3
 1f4:	801004e8 	andshi	r0, r0, r8, ror #9
 1f8:	0000006c 	andeq	r0, r0, ip, rrx
 1fc:	84100e41 	ldrhi	r0, [r0], #-3649	; 0xfffff1bf
 200:	86038504 	strhi	r8, [r3], -r4, lsl #10
 204:	74018702 	strvc	r8, [r1], #-1794	; 0xfffff8fe
 208:	c4c5c6c7 	strbgt	ip, [r5], #1735	; 0x6c7
 20c:	0000000e 	andeq	r0, r0, lr
 210:	00000018 	andeq	r0, r0, r8, lsl r0
 214:	000001ac 	andeq	r0, r0, ip, lsr #3
 218:	80100554 	andshi	r0, r0, r4, asr r5
 21c:	0000003c 	andeq	r0, r0, ip, lsr r0
 220:	84040e48 	strhi	r0, [r4], #-3656	; 0xfffff1b8
 224:	0ec44f01 	cdpeq	15, 12, cr4, cr4, cr1, {0}
 228:	00000000 	andeq	r0, r0, r0
 22c:	00000018 	andeq	r0, r0, r8, lsl r0
 230:	000001ac 	andeq	r0, r0, ip, lsr #3
 234:	80100590 	mulshi	r0, r0, r5
 238:	00000034 	andeq	r0, r0, r4, lsr r0
 23c:	83100e41 	tsthi	r0, #1040	; 0x410
 240:	85038404 	strhi	r8, [r3, #-1028]	; 0xfffffbfc
 244:	00018e02 	andeq	r8, r1, r2, lsl #28
 248:	0000000c 	andeq	r0, r0, ip
 24c:	ffffffff 			; <UNDEFINED> instruction: 0xffffffff
 250:	7c020001 	stcvc	0, cr0, [r2], {1}
 254:	000d0c0e 	andeq	r0, sp, lr, lsl #24
 258:	00000024 	andeq	r0, r0, r4, lsr #32
 25c:	00000248 	andeq	r0, r0, r8, asr #4
 260:	801005c4 	andshi	r0, r0, r4, asr #11
 264:	00000042 	andeq	r0, r0, r2, asr #32
 268:	83180e41 	tsthi	r8, #1040	; 0x410
 26c:	85058406 	strhi	r8, [r5, #-1030]	; 0xfffffbfa
 270:	87038604 	strhi	r8, [r3, -r4, lsl #12]
 274:	5e018e02 	cdppl	14, 0, cr8, cr1, cr2, {0}
 278:	c5c6c7ce 	strbgt	ip, [r6, #1998]	; 0x7ce
 27c:	000ec3c4 	andeq	ip, lr, r4, asr #7
 280:	00000028 	andeq	r0, r0, r8, lsr #32
 284:	00000248 	andeq	r0, r0, r8, asr #4
 288:	80100608 	andshi	r0, r0, r8, lsl #12
 28c:	00000068 	andeq	r0, r0, r8, rrx
 290:	840c0e41 	strhi	r0, [ip], #-3649	; 0xfffff1bf
 294:	8e028503 	cfsh32hi	mvfx8, mvfx2, #3
 298:	180e4201 	stmdane	lr, {r0, r9, lr}
 29c:	0c0e0a5c 			; <UNDEFINED> instruction: 0x0c0e0a5c
 2a0:	0a4f0b41 	beq	13c2fac <shift+0x13c2fac>
 2a4:	0b410c0e 	bleq	10432e4 <shift+0x10432e4>
 2a8:	000c0e43 	andeq	r0, ip, r3, asr #28
 2ac:	0000000c 	andeq	r0, r0, ip
 2b0:	ffffffff 			; <UNDEFINED> instruction: 0xffffffff
 2b4:	7c020001 	stcvc	0, cr0, [r2], {1}
 2b8:	000d0c0e 	andeq	r0, sp, lr, lsl #24
 2bc:	0000001c 	andeq	r0, r0, ip, lsl r0
 2c0:	000002ac 	andeq	r0, r0, ip, lsr #5
 2c4:	80100670 	andshi	r0, r0, r0, ror r6
 2c8:	0000006a 	andeq	r0, r0, sl, rrx
 2cc:	84140e41 	ldrhi	r0, [r4], #-3649	; 0xfffff1bf
 2d0:	86048505 	strhi	r8, [r4], -r5, lsl #10
 2d4:	8e028703 	cdphi	7, 0, cr8, cr2, cr3, {0}
 2d8:	00000001 	andeq	r0, r0, r1
 2dc:	0000001c 	andeq	r0, r0, ip, lsl r0
 2e0:	000002ac 	andeq	r0, r0, ip, lsr #5
 2e4:	801006dc 			; <UNDEFINED> instruction: 0x801006dc
 2e8:	00000056 	andeq	r0, r0, r6, asr r0
 2ec:	84040e46 	strhi	r0, [r4], #-3654	; 0xfffff1ba
 2f0:	c40a5001 	strgt	r5, [sl], #-1
 2f4:	0b49000e 	bleq	1240334 <shift+0x1240334>
 2f8:	000ec444 	andeq	ip, lr, r4, asr #8
 2fc:	0000000c 	andeq	r0, r0, ip
 300:	000002ac 	andeq	r0, r0, ip, lsr #5
 304:	80100734 	andshi	r0, r0, r4, lsr r7
 308:	00000026 	andeq	r0, r0, r6, lsr #32
 30c:	0000000c 	andeq	r0, r0, ip
 310:	000002ac 	andeq	r0, r0, ip, lsr #5
 314:	8010075c 	andshi	r0, r0, ip, asr r7
 318:	00000038 	andeq	r0, r0, r8, lsr r0
 31c:	0000000c 	andeq	r0, r0, ip
 320:	000002ac 	andeq	r0, r0, ip, lsr #5
 324:	80100794 	mulshi	r0, r4, r7
 328:	0000003c 	andeq	r0, r0, ip, lsr r0
 32c:	00000014 	andeq	r0, r0, r4, lsl r0
 330:	000002ac 	andeq	r0, r0, ip, lsr #5
 334:	801007d0 			; <UNDEFINED> instruction: 0x801007d0
 338:	0000006c 	andeq	r0, r0, ip, rrx
 33c:	84080e41 	strhi	r0, [r8], #-3649	; 0xfffff1bf
 340:	00018e02 	andeq	r8, r1, r2, lsl #28
 344:	00000018 	andeq	r0, r0, r8, lsl r0
 348:	000002ac 	andeq	r0, r0, ip, lsr #5
 34c:	8010083c 	andshi	r0, r0, ip, lsr r8
 350:	000000fc 	strdeq	r0, [r0], -ip
 354:	83100e41 	tsthi	r0, #1040	; 0x410
 358:	85038404 	strhi	r8, [r3, #-1028]	; 0xfffffbfc
 35c:	00018e02 	andeq	r8, r1, r2, lsl #28
 360:	0000002c 	andeq	r0, r0, ip, lsr #32
 364:	000002ac 	andeq	r0, r0, ip, lsr #5
 368:	80100938 	andshi	r0, r0, r8, lsr r9
 36c:	000000d0 	ldrdeq	r0, [r0], -r0	; <UNPREDICTABLE>
 370:	84100e42 	ldrhi	r0, [r0], #-3650	; 0xfffff1be
 374:	86038504 	strhi	r8, [r3], -r4, lsl #10
 378:	02018e02 	andeq	r8, r1, #2, 28
 37c:	c6ce0a59 			; <UNDEFINED> instruction: 0xc6ce0a59
 380:	000ec4c5 	andeq	ip, lr, r5, asr #9
 384:	ce490b42 	vmlsgt.f64	d16, d9, d2
 388:	0ec4c5c6 	cdpeq	5, 12, cr12, cr4, cr6, {6}
 38c:	00000000 	andeq	r0, r0, r0
 390:	00000020 	andeq	r0, r0, r0, lsr #32
 394:	000002ac 	andeq	r0, r0, ip, lsr #5
 398:	80100a08 	andshi	r0, r0, r8, lsl #20
 39c:	00000024 	andeq	r0, r0, r4, lsr #32
 3a0:	84100e41 	ldrhi	r0, [r0], #-3649	; 0xfffff1bf
 3a4:	86038504 	strhi	r8, [r3], -r4, lsl #10
 3a8:	41018e02 	tstmi	r1, r2, lsl #28
 3ac:	0e4f300e 	cdpeq	0, 4, cr3, cr15, cr14, {0}
 3b0:	00000010 	andeq	r0, r0, r0, lsl r0
 3b4:	0000001c 	andeq	r0, r0, ip, lsl r0
 3b8:	000002ac 	andeq	r0, r0, ip, lsr #5
 3bc:	80100a2c 	andshi	r0, r0, ip, lsr #20
 3c0:	0000001c 	andeq	r0, r0, ip, lsl r0
 3c4:	84080e41 	strhi	r0, [r8], #-3649	; 0xfffff1bf
 3c8:	41018e02 	tstmi	r1, r2, lsl #28
 3cc:	0e4b200e 	cdpeq	0, 4, cr2, cr11, cr14, {0}
 3d0:	00000008 	andeq	r0, r0, r8
 3d4:	0000000c 	andeq	r0, r0, ip
 3d8:	ffffffff 			; <UNDEFINED> instruction: 0xffffffff
 3dc:	7c020001 	stcvc	0, cr0, [r2], {1}
 3e0:	000d0c0e 	andeq	r0, sp, lr, lsl #24
 3e4:	00000028 	andeq	r0, r0, r8, lsr #32
 3e8:	000003d4 	ldrdeq	r0, [r0], -r4
 3ec:	80100a48 	andshi	r0, r0, r8, asr #20
 3f0:	00000090 	muleq	r0, r0, r0
 3f4:	84240e42 	strthi	r0, [r4], #-3650	; 0xfffff1be
 3f8:	86088509 	strhi	r8, [r8], -r9, lsl #10
 3fc:	88068707 	stmdahi	r6, {r0, r1, r2, r8, r9, sl, pc}
 400:	8a048905 	bhi	12281c <shift+0x12281c>
 404:	8e028b03 	vmlahi.f64	d8, d2, d3
 408:	680e4901 	stmdavs	lr, {r0, r8, fp, lr}
 40c:	00240e7b 	eoreq	r0, r4, fp, ror lr
 410:	00000018 	andeq	r0, r0, r8, lsl r0
 414:	000003d4 	ldrdeq	r0, [r0], -r4
 418:	80100ad8 			; <UNDEFINED> instruction: 0x80100ad8
 41c:	000000c0 	andeq	r0, r0, r0, asr #1
 420:	84100e41 	ldrhi	r0, [r0], #-3649	; 0xfffff1bf
 424:	86038504 	strhi	r8, [r3], -r4, lsl #10
 428:	00018e02 	andeq	r8, r1, r2, lsl #28
 42c:	0000002c 	andeq	r0, r0, ip, lsr #32
 430:	000003d4 	ldrdeq	r0, [r0], -r4
 434:	80100b98 	mulshi	r0, r8, fp
 438:	00000016 	andeq	r0, r0, r6, lsl r0
 43c:	80100e41 	andshi	r0, r0, r1, asr #28
 440:	82038104 	andhi	r8, r3, #4, 2
 444:	41018302 	tstmi	r1, r2, lsl #6
 448:	0683180e 	streq	r1, [r3], lr, lsl #16
 44c:	ce46058e 	cdpgt	5, 4, cr0, cr6, cr14, {4}
 450:	42100ec3 	andsmi	r0, r0, #3120	; 0xc30
 454:	c0c1c2c3 	sbcgt	ip, r1, r3, asr #5
 458:	0000000e 	andeq	r0, r0, lr
 45c:	00000024 	andeq	r0, r0, r4, lsr #32
 460:	000003d4 	ldrdeq	r0, [r0], -r4
 464:	80100bb0 			; <UNDEFINED> instruction: 0x80100bb0
 468:	00000136 	andeq	r0, r0, r6, lsr r1
 46c:	84180e42 	ldrhi	r0, [r8], #-3650	; 0xfffff1be
 470:	86058506 	strhi	r8, [r5], -r6, lsl #10
 474:	88038704 	stmdahi	r3, {r2, r8, r9, sl, pc}
 478:	43018e02 	movwmi	r8, #7682	; 0x1e02
 47c:	9402500e 	strls	r5, [r2], #-14
 480:	0000180e 	andeq	r1, r0, lr, lsl #16
 484:	0000000c 	andeq	r0, r0, ip
 488:	ffffffff 			; <UNDEFINED> instruction: 0xffffffff
 48c:	7c020001 	stcvc	0, cr0, [r2], {1}
 490:	000d0c0e 	andeq	r0, sp, lr, lsl #24
 494:	0000001c 	andeq	r0, r0, ip, lsl r0
 498:	00000484 	andeq	r0, r0, r4, lsl #9
 49c:	80100ce8 	andshi	r0, r0, r8, ror #25
 4a0:	000000b0 	strheq	r0, [r0], -r0	; <UNPREDICTABLE>
 4a4:	84140e41 	ldrhi	r0, [r4], #-3649	; 0xfffff1bf
 4a8:	86048505 	strhi	r8, [r4], -r5, lsl #10
 4ac:	8e028703 	cdphi	7, 0, cr8, cr2, cr3, {0}
 4b0:	00000001 	andeq	r0, r0, r1
 4b4:	0000001c 	andeq	r0, r0, ip, lsl r0
 4b8:	00000484 	andeq	r0, r0, r4, lsl #9
 4bc:	80100d98 	mulshi	r0, r8, sp
 4c0:	0000001a 	andeq	r0, r0, sl, lsl r0
 4c4:	84080e41 	strhi	r0, [r8], #-3649	; 0xfffff1bf
 4c8:	45018e02 	strmi	r8, [r1, #-3586]	; 0xfffff1fe
 4cc:	0ec4ce0a 	cdpeq	14, 12, cr12, cr4, cr10, {0}
 4d0:	000b4200 	andeq	r4, fp, r0, lsl #4
 4d4:	0000001c 	andeq	r0, r0, ip, lsl r0
 4d8:	00000484 	andeq	r0, r0, r4, lsl #9
 4dc:	80100db4 			; <UNDEFINED> instruction: 0x80100db4
 4e0:	0000003e 	andeq	r0, r0, lr, lsr r0
 4e4:	83180e41 	tsthi	r8, #1040	; 0x410
 4e8:	85058406 	strhi	r8, [r5, #-1030]	; 0xfffffbfa
 4ec:	87038604 	strhi	r8, [r3, -r4, lsl #12]
 4f0:	00018e02 	andeq	r8, r1, r2, lsl #28
 4f4:	00000018 	andeq	r0, r0, r8, lsl r0
 4f8:	00000484 	andeq	r0, r0, r4, lsl #9
 4fc:	80100df4 			; <UNDEFINED> instruction: 0x80100df4
 500:	0000001a 	andeq	r0, r0, sl, lsl r0
 504:	8e040e41 	cdphi	14, 0, cr0, cr4, cr1, {2}
 508:	700e4101 	andvc	r4, lr, r1, lsl #2
 50c:	00040e49 	andeq	r0, r4, r9, asr #28
 510:	00000018 	andeq	r0, r0, r8, lsl r0
 514:	00000484 	andeq	r0, r0, r4, lsl #9
 518:	80100e10 	andshi	r0, r0, r0, lsl lr
 51c:	0000001a 	andeq	r0, r0, sl, lsl r0
 520:	8e040e41 	cdphi	14, 0, cr0, cr4, cr1, {2}
 524:	700e4101 	andvc	r4, lr, r1, lsl #2
 528:	00040e49 	andeq	r0, r4, r9, asr #28
 52c:	0000000c 	andeq	r0, r0, ip
 530:	00000484 	andeq	r0, r0, r4, lsl #9
 534:	80100e2c 	andshi	r0, r0, ip, lsr #28
 538:	00000004 	andeq	r0, r0, r4
 53c:	0000000c 	andeq	r0, r0, ip
 540:	ffffffff 			; <UNDEFINED> instruction: 0xffffffff
 544:	7c020001 	stcvc	0, cr0, [r2], {1}
 548:	000d0c0e 	andeq	r0, sp, lr, lsl #24
 54c:	00000018 	andeq	r0, r0, r8, lsl r0
 550:	0000053c 	andeq	r0, r0, ip, lsr r5
 554:	80100e30 	andshi	r0, r0, r0, lsr lr
 558:	00000048 	andeq	r0, r0, r8, asr #32
 55c:	84080e41 	strhi	r0, [r8], #-3649	; 0xfffff1bf
 560:	61018e02 	tstvs	r1, r2, lsl #28
 564:	000ec4ce 	andeq	ip, lr, lr, asr #9
 568:	00000014 	andeq	r0, r0, r4, lsl r0
 56c:	0000053c 	andeq	r0, r0, ip, lsr r5
 570:	80100e78 	andshi	r0, r0, r8, ror lr
 574:	0000007e 	andeq	r0, r0, lr, ror r0
 578:	84080e41 	strhi	r0, [r8], #-3649	; 0xfffff1bf
 57c:	00018e02 	andeq	r8, r1, r2, lsl #28
 580:	00000024 	andeq	r0, r0, r4, lsr #32
 584:	0000053c 	andeq	r0, r0, ip, lsr r5
 588:	80100ef8 			; <UNDEFINED> instruction: 0x80100ef8
 58c:	00000072 	andeq	r0, r0, r2, ror r0
 590:	84140e41 	ldrhi	r0, [r4], #-3649	; 0xfffff1bf
 594:	86048505 	strhi	r8, [r4], -r5, lsl #10
 598:	8e028703 	cdphi	7, 0, cr8, cr2, cr3, {0}
 59c:	280e4101 	stmdacs	lr, {r0, r8, lr}
 5a0:	140e0a6d 	strne	r0, [lr], #-2669	; 0xfffff593
 5a4:	00000b41 	andeq	r0, r0, r1, asr #22
 5a8:	00000018 	andeq	r0, r0, r8, lsl r0
 5ac:	0000053c 	andeq	r0, r0, ip, lsr r5
 5b0:	80100f6c 	andshi	r0, r0, ip, ror #30
 5b4:	0000002e 	andeq	r0, r0, lr, lsr #32
 5b8:	84080e41 	strhi	r0, [r8], #-3649	; 0xfffff1bf
 5bc:	54018e02 	strpl	r8, [r1], #-3586	; 0xfffff1fe
 5c0:	000ec4ce 	andeq	ip, lr, lr, asr #9
 5c4:	0000001c 	andeq	r0, r0, ip, lsl r0
 5c8:	0000053c 	andeq	r0, r0, ip, lsr r5
 5cc:	80100f9c 	mulshi	r0, ip, pc	; <UNPREDICTABLE>
 5d0:	00000116 	andeq	r0, r0, r6, lsl r1
 5d4:	8e040e49 	cdphi	14, 0, cr0, cr4, cr9, {2}
 5d8:	200e4201 	andcs	r4, lr, r1, lsl #4
 5dc:	0e0a4b02 	vmlaeq.f64	d4, d10, d2
 5e0:	000b4204 	andeq	r4, fp, r4, lsl #4
 5e4:	0000000c 	andeq	r0, r0, ip
 5e8:	ffffffff 			; <UNDEFINED> instruction: 0xffffffff
 5ec:	7c010001 	stcvc	0, cr0, [r1], {1}
 5f0:	000d0c0e 	andeq	r0, sp, lr, lsl #24
 5f4:	0000000c 	andeq	r0, r0, ip
 5f8:	000005e4 	andeq	r0, r0, r4, ror #11
 5fc:	801010b9 	ldrhhi	r1, [r0], -r9
 600:	0000025c 	andeq	r0, r0, ip, asr r2
 604:	0000000c 	andeq	r0, r0, ip
 608:	ffffffff 			; <UNDEFINED> instruction: 0xffffffff
 60c:	7c010001 	stcvc	0, cr0, [r1], {1}
 610:	000d0c0e 	andeq	r0, sp, lr, lsl #24
 614:	00000014 	andeq	r0, r0, r4, lsl r0
 618:	00000604 	andeq	r0, r0, r4, lsl #12
 61c:	80101331 	andshi	r1, r0, r1, lsr r3
 620:	0000000c 	andeq	r0, r0, ip
 624:	0e018e42 	cdpeq	14, 0, cr8, cr1, cr2, {2}
 628:	00000008 	andeq	r0, r0, r8
